

Microchip MPLAB XC8 Assembler V2.32 build 20210201212658 
                                                                                               Fri Jun 18 21:08:41 2021

Microchip MPLAB XC8 C Compiler v2.32 (Free license) build 20210201212658 Og1 
     1                           	processor	16LF1829
     2                           	pagewidth 120
     3                           	opt	flic
     4                           	psect	stringtext1,global,class=STRCODE,delta=2,noexec
     5                           	psect	bitnvBANK0,global,bit,class=BANK0,space=1,delta=1,noexec
     6                           	psect	stringtext2,global,class=STRCODE,delta=2,noexec
     7                           	psect	stringtext3,global,class=STRCODE,delta=2,noexec
     8                           	psect	stringtext4,global,class=STRCODE,delta=2,noexec
     9                           	psect	stringtext5,global,class=STRCODE,delta=2,noexec
    10                           	psect	stringtext6,global,class=STRCODE,delta=2,noexec
    11                           	psect	stringtext7,global,class=STRCODE,delta=2,noexec
    12                           	psect	stringtext8,global,class=STRCODE,delta=2,noexec
    13                           	psect	stringtext9,global,class=STRCODE,delta=2,noexec
    14                           	psect	stringtext10,global,class=STRCODE,delta=2,noexec
    15                           	psect	stringtext11,global,class=STRCODE,delta=2,noexec
    16                           	psect	stringtext12,global,class=STRCODE,delta=2,noexec
    17                           	psect	stringtext13,global,class=STRCODE,delta=2,noexec
    18                           	psect	stringtext14,global,class=STRCODE,delta=2,noexec
    19                           	psect	stringtext15,global,class=STRCODE,delta=2,noexec
    20                           	psect	stringtext16,global,class=STRCODE,delta=2,noexec
    21                           	psect	stringtext17,global,class=STRCODE,delta=2,noexec
    22                           	psect	stringtext18,global,class=STRCODE,delta=2,noexec
    23                           	psect	stringtext19,global,class=STRCODE,delta=2,noexec
    24                           	psect	stringtext20,global,class=STRCODE,delta=2,noexec
    25                           	psect	stringtext21,global,class=STRCODE,delta=2,noexec
    26                           	psect	stringtext22,global,class=STRCODE,delta=2,noexec
    27                           	psect	stringtext23,global,class=STRCODE,delta=2,noexec
    28                           	psect	stringtext24,global,class=STRCODE,delta=2,noexec
    29                           	psect	cinit,global,class=CODE,merge=1,delta=2
    30                           	psect	bitbssCOMMON,global,bit,class=COMMON,space=1,delta=1,noexec
    31                           	psect	bssCOMMON,global,class=COMMON,space=1,delta=1,noexec
    32                           	psect	bitbssBANK0,global,bit,class=BANK0,space=1,delta=1,noexec
    33                           	psect	bssBANK0,global,class=BANK0,space=1,delta=1,noexec
    34                           	psect	bssBANK1,global,class=BANK1,space=1,delta=1,noexec
    35                           	psect	clrtext,global,class=CODE,delta=2
    36                           	psect	cstackCOMMON,global,class=COMMON,space=1,delta=1,noexec
    37                           	psect	cstackBANK0,global,class=BANK0,space=1,delta=1,noexec
    38                           	psect	maintext,global,class=CODE,merge=1,split=1,delta=2,codecov
    39                           	psect	text1,local,class=CODE,merge=1,delta=2,codecov
    40                           	psect	text2,local,class=CODE,merge=1,delta=2,codecov
    41                           	psect	text3,local,class=CODE,merge=1,delta=2,codecov
    42                           	psect	text4,local,class=CODE,merge=1,delta=2,codecov
    43                           	psect	text5,local,class=CODE,merge=1,delta=2,codecov
    44                           	psect	text6,local,class=CODE,merge=1,delta=2,group=2
    45                           	psect	text7,local,class=CODE,merge=1,delta=2,codecov
    46                           	psect	text8,local,class=CODE,merge=1,delta=2,codecov
    47                           	psect	text9,local,class=CODE,merge=1,delta=2,codecov
    48                           	psect	text10,local,class=CODE,merge=1,delta=2,codecov
    49                           	psect	text11,local,class=CODE,merge=1,delta=2,codecov
    50                           	psect	text12,local,class=CODE,merge=1,delta=2,codecov
    51                           	psect	text13,local,class=CODE,merge=1,delta=2,group=3
    52                           	psect	text14,local,class=CODE,merge=1,delta=2,group=1
    53                           	psect	text15,local,class=CODE,merge=1,delta=2,group=1
    54                           	psect	text16,local,class=CODE,merge=1,delta=2,group=3
    55                           	psect	text17,local,class=CODE,merge=1,delta=2,codecov
    56                           	psect	text18,local,class=CODE,merge=1,delta=2,codecov
    57                           	psect	text19,local,class=CODE,merge=1,delta=2,codecov
    58                           	psect	text20,local,class=CODE,merge=1,delta=2,codecov
    59                           	psect	text21,local,class=CODE,merge=1,delta=2,codecov
    60                           	psect	text22,local,class=CODE,merge=1,delta=2,codecov
    61                           	psect	text23,local,class=CODE,merge=1,delta=2,codecov
    62                           	psect	text24,local,class=CODE,merge=1,delta=2,group=2
    63                           	psect	text25,local,class=CODE,merge=1,delta=2,codecov
    64                           	psect	text26,local,class=CODE,merge=1,delta=2,codecov
    65                           	psect	text27,local,class=CODE,merge=1,delta=2,group=2
    66                           	psect	text28,local,class=CODE,merge=1,delta=2,codecov
    67                           	psect	intentry,global,class=CODE,delta=2
    68                           	psect	codecov_info_hdr,global,note,abs,reloc=1,space=6,split=0,delta=1,noexec
    69                           	psect	codecov_info,global,note,abs,reloc=1,space=6,split=0,delta=1,noexec
    70                           	psect	config,global,abs,ovrld,class=CONFIG,space=4,delta=2,noexec
    71                           	dabs	1,0x7E,2
    72  0000                     
    73                           ; Version 2.20
    74                           ; Generated 12/02/2020 GMT
    75                           ; 
    76                           ; Copyright © 2020, Microchip Technology Inc. and its subsidiaries ("Microchip")
    77                           ; All rights reserved.
    78                           ; 
    79                           ; This software is developed by Microchip Technology Inc. and its subsidiaries ("Microch
      +                          ip").
    80                           ; 
    81                           ; Redistribution and use in source and binary forms, with or without modification, are
    82                           ; permitted provided that the following conditions are met:
    83                           ; 
    84                           ;     1. Redistributions of source code must retain the above copyright notice, this lis
      +                          t of
    85                           ;        conditions and the following disclaimer.
    86                           ; 
    87                           ;     2. Redistributions in binary form must reproduce the above copyright notice, this 
      +                          list
    88                           ;        of conditions and the following disclaimer in the documentation and/or other
    89                           ;        materials provided with the distribution.
    90                           ; 
    91                           ;     3. Microchip's name may not be used to endorse or promote products derived from th
      +                          is
    92                           ;        software without specific prior written permission.
    93                           ; 
    94                           ; THIS SOFTWARE IS PROVIDED BY MICROCHIP "AS IS" AND ANY EXPRESS OR IMPLIED WARRANTIES,
    95                           ; INCLUDING, BUT NOT LIMITED TO, THE IMPLIED WARRANTIES OF MERCHANTABILITY AND FITNESS F
      +                          OR
    96                           ; PURPOSE ARE DISCLAIMED.  IN NO EVENT SHALL MICROCHIP BE LIABLE FOR ANY DIRECT, INDIREC
      +                          T,
    97                           ; INCIDENTAL, SPECIAL, EXEMPLARY, OR CONSEQUENTIAL DAMAGES (INCLUDING BUT NOT LIMITED TO
    98                           ; PROCUREMENT OF SUBSTITUTE GOODS OR SERVICES; LOSS OF USE, DATA OR PROFITS; OR BUSINESS
    99                           ; INTERRUPTION) HOWSOEVER CAUSED AND ON ANY THEORY OF LIABILITY, WHETHER IN CONTRACT, ST
      +                          RICT
   100                           ; LIABILITY, OR TORT (INCLUDING NEGLIGENCE OR OTHERWISE) ARISING IN ANY WAY OUT OF THE U
      +                          SE OF
   101                           ; THIS SOFTWARE, EVEN IF ADVISED OF THE POSSIBILITY OF SUCH DAMAGE.
   102                           ; 
   103                           ; 
   104                           ; Code-generator required, PIC16LF1829 Definitions
   105                           ; 
   106                           ; SFR Addresses
   107  0000                     	;# 
   108  0001                     	;# 
   109  0002                     	;# 
   110  0003                     	;# 
   111  0004                     	;# 
   112  0005                     	;# 
   113  0006                     	;# 
   114  0007                     	;# 
   115  0008                     	;# 
   116  0009                     	;# 
   117  000A                     	;# 
   118  000B                     	;# 
   119  000C                     	;# 
   120  000D                     	;# 
   121  000E                     	;# 
   122  0011                     	;# 
   123  0012                     	;# 
   124  0013                     	;# 
   125  0014                     	;# 
   126  0015                     	;# 
   127  0016                     	;# 
   128  0016                     	;# 
   129  0017                     	;# 
   130  0018                     	;# 
   131  0019                     	;# 
   132  001A                     	;# 
   133  001B                     	;# 
   134  001C                     	;# 
   135  001E                     	;# 
   136  001F                     	;# 
   137  008C                     	;# 
   138  008D                     	;# 
   139  008E                     	;# 
   140  0091                     	;# 
   141  0092                     	;# 
   142  0093                     	;# 
   143  0094                     	;# 
   144  0095                     	;# 
   145  0096                     	;# 
   146  0097                     	;# 
   147  0098                     	;# 
   148  0099                     	;# 
   149  009A                     	;# 
   150  009B                     	;# 
   151  009B                     	;# 
   152  009C                     	;# 
   153  009D                     	;# 
   154  009E                     	;# 
   155  010C                     	;# 
   156  010D                     	;# 
   157  010E                     	;# 
   158  0111                     	;# 
   159  0112                     	;# 
   160  0113                     	;# 
   161  0114                     	;# 
   162  0115                     	;# 
   163  0116                     	;# 
   164  0117                     	;# 
   165  0118                     	;# 
   166  0119                     	;# 
   167  011A                     	;# 
   168  011B                     	;# 
   169  011D                     	;# 
   170  011E                     	;# 
   171  018C                     	;# 
   172  018D                     	;# 
   173  018E                     	;# 
   174  0191                     	;# 
   175  0191                     	;# 
   176  0192                     	;# 
   177  0193                     	;# 
   178  0193                     	;# 
   179  0193                     	;# 
   180  0194                     	;# 
   181  0195                     	;# 
   182  0196                     	;# 
   183  0199                     	;# 
   184  019A                     	;# 
   185  019B                     	;# 
   186  019B                     	;# 
   187  019B                     	;# 
   188  019B                     	;# 
   189  019C                     	;# 
   190  019C                     	;# 
   191  019D                     	;# 
   192  019E                     	;# 
   193  019F                     	;# 
   194  020C                     	;# 
   195  020D                     	;# 
   196  020E                     	;# 
   197  0211                     	;# 
   198  0211                     	;# 
   199  0212                     	;# 
   200  0212                     	;# 
   201  0213                     	;# 
   202  0213                     	;# 
   203  0214                     	;# 
   204  0214                     	;# 
   205  0215                     	;# 
   206  0215                     	;# 
   207  0215                     	;# 
   208  0216                     	;# 
   209  0216                     	;# 
   210  0217                     	;# 
   211  0217                     	;# 
   212  0219                     	;# 
   213  021A                     	;# 
   214  021B                     	;# 
   215  021C                     	;# 
   216  021D                     	;# 
   217  021E                     	;# 
   218  021F                     	;# 
   219  0291                     	;# 
   220  0291                     	;# 
   221  0292                     	;# 
   222  0293                     	;# 
   223  0294                     	;# 
   224  0295                     	;# 
   225  0295                     	;# 
   226  0296                     	;# 
   227  0298                     	;# 
   228  0298                     	;# 
   229  0299                     	;# 
   230  029A                     	;# 
   231  029B                     	;# 
   232  029C                     	;# 
   233  029D                     	;# 
   234  029E                     	;# 
   235  0311                     	;# 
   236  0311                     	;# 
   237  0312                     	;# 
   238  0313                     	;# 
   239  0318                     	;# 
   240  0318                     	;# 
   241  0319                     	;# 
   242  031A                     	;# 
   243  038C                     	;# 
   244  038D                     	;# 
   245  038E                     	;# 
   246  0391                     	;# 
   247  0392                     	;# 
   248  0393                     	;# 
   249  0394                     	;# 
   250  0395                     	;# 
   251  0396                     	;# 
   252  039A                     	;# 
   253  039C                     	;# 
   254  039D                     	;# 
   255  039E                     	;# 
   256  039F                     	;# 
   257  0415                     	;# 
   258  0416                     	;# 
   259  0417                     	;# 
   260  041C                     	;# 
   261  041D                     	;# 
   262  041E                     	;# 
   263  0FE4                     	;# 
   264  0FE5                     	;# 
   265  0FE6                     	;# 
   266  0FE7                     	;# 
   267  0FE8                     	;# 
   268  0FE9                     	;# 
   269  0FEA                     	;# 
   270  0FEB                     	;# 
   271  0FED                     	;# 
   272  0FEE                     	;# 
   273  0FEF                     	;# 
   274  0000                     	;# 
   275  0001                     	;# 
   276  0002                     	;# 
   277  0003                     	;# 
   278  0004                     	;# 
   279  0005                     	;# 
   280  0006                     	;# 
   281  0007                     	;# 
   282  0008                     	;# 
   283  0009                     	;# 
   284  000A                     	;# 
   285  000B                     	;# 
   286  000C                     	;# 
   287  000D                     	;# 
   288  000E                     	;# 
   289  0011                     	;# 
   290  0012                     	;# 
   291  0013                     	;# 
   292  0014                     	;# 
   293  0015                     	;# 
   294  0016                     	;# 
   295  0016                     	;# 
   296  0017                     	;# 
   297  0018                     	;# 
   298  0019                     	;# 
   299  001A                     	;# 
   300  001B                     	;# 
   301  001C                     	;# 
   302  001E                     	;# 
   303  001F                     	;# 
   304  008C                     	;# 
   305  008D                     	;# 
   306  008E                     	;# 
   307  0091                     	;# 
   308  0092                     	;# 
   309  0093                     	;# 
   310  0094                     	;# 
   311  0095                     	;# 
   312  0096                     	;# 
   313  0097                     	;# 
   314  0098                     	;# 
   315  0099                     	;# 
   316  009A                     	;# 
   317  009B                     	;# 
   318  009B                     	;# 
   319  009C                     	;# 
   320  009D                     	;# 
   321  009E                     	;# 
   322  010C                     	;# 
   323  010D                     	;# 
   324  010E                     	;# 
   325  0111                     	;# 
   326  0112                     	;# 
   327  0113                     	;# 
   328  0114                     	;# 
   329  0115                     	;# 
   330  0116                     	;# 
   331  0117                     	;# 
   332  0118                     	;# 
   333  0119                     	;# 
   334  011A                     	;# 
   335  011B                     	;# 
   336  011D                     	;# 
   337  011E                     	;# 
   338  018C                     	;# 
   339  018D                     	;# 
   340  018E                     	;# 
   341  0191                     	;# 
   342  0191                     	;# 
   343  0192                     	;# 
   344  0193                     	;# 
   345  0193                     	;# 
   346  0193                     	;# 
   347  0194                     	;# 
   348  0195                     	;# 
   349  0196                     	;# 
   350  0199                     	;# 
   351  019A                     	;# 
   352  019B                     	;# 
   353  019B                     	;# 
   354  019B                     	;# 
   355  019B                     	;# 
   356  019C                     	;# 
   357  019C                     	;# 
   358  019D                     	;# 
   359  019E                     	;# 
   360  019F                     	;# 
   361  020C                     	;# 
   362  020D                     	;# 
   363  020E                     	;# 
   364  0211                     	;# 
   365  0211                     	;# 
   366  0212                     	;# 
   367  0212                     	;# 
   368  0213                     	;# 
   369  0213                     	;# 
   370  0214                     	;# 
   371  0214                     	;# 
   372  0215                     	;# 
   373  0215                     	;# 
   374  0215                     	;# 
   375  0216                     	;# 
   376  0216                     	;# 
   377  0217                     	;# 
   378  0217                     	;# 
   379  0219                     	;# 
   380  021A                     	;# 
   381  021B                     	;# 
   382  021C                     	;# 
   383  021D                     	;# 
   384  021E                     	;# 
   385  021F                     	;# 
   386  0291                     	;# 
   387  0291                     	;# 
   388  0292                     	;# 
   389  0293                     	;# 
   390  0294                     	;# 
   391  0295                     	;# 
   392  0295                     	;# 
   393  0296                     	;# 
   394  0298                     	;# 
   395  0298                     	;# 
   396  0299                     	;# 
   397  029A                     	;# 
   398  029B                     	;# 
   399  029C                     	;# 
   400  029D                     	;# 
   401  029E                     	;# 
   402  0311                     	;# 
   403  0311                     	;# 
   404  0312                     	;# 
   405  0313                     	;# 
   406  0318                     	;# 
   407  0318                     	;# 
   408  0319                     	;# 
   409  031A                     	;# 
   410  038C                     	;# 
   411  038D                     	;# 
   412  038E                     	;# 
   413  0391                     	;# 
   414  0392                     	;# 
   415  0393                     	;# 
   416  0394                     	;# 
   417  0395                     	;# 
   418  0396                     	;# 
   419  039A                     	;# 
   420  039C                     	;# 
   421  039D                     	;# 
   422  039E                     	;# 
   423  039F                     	;# 
   424  0415                     	;# 
   425  0416                     	;# 
   426  0417                     	;# 
   427  041C                     	;# 
   428  041D                     	;# 
   429  041E                     	;# 
   430  0FE4                     	;# 
   431  0FE5                     	;# 
   432  0FE6                     	;# 
   433  0FE7                     	;# 
   434  0FE8                     	;# 
   435  0FE9                     	;# 
   436  0FEA                     	;# 
   437  0FEB                     	;# 
   438  0FED                     	;# 
   439  0FEE                     	;# 
   440  0FEF                     	;# 
   441  0000                     	;# 
   442  0001                     	;# 
   443  0002                     	;# 
   444  0003                     	;# 
   445  0004                     	;# 
   446  0005                     	;# 
   447  0006                     	;# 
   448  0007                     	;# 
   449  0008                     	;# 
   450  0009                     	;# 
   451  000A                     	;# 
   452  000B                     	;# 
   453  000C                     	;# 
   454  000D                     	;# 
   455  000E                     	;# 
   456  0011                     	;# 
   457  0012                     	;# 
   458  0013                     	;# 
   459  0014                     	;# 
   460  0015                     	;# 
   461  0016                     	;# 
   462  0016                     	;# 
   463  0017                     	;# 
   464  0018                     	;# 
   465  0019                     	;# 
   466  001A                     	;# 
   467  001B                     	;# 
   468  001C                     	;# 
   469  001E                     	;# 
   470  001F                     	;# 
   471  008C                     	;# 
   472  008D                     	;# 
   473  008E                     	;# 
   474  0091                     	;# 
   475  0092                     	;# 
   476  0093                     	;# 
   477  0094                     	;# 
   478  0095                     	;# 
   479  0096                     	;# 
   480  0097                     	;# 
   481  0098                     	;# 
   482  0099                     	;# 
   483  009A                     	;# 
   484  009B                     	;# 
   485  009B                     	;# 
   486  009C                     	;# 
   487  009D                     	;# 
   488  009E                     	;# 
   489  010C                     	;# 
   490  010D                     	;# 
   491  010E                     	;# 
   492  0111                     	;# 
   493  0112                     	;# 
   494  0113                     	;# 
   495  0114                     	;# 
   496  0115                     	;# 
   497  0116                     	;# 
   498  0117                     	;# 
   499  0118                     	;# 
   500  0119                     	;# 
   501  011A                     	;# 
   502  011B                     	;# 
   503  011D                     	;# 
   504  011E                     	;# 
   505  018C                     	;# 
   506  018D                     	;# 
   507  018E                     	;# 
   508  0191                     	;# 
   509  0191                     	;# 
   510  0192                     	;# 
   511  0193                     	;# 
   512  0193                     	;# 
   513  0193                     	;# 
   514  0194                     	;# 
   515  0195                     	;# 
   516  0196                     	;# 
   517  0199                     	;# 
   518  019A                     	;# 
   519  019B                     	;# 
   520  019B                     	;# 
   521  019B                     	;# 
   522  019B                     	;# 
   523  019C                     	;# 
   524  019C                     	;# 
   525  019D                     	;# 
   526  019E                     	;# 
   527  019F                     	;# 
   528  020C                     	;# 
   529  020D                     	;# 
   530  020E                     	;# 
   531  0211                     	;# 
   532  0211                     	;# 
   533  0212                     	;# 
   534  0212                     	;# 
   535  0213                     	;# 
   536  0213                     	;# 
   537  0214                     	;# 
   538  0214                     	;# 
   539  0215                     	;# 
   540  0215                     	;# 
   541  0215                     	;# 
   542  0216                     	;# 
   543  0216                     	;# 
   544  0217                     	;# 
   545  0217                     	;# 
   546  0219                     	;# 
   547  021A                     	;# 
   548  021B                     	;# 
   549  021C                     	;# 
   550  021D                     	;# 
   551  021E                     	;# 
   552  021F                     	;# 
   553  0291                     	;# 
   554  0291                     	;# 
   555  0292                     	;# 
   556  0293                     	;# 
   557  0294                     	;# 
   558  0295                     	;# 
   559  0295                     	;# 
   560  0296                     	;# 
   561  0298                     	;# 
   562  0298                     	;# 
   563  0299                     	;# 
   564  029A                     	;# 
   565  029B                     	;# 
   566  029C                     	;# 
   567  029D                     	;# 
   568  029E                     	;# 
   569  0311                     	;# 
   570  0311                     	;# 
   571  0312                     	;# 
   572  0313                     	;# 
   573  0318                     	;# 
   574  0318                     	;# 
   575  0319                     	;# 
   576  031A                     	;# 
   577  038C                     	;# 
   578  038D                     	;# 
   579  038E                     	;# 
   580  0391                     	;# 
   581  0392                     	;# 
   582  0393                     	;# 
   583  0394                     	;# 
   584  0395                     	;# 
   585  0396                     	;# 
   586  039A                     	;# 
   587  039C                     	;# 
   588  039D                     	;# 
   589  039E                     	;# 
   590  039F                     	;# 
   591  0415                     	;# 
   592  0416                     	;# 
   593  0417                     	;# 
   594  041C                     	;# 
   595  041D                     	;# 
   596  041E                     	;# 
   597  0FE4                     	;# 
   598  0FE5                     	;# 
   599  0FE6                     	;# 
   600  0FE7                     	;# 
   601  0FE8                     	;# 
   602  0FE9                     	;# 
   603  0FEA                     	;# 
   604  0FEB                     	;# 
   605  0FED                     	;# 
   606  0FEE                     	;# 
   607  0FEF                     	;# 
   608  0000                     	;# 
   609  0001                     	;# 
   610  0002                     	;# 
   611  0003                     	;# 
   612  0004                     	;# 
   613  0005                     	;# 
   614  0006                     	;# 
   615  0007                     	;# 
   616  0008                     	;# 
   617  0009                     	;# 
   618  000A                     	;# 
   619  000B                     	;# 
   620  000C                     	;# 
   621  000D                     	;# 
   622  000E                     	;# 
   623  0011                     	;# 
   624  0012                     	;# 
   625  0013                     	;# 
   626  0014                     	;# 
   627  0015                     	;# 
   628  0016                     	;# 
   629  0016                     	;# 
   630  0017                     	;# 
   631  0018                     	;# 
   632  0019                     	;# 
   633  001A                     	;# 
   634  001B                     	;# 
   635  001C                     	;# 
   636  001E                     	;# 
   637  001F                     	;# 
   638  008C                     	;# 
   639  008D                     	;# 
   640  008E                     	;# 
   641  0091                     	;# 
   642  0092                     	;# 
   643  0093                     	;# 
   644  0094                     	;# 
   645  0095                     	;# 
   646  0096                     	;# 
   647  0097                     	;# 
   648  0098                     	;# 
   649  0099                     	;# 
   650  009A                     	;# 
   651  009B                     	;# 
   652  009B                     	;# 
   653  009C                     	;# 
   654  009D                     	;# 
   655  009E                     	;# 
   656  010C                     	;# 
   657  010D                     	;# 
   658  010E                     	;# 
   659  0111                     	;# 
   660  0112                     	;# 
   661  0113                     	;# 
   662  0114                     	;# 
   663  0115                     	;# 
   664  0116                     	;# 
   665  0117                     	;# 
   666  0118                     	;# 
   667  0119                     	;# 
   668  011A                     	;# 
   669  011B                     	;# 
   670  011D                     	;# 
   671  011E                     	;# 
   672  018C                     	;# 
   673  018D                     	;# 
   674  018E                     	;# 
   675  0191                     	;# 
   676  0191                     	;# 
   677  0192                     	;# 
   678  0193                     	;# 
   679  0193                     	;# 
   680  0193                     	;# 
   681  0194                     	;# 
   682  0195                     	;# 
   683  0196                     	;# 
   684  0199                     	;# 
   685  019A                     	;# 
   686  019B                     	;# 
   687  019B                     	;# 
   688  019B                     	;# 
   689  019B                     	;# 
   690  019C                     	;# 
   691  019C                     	;# 
   692  019D                     	;# 
   693  019E                     	;# 
   694  019F                     	;# 
   695  020C                     	;# 
   696  020D                     	;# 
   697  020E                     	;# 
   698  0211                     	;# 
   699  0211                     	;# 
   700  0212                     	;# 
   701  0212                     	;# 
   702  0213                     	;# 
   703  0213                     	;# 
   704  0214                     	;# 
   705  0214                     	;# 
   706  0215                     	;# 
   707  0215                     	;# 
   708  0215                     	;# 
   709  0216                     	;# 
   710  0216                     	;# 
   711  0217                     	;# 
   712  0217                     	;# 
   713  0219                     	;# 
   714  021A                     	;# 
   715  021B                     	;# 
   716  021C                     	;# 
   717  021D                     	;# 
   718  021E                     	;# 
   719  021F                     	;# 
   720  0291                     	;# 
   721  0291                     	;# 
   722  0292                     	;# 
   723  0293                     	;# 
   724  0294                     	;# 
   725  0295                     	;# 
   726  0295                     	;# 
   727  0296                     	;# 
   728  0298                     	;# 
   729  0298                     	;# 
   730  0299                     	;# 
   731  029A                     	;# 
   732  029B                     	;# 
   733  029C                     	;# 
   734  029D                     	;# 
   735  029E                     	;# 
   736  0311                     	;# 
   737  0311                     	;# 
   738  0312                     	;# 
   739  0313                     	;# 
   740  0318                     	;# 
   741  0318                     	;# 
   742  0319                     	;# 
   743  031A                     	;# 
   744  038C                     	;# 
   745  038D                     	;# 
   746  038E                     	;# 
   747  0391                     	;# 
   748  0392                     	;# 
   749  0393                     	;# 
   750  0394                     	;# 
   751  0395                     	;# 
   752  0396                     	;# 
   753  039A                     	;# 
   754  039C                     	;# 
   755  039D                     	;# 
   756  039E                     	;# 
   757  039F                     	;# 
   758  0415                     	;# 
   759  0416                     	;# 
   760  0417                     	;# 
   761  041C                     	;# 
   762  041D                     	;# 
   763  041E                     	;# 
   764  0FE4                     	;# 
   765  0FE5                     	;# 
   766  0FE6                     	;# 
   767  0FE7                     	;# 
   768  0FE8                     	;# 
   769  0FE9                     	;# 
   770  0FEA                     	;# 
   771  0FEB                     	;# 
   772  0FED                     	;# 
   773  0FEE                     	;# 
   774  0FEF                     	;# 
   775  0000                     	;# 
   776  0001                     	;# 
   777  0002                     	;# 
   778  0003                     	;# 
   779  0004                     	;# 
   780  0005                     	;# 
   781  0006                     	;# 
   782  0007                     	;# 
   783  0008                     	;# 
   784  0009                     	;# 
   785  000A                     	;# 
   786  000B                     	;# 
   787  000C                     	;# 
   788  000D                     	;# 
   789  000E                     	;# 
   790  0011                     	;# 
   791  0012                     	;# 
   792  0013                     	;# 
   793  0014                     	;# 
   794  0015                     	;# 
   795  0016                     	;# 
   796  0016                     	;# 
   797  0017                     	;# 
   798  0018                     	;# 
   799  0019                     	;# 
   800  001A                     	;# 
   801  001B                     	;# 
   802  001C                     	;# 
   803  001E                     	;# 
   804  001F                     	;# 
   805  008C                     	;# 
   806  008D                     	;# 
   807  008E                     	;# 
   808  0091                     	;# 
   809  0092                     	;# 
   810  0093                     	;# 
   811  0094                     	;# 
   812  0095                     	;# 
   813  0096                     	;# 
   814  0097                     	;# 
   815  0098                     	;# 
   816  0099                     	;# 
   817  009A                     	;# 
   818  009B                     	;# 
   819  009B                     	;# 
   820  009C                     	;# 
   821  009D                     	;# 
   822  009E                     	;# 
   823  010C                     	;# 
   824  010D                     	;# 
   825  010E                     	;# 
   826  0111                     	;# 
   827  0112                     	;# 
   828  0113                     	;# 
   829  0114                     	;# 
   830  0115                     	;# 
   831  0116                     	;# 
   832  0117                     	;# 
   833  0118                     	;# 
   834  0119                     	;# 
   835  011A                     	;# 
   836  011B                     	;# 
   837  011D                     	;# 
   838  011E                     	;# 
   839  018C                     	;# 
   840  018D                     	;# 
   841  018E                     	;# 
   842  0191                     	;# 
   843  0191                     	;# 
   844  0192                     	;# 
   845  0193                     	;# 
   846  0193                     	;# 
   847  0193                     	;# 
   848  0194                     	;# 
   849  0195                     	;# 
   850  0196                     	;# 
   851  0199                     	;# 
   852  019A                     	;# 
   853  019B                     	;# 
   854  019B                     	;# 
   855  019B                     	;# 
   856  019B                     	;# 
   857  019C                     	;# 
   858  019C                     	;# 
   859  019D                     	;# 
   860  019E                     	;# 
   861  019F                     	;# 
   862  020C                     	;# 
   863  020D                     	;# 
   864  020E                     	;# 
   865  0211                     	;# 
   866  0211                     	;# 
   867  0212                     	;# 
   868  0212                     	;# 
   869  0213                     	;# 
   870  0213                     	;# 
   871  0214                     	;# 
   872  0214                     	;# 
   873  0215                     	;# 
   874  0215                     	;# 
   875  0215                     	;# 
   876  0216                     	;# 
   877  0216                     	;# 
   878  0217                     	;# 
   879  0217                     	;# 
   880  0219                     	;# 
   881  021A                     	;# 
   882  021B                     	;# 
   883  021C                     	;# 
   884  021D                     	;# 
   885  021E                     	;# 
   886  021F                     	;# 
   887  0291                     	;# 
   888  0291                     	;# 
   889  0292                     	;# 
   890  0293                     	;# 
   891  0294                     	;# 
   892  0295                     	;# 
   893  0295                     	;# 
   894  0296                     	;# 
   895  0298                     	;# 
   896  0298                     	;# 
   897  0299                     	;# 
   898  029A                     	;# 
   899  029B                     	;# 
   900  029C                     	;# 
   901  029D                     	;# 
   902  029E                     	;# 
   903  0311                     	;# 
   904  0311                     	;# 
   905  0312                     	;# 
   906  0313                     	;# 
   907  0318                     	;# 
   908  0318                     	;# 
   909  0319                     	;# 
   910  031A                     	;# 
   911  038C                     	;# 
   912  038D                     	;# 
   913  038E                     	;# 
   914  0391                     	;# 
   915  0392                     	;# 
   916  0393                     	;# 
   917  0394                     	;# 
   918  0395                     	;# 
   919  0396                     	;# 
   920  039A                     	;# 
   921  039C                     	;# 
   922  039D                     	;# 
   923  039E                     	;# 
   924  039F                     	;# 
   925  0415                     	;# 
   926  0416                     	;# 
   927  0417                     	;# 
   928  041C                     	;# 
   929  041D                     	;# 
   930  041E                     	;# 
   931  0FE4                     	;# 
   932  0FE5                     	;# 
   933  0FE6                     	;# 
   934  0FE7                     	;# 
   935  0FE8                     	;# 
   936  0FE9                     	;# 
   937  0FEA                     	;# 
   938  0FEB                     	;# 
   939  0FED                     	;# 
   940  0FEE                     	;# 
   941  0FEF                     	;# 
   942  0000                     	;# 
   943  0001                     	;# 
   944  0002                     	;# 
   945  0003                     	;# 
   946  0004                     	;# 
   947  0005                     	;# 
   948  0006                     	;# 
   949  0007                     	;# 
   950  0008                     	;# 
   951  0009                     	;# 
   952  000A                     	;# 
   953  000B                     	;# 
   954  000C                     	;# 
   955  000D                     	;# 
   956  000E                     	;# 
   957  0011                     	;# 
   958  0012                     	;# 
   959  0013                     	;# 
   960  0014                     	;# 
   961  0015                     	;# 
   962  0016                     	;# 
   963  0016                     	;# 
   964  0017                     	;# 
   965  0018                     	;# 
   966  0019                     	;# 
   967  001A                     	;# 
   968  001B                     	;# 
   969  001C                     	;# 
   970  001E                     	;# 
   971  001F                     	;# 
   972  008C                     	;# 
   973  008D                     	;# 
   974  008E                     	;# 
   975  0091                     	;# 
   976  0092                     	;# 
   977  0093                     	;# 
   978  0094                     	;# 
   979  0095                     	;# 
   980  0096                     	;# 
   981  0097                     	;# 
   982  0098                     	;# 
   983  0099                     	;# 
   984  009A                     	;# 
   985  009B                     	;# 
   986  009B                     	;# 
   987  009C                     	;# 
   988  009D                     	;# 
   989  009E                     	;# 
   990  010C                     	;# 
   991  010D                     	;# 
   992  010E                     	;# 
   993  0111                     	;# 
   994  0112                     	;# 
   995  0113                     	;# 
   996  0114                     	;# 
   997  0115                     	;# 
   998  0116                     	;# 
   999  0117                     	;# 
  1000  0118                     	;# 
  1001  0119                     	;# 
  1002  011A                     	;# 
  1003  011B                     	;# 
  1004  011D                     	;# 
  1005  011E                     	;# 
  1006  018C                     	;# 
  1007  018D                     	;# 
  1008  018E                     	;# 
  1009  0191                     	;# 
  1010  0191                     	;# 
  1011  0192                     	;# 
  1012  0193                     	;# 
  1013  0193                     	;# 
  1014  0193                     	;# 
  1015  0194                     	;# 
  1016  0195                     	;# 
  1017  0196                     	;# 
  1018  0199                     	;# 
  1019  019A                     	;# 
  1020  019B                     	;# 
  1021  019B                     	;# 
  1022  019B                     	;# 
  1023  019B                     	;# 
  1024  019C                     	;# 
  1025  019C                     	;# 
  1026  019D                     	;# 
  1027  019E                     	;# 
  1028  019F                     	;# 
  1029  020C                     	;# 
  1030  020D                     	;# 
  1031  020E                     	;# 
  1032  0211                     	;# 
  1033  0211                     	;# 
  1034  0212                     	;# 
  1035  0212                     	;# 
  1036  0213                     	;# 
  1037  0213                     	;# 
  1038  0214                     	;# 
  1039  0214                     	;# 
  1040  0215                     	;# 
  1041  0215                     	;# 
  1042  0215                     	;# 
  1043  0216                     	;# 
  1044  0216                     	;# 
  1045  0217                     	;# 
  1046  0217                     	;# 
  1047  0219                     	;# 
  1048  021A                     	;# 
  1049  021B                     	;# 
  1050  021C                     	;# 
  1051  021D                     	;# 
  1052  021E                     	;# 
  1053  021F                     	;# 
  1054  0291                     	;# 
  1055  0291                     	;# 
  1056  0292                     	;# 
  1057  0293                     	;# 
  1058  0294                     	;# 
  1059  0295                     	;# 
  1060  0295                     	;# 
  1061  0296                     	;# 
  1062  0298                     	;# 
  1063  0298                     	;# 
  1064  0299                     	;# 
  1065  029A                     	;# 
  1066  029B                     	;# 
  1067  029C                     	;# 
  1068  029D                     	;# 
  1069  029E                     	;# 
  1070  0311                     	;# 
  1071  0311                     	;# 
  1072  0312                     	;# 
  1073  0313                     	;# 
  1074  0318                     	;# 
  1075  0318                     	;# 
  1076  0319                     	;# 
  1077  031A                     	;# 
  1078  038C                     	;# 
  1079  038D                     	;# 
  1080  038E                     	;# 
  1081  0391                     	;# 
  1082  0392                     	;# 
  1083  0393                     	;# 
  1084  0394                     	;# 
  1085  0395                     	;# 
  1086  0396                     	;# 
  1087  039A                     	;# 
  1088  039C                     	;# 
  1089  039D                     	;# 
  1090  039E                     	;# 
  1091  039F                     	;# 
  1092  0415                     	;# 
  1093  0416                     	;# 
  1094  0417                     	;# 
  1095  041C                     	;# 
  1096  041D                     	;# 
  1097  041E                     	;# 
  1098  0FE4                     	;# 
  1099  0FE5                     	;# 
  1100  0FE6                     	;# 
  1101  0FE7                     	;# 
  1102  0FE8                     	;# 
  1103  0FE9                     	;# 
  1104  0FEA                     	;# 
  1105  0FEB                     	;# 
  1106  0FED                     	;# 
  1107  0FEE                     	;# 
  1108  0FEF                     	;# 
  1109  0000                     	;# 
  1110  0001                     	;# 
  1111  0002                     	;# 
  1112  0003                     	;# 
  1113  0004                     	;# 
  1114  0005                     	;# 
  1115  0006                     	;# 
  1116  0007                     	;# 
  1117  0008                     	;# 
  1118  0009                     	;# 
  1119  000A                     	;# 
  1120  000B                     	;# 
  1121  000C                     	;# 
  1122  000D                     	;# 
  1123  000E                     	;# 
  1124  0011                     	;# 
  1125  0012                     	;# 
  1126  0013                     	;# 
  1127  0014                     	;# 
  1128  0015                     	;# 
  1129  0016                     	;# 
  1130  0016                     	;# 
  1131  0017                     	;# 
  1132  0018                     	;# 
  1133  0019                     	;# 
  1134  001A                     	;# 
  1135  001B                     	;# 
  1136  001C                     	;# 
  1137  001E                     	;# 
  1138  001F                     	;# 
  1139  008C                     	;# 
  1140  008D                     	;# 
  1141  008E                     	;# 
  1142  0091                     	;# 
  1143  0092                     	;# 
  1144  0093                     	;# 
  1145  0094                     	;# 
  1146  0095                     	;# 
  1147  0096                     	;# 
  1148  0097                     	;# 
  1149  0098                     	;# 
  1150  0099                     	;# 
  1151  009A                     	;# 
  1152  009B                     	;# 
  1153  009B                     	;# 
  1154  009C                     	;# 
  1155  009D                     	;# 
  1156  009E                     	;# 
  1157  010C                     	;# 
  1158  010D                     	;# 
  1159  010E                     	;# 
  1160  0111                     	;# 
  1161  0112                     	;# 
  1162  0113                     	;# 
  1163  0114                     	;# 
  1164  0115                     	;# 
  1165  0116                     	;# 
  1166  0117                     	;# 
  1167  0118                     	;# 
  1168  0119                     	;# 
  1169  011A                     	;# 
  1170  011B                     	;# 
  1171  011D                     	;# 
  1172  011E                     	;# 
  1173  018C                     	;# 
  1174  018D                     	;# 
  1175  018E                     	;# 
  1176  0191                     	;# 
  1177  0191                     	;# 
  1178  0192                     	;# 
  1179  0193                     	;# 
  1180  0193                     	;# 
  1181  0193                     	;# 
  1182  0194                     	;# 
  1183  0195                     	;# 
  1184  0196                     	;# 
  1185  0199                     	;# 
  1186  019A                     	;# 
  1187  019B                     	;# 
  1188  019B                     	;# 
  1189  019B                     	;# 
  1190  019B                     	;# 
  1191  019C                     	;# 
  1192  019C                     	;# 
  1193  019D                     	;# 
  1194  019E                     	;# 
  1195  019F                     	;# 
  1196  020C                     	;# 
  1197  020D                     	;# 
  1198  020E                     	;# 
  1199  0211                     	;# 
  1200  0211                     	;# 
  1201  0212                     	;# 
  1202  0212                     	;# 
  1203  0213                     	;# 
  1204  0213                     	;# 
  1205  0214                     	;# 
  1206  0214                     	;# 
  1207  0215                     	;# 
  1208  0215                     	;# 
  1209  0215                     	;# 
  1210  0216                     	;# 
  1211  0216                     	;# 
  1212  0217                     	;# 
  1213  0217                     	;# 
  1214  0219                     	;# 
  1215  021A                     	;# 
  1216  021B                     	;# 
  1217  021C                     	;# 
  1218  021D                     	;# 
  1219  021E                     	;# 
  1220  021F                     	;# 
  1221  0291                     	;# 
  1222  0291                     	;# 
  1223  0292                     	;# 
  1224  0293                     	;# 
  1225  0294                     	;# 
  1226  0295                     	;# 
  1227  0295                     	;# 
  1228  0296                     	;# 
  1229  0298                     	;# 
  1230  0298                     	;# 
  1231  0299                     	;# 
  1232  029A                     	;# 
  1233  029B                     	;# 
  1234  029C                     	;# 
  1235  029D                     	;# 
  1236  029E                     	;# 
  1237  0311                     	;# 
  1238  0311                     	;# 
  1239  0312                     	;# 
  1240  0313                     	;# 
  1241  0318                     	;# 
  1242  0318                     	;# 
  1243  0319                     	;# 
  1244  031A                     	;# 
  1245  038C                     	;# 
  1246  038D                     	;# 
  1247  038E                     	;# 
  1248  0391                     	;# 
  1249  0392                     	;# 
  1250  0393                     	;# 
  1251  0394                     	;# 
  1252  0395                     	;# 
  1253  0396                     	;# 
  1254  039A                     	;# 
  1255  039C                     	;# 
  1256  039D                     	;# 
  1257  039E                     	;# 
  1258  039F                     	;# 
  1259  0415                     	;# 
  1260  0416                     	;# 
  1261  0417                     	;# 
  1262  041C                     	;# 
  1263  041D                     	;# 
  1264  041E                     	;# 
  1265  0FE4                     	;# 
  1266  0FE5                     	;# 
  1267  0FE6                     	;# 
  1268  0FE7                     	;# 
  1269  0FE8                     	;# 
  1270  0FE9                     	;# 
  1271  0FEA                     	;# 
  1272  0FEB                     	;# 
  1273  0FED                     	;# 
  1274  0FEE                     	;# 
  1275  0FEF                     	;# 
  1276                           
  1277                           	psect	stringtext1
  1278  0740                     __pstringtext1:
  1279  0740                     _C7SEG_CHAR_TABLE:
  1280  0740  3480               	retlw	128
  1281  0741  3401               	retlw	1
  1282  0742  3400               	retlw	0
  1283  0743  347E               	retlw	126
  1284  0744  340A               	retlw	10
  1285  0745  34B6               	retlw	182
  1286  0746  349E               	retlw	158
  1287  0747  34CA               	retlw	202
  1288  0748  34DC               	retlw	220
  1289  0749  34FC               	retlw	252
  1290  074A  340E               	retlw	14
  1291  074B  34FE               	retlw	254
  1292  074C  34DE               	retlw	222
  1293  074D  3400               	retlw	0
  1294  074E  3400               	retlw	0
  1295  074F  3400               	retlw	0
  1296  0750  3400               	retlw	0
  1297  0751  3400               	retlw	0
  1298  0752  3400               	retlw	0
  1299  0753  3400               	retlw	0
  1300  0754  34EE               	retlw	238
  1301  0755  34F8               	retlw	248
  1302  0756  3474               	retlw	116
  1303  0757  34BA               	retlw	186
  1304  0758  34F4               	retlw	244
  1305  0759  34E4               	retlw	228
  1306  075A  347C               	retlw	124
  1307  075B  34EA               	retlw	234
  1308  075C  340A               	retlw	10
  1309  075D  343A               	retlw	58
  1310  075E  34E0               	retlw	224
  1311  075F  3470               	retlw	112
  1312  0760  342C               	retlw	44
  1313  0761  34A8               	retlw	168
  1314  0762  347E               	retlw	126
  1315  0763  34E6               	retlw	230
  1316  0764  34CE               	retlw	206
  1317  0765  3464               	retlw	100
  1318  0766  34DC               	retlw	220
  1319  0767  34F0               	retlw	240
  1320  0768  347A               	retlw	122
  1321  0769  347B               	retlw	123
  1322  076A  34FB               	retlw	251
  1323  076B  34EA               	retlw	234
  1324  076C  34DA               	retlw	218
  1325  076D  34B6               	retlw	182
  1326  076E  3400               	retlw	0
  1327  076F  3400               	retlw	0
  1328  0770  3400               	retlw	0
  1329  0771  3400               	retlw	0
  1330  0772  3410               	retlw	16
  1331  0773                     __end_of_C7SEG_CHAR_TABLE:
  1332                           
  1333                           	psect	bitnvBANK0
  1334  0338                     __pbitnvBANK0:
  1335  0338                     main@pwm_direction:
  1336  0338                     	ds	1
  1337  0011                     _PIR1bits	set	17
  1338  001C                     _T2CONbits	set	28
  1339  001B                     _PR2	set	27
  1340  000C                     _PORTAbits	set	12
  1341  0014                     _PIR4	set	20
  1342  0013                     _PIR3	set	19
  1343  0012                     _PIR2	set	18
  1344  0011                     _PIR1	set	17
  1345  000B                     _INTCONbits	set	11
  1346  008C                     _TXIF	set	140
  1347  0059                     _INTF	set	89
  1348  005C                     _INTE	set	92
  1349  0097                     _WDTCONbits	set	151
  1350  009B                     _ADRESL	set	155
  1351  009C                     _ADRESH	set	156
  1352  009D                     _ADCON0bits	set	157
  1353  009E                     _ADCON1bits	set	158
  1354  0091                     _PIE1bits	set	145
  1355  0095                     _OPTION_REGbits	set	149
  1356  008D                     _TRISBbits	set	141
  1357  008C                     _TRISAbits	set	140
  1358  008E                     _TRISCbits	set	142
  1359  0099                     _OSCCONbits	set	153
  1360  011D                     _APFCON0bits	set	285
  1361  0117                     _FVRCONbits	set	279
  1362  011A                     _SRCON0bits	set	282
  1363  0113                     _CM2CON0bits	set	275
  1364  0111                     _CM1CON0bits	set	273
  1365  0117                     _FVRCON	set	279
  1366  010E                     _LATCbits	set	270
  1367  010C                     _LATAbits	set	268
  1368  019A                     _TXREG	set	410
  1369  019B                     _SPBRG	set	411
  1370  019E                     _TXSTAbits	set	414
  1371  019D                     _RCSTAbits	set	413
  1372  018D                     _ANSELBbits	set	397
  1373  018C                     _ANSELAbits	set	396
  1374  018E                     _ANSELC	set	398
  1375  018C                     _ANSELA	set	396
  1376  0CF5                     _TXEN	set	3317
  1377  0CF4                     _SYNC	set	3316
  1378  0CFC                     _SCKP	set	3324
  1379  0CEF                     _SPEN	set	3311
  1380  0CFB                     _BRG16	set	3323
  1381  0CF2                     _BRGH	set	3314
  1382  0211                     _SSP1BUF	set	529
  1383  0215                     _SSP1CON1	set	533
  1384  0214                     _SSP1STATbits	set	532
  1385  0215                     _SSP1CON1bits	set	533
  1386  020C                     _WPUAbits	set	524
  1387  0294                     _PWM1CONbits	set	660
  1388  0291                     _CCPR1L	set	657
  1389  0293                     _CCP1CONbits	set	659
  1390  0296                     _PSTR1CONbits	set	662
  1391  039E                     _MDCARLbits	set	926
  1392  0396                     _IOCBF	set	918
  1393  0393                     _IOCAF	set	915
  1394  039D                     _MDSRCbits	set	925
  1395  039C                     _MDCONbits	set	924
  1396  039F                     _MDCARHbits	set	927
  1397  038C                     _INLVLAbits	set	908
  1398                           
  1399                           	psect	stringtext2
  1400  070C                     __pstringtext2:
  1401  070C                     STR_7:
  1402  070C  346E               	retlw	110	;'n'
  1403  070D  3465               	retlw	101	;'e'
  1404  070E  3477               	retlw	119	;'w'
  1405  070F  3420               	retlw	32	;' '
  1406  0710  3464               	retlw	100	;'d'
  1407  0711  346F               	retlw	111	;'o'
  1408  0712  346F               	retlw	111	;'o'
  1409  0713  3472               	retlw	114	;'r'
  1410  0714  3420               	retlw	32	;' '
  1411  0715  3473               	retlw	115	;'s'
  1412  0716  3474               	retlw	116	;'t'
  1413  0717  3461               	retlw	97	;'a'
  1414  0718  3474               	retlw	116	;'t'
  1415  0719  3465               	retlw	101	;'e'
  1416  071A  3420               	retlw	32	;' '
  1417  071B  3464               	retlw	100	;'d'
  1418  071C  3465               	retlw	101	;'e'
  1419  071D  3474               	retlw	116	;'t'
  1420  071E  3465               	retlw	101	;'e'
  1421  071F  3463               	retlw	99	;'c'
  1422  0720  3474               	retlw	116	;'t'
  1423  0721  3465               	retlw	101	;'e'
  1424  0722  3464               	retlw	100	;'d'
  1425  0723  342E               	retlw	46	;'.'
  1426  0724  3420               	retlw	32	;' '
  1427  0725  3447               	retlw	71	;'G'
  1428  0726  346F               	retlw	111	;'o'
  1429  0727  3469               	retlw	105	;'i'
  1430  0728  346E               	retlw	110	;'n'
  1431  0729  3467               	retlw	103	;'g'
  1432  072A  3420               	retlw	32	;' '
  1433  072B  3474               	retlw	116	;'t'
  1434  072C  346F               	retlw	111	;'o'
  1435  072D  3420               	retlw	32	;' '
  1436  072E  3477               	retlw	119	;'w'
  1437  072F  3461               	retlw	97	;'a'
  1438  0730  3469               	retlw	105	;'i'
  1439  0731  3474               	retlw	116	;'t'
  1440  0732  3420               	retlw	32	;' '
  1441  0733  3466               	retlw	102	;'f'
  1442  0734  346F               	retlw	111	;'o'
  1443  0735  3472               	retlw	114	;'r'
  1444  0736  3420               	retlw	32	;' '
  1445  0737  3470               	retlw	112	;'p'
  1446  0738  3472               	retlw	114	;'r'
  1447  0739  3465               	retlw	101	;'e'
  1448  073A  346C               	retlw	108	;'l'
  1449  073B  342E               	retlw	46	;'.'
  1450  073C  342E               	retlw	46	;'.'
  1451  073D  340D               	retlw	13
  1452  073E  340A               	retlw	10
  1453  073F  3400               	retlw	0
  1454                           
  1455                           	psect	stringtext3
  1456  0773                     __pstringtext3:
  1457  0773                     STR_1:
  1458  0773  3457               	retlw	87	;'W'
  1459  0774  3465               	retlw	101	;'e'
  1460  0775  346C               	retlw	108	;'l'
  1461  0776  3463               	retlw	99	;'c'
  1462  0777  346F               	retlw	111	;'o'
  1463  0778  346D               	retlw	109	;'m'
  1464  0779  3465               	retlw	101	;'e'
  1465  077A  3420               	retlw	32	;' '
  1466  077B  3474               	retlw	116	;'t'
  1467  077C  346F               	retlw	111	;'o'
  1468  077D  3420               	retlw	32	;' '
  1469  077E  344B               	retlw	75	;'K'
  1470  077F  344F               	retlw	79	;'O'
  1471  0780  3443               	retlw	67	;'C'
  1472  0781  3448               	retlw	72	;'H'
  1473  0782  3420               	retlw	32	;' '
  1474  0783  3445               	retlw	69	;'E'
  1475  0784  346E               	retlw	110	;'n'
  1476  0785  3467               	retlw	103	;'g'
  1477  0786  3469               	retlw	105	;'i'
  1478  0787  346E               	retlw	110	;'n'
  1479  0788  3465               	retlw	101	;'e'
  1480  0789  3465               	retlw	101	;'e'
  1481  078A  3472               	retlw	114	;'r'
  1482  078B  3469               	retlw	105	;'i'
  1483  078C  346E               	retlw	110	;'n'
  1484  078D  3467               	retlw	103	;'g'
  1485  078E  3420               	retlw	32	;' '
  1486  078F  3447               	retlw	71	;'G'
  1487  0790  3461               	retlw	97	;'a'
  1488  0791  3472               	retlw	114	;'r'
  1489  0792  3464               	retlw	100	;'d'
  1490  0793  3465               	retlw	101	;'e'
  1491  0794  346E               	retlw	110	;'n'
  1492  0795  3447               	retlw	71	;'G'
  1493  0796  3461               	retlw	97	;'a'
  1494  0797  3474               	retlw	116	;'t'
  1495  0798  3465               	retlw	101	;'e'
  1496  0799  340D               	retlw	13
  1497  079A  340A               	retlw	10
  1498  079B  3400               	retlw	0
  1499                           
  1500                           	psect	stringtext4
  1501  07C4                     __pstringtext4:
  1502  07C4                     STR_14:
  1503  07C4  342E               	retlw	46	;'.'
  1504  07C5  342E               	retlw	46	;'.'
  1505  07C6  342E               	retlw	46	;'.'
  1506  07C7  346E               	retlw	110	;'n'
  1507  07C8  346F               	retlw	111	;'o'
  1508  07C9  3477               	retlw	119	;'w'
  1509  07CA  3420               	retlw	32	;' '
  1510  07CB  3461               	retlw	97	;'a'
  1511  07CC  3477               	retlw	119	;'w'
  1512  07CD  3461               	retlw	97	;'a'
  1513  07CE  346B               	retlw	107	;'k'
  1514  07CF  3465               	retlw	101	;'e'
  1515  07D0  3420               	retlw	32	;' '
  1516  07D1  3464               	retlw	100	;'d'
  1517  07D2  3475               	retlw	117	;'u'
  1518  07D3  3465               	retlw	101	;'e'
  1519  07D4  3420               	retlw	32	;' '
  1520  07D5  3474               	retlw	116	;'t'
  1521  07D6  346F               	retlw	111	;'o'
  1522  07D7  3420               	retlw	32	;' '
  1523  07D8  3477               	retlw	119	;'w'
  1524  07D9  3461               	retlw	97	;'a'
  1525  07DA  3474               	retlw	116	;'t'
  1526  07DB  3463               	retlw	99	;'c'
  1527  07DC  3468               	retlw	104	;'h'
  1528  07DD  3464               	retlw	100	;'d'
  1529  07DE  346F               	retlw	111	;'o'
  1530  07DF  3467               	retlw	103	;'g'
  1531  07E0  3420               	retlw	32	;' '
  1532  07E1  3474               	retlw	116	;'t'
  1533  07E2  3469               	retlw	105	;'i'
  1534  07E3  346D               	retlw	109	;'m'
  1535  07E4  3465               	retlw	101	;'e'
  1536  07E5  3472               	retlw	114	;'r'
  1537  07E6  340D               	retlw	13
  1538  07E7  340A               	retlw	10
  1539  07E8  3400               	retlw	0
  1540                           
  1541                           	psect	stringtext5
  1542  07E9                     __pstringtext5:
  1543  07E9                     STR_2:
  1544  07E9  344D               	retlw	77	;'M'
  1545  07EA  3469               	retlw	105	;'i'
  1546  07EB  3463               	retlw	99	;'c'
  1547  07EC  3472               	retlw	114	;'r'
  1548  07ED  346F               	retlw	111	;'o'
  1549  07EE  3463               	retlw	99	;'c'
  1550  07EF  3468               	retlw	104	;'h'
  1551  07F0  3469               	retlw	105	;'i'
  1552  07F1  3470               	retlw	112	;'p'
  1553  07F2  3420               	retlw	32	;' '
  1554  07F3  3431               	retlw	49	;'1'
  1555  07F4  3436               	retlw	54	;'6'
  1556  07F5  344C               	retlw	76	;'L'
  1557  07F6  3446               	retlw	70	;'F'
  1558  07F7  3431               	retlw	49	;'1'
  1559  07F8  3438               	retlw	56	;'8'
  1560  07F9  3432               	retlw	50	;'2'
  1561  07FA  3439               	retlw	57	;'9'
  1562  07FB  3420               	retlw	32	;' '
  1563  07FC  3473               	retlw	115	;'s'
  1564  07FD  3474               	retlw	116	;'t'
  1565  07FE  3461               	retlw	97	;'a'
  1566  07FF  3472               	retlw	114	;'r'
  1567  0800  3474               	retlw	116	;'t'
  1568  0801  3469               	retlw	105	;'i'
  1569  0802  346E               	retlw	110	;'n'
  1570  0803  3467               	retlw	103	;'g'
  1571  0804  3420               	retlw	32	;' '
  1572  0805  3475               	retlw	117	;'u'
  1573  0806  3470               	retlw	112	;'p'
  1574  0807  342E               	retlw	46	;'.'
  1575  0808  342E               	retlw	46	;'.'
  1576  0809  342E               	retlw	46	;'.'
  1577  080A  340D               	retlw	13
  1578  080B  340A               	retlw	10
  1579  080C  3400               	retlw	0
  1580                           
  1581                           	psect	stringtext6
  1582  1000                     __pstringtext6:
  1583  1000                     STR_12:
  1584  1000  3453               	retlw	83	;'S'
  1585  1001  3454               	retlw	84	;'T'
  1586  1002  3441               	retlw	65	;'A'
  1587  1003  3454               	retlw	84	;'T'
  1588  1004  3445               	retlw	69	;'E'
  1589  1005  345F               	retlw	95	;'_'
  1590  1006  3453               	retlw	83	;'S'
  1591  1007  3454               	retlw	84	;'T'
  1592  1008  344F               	retlw	79	;'O'
  1593  1009  3450               	retlw	80	;'P'
  1594  100A  345F               	retlw	95	;'_'
  1595  100B  3453               	retlw	83	;'S'
  1596  100C  3445               	retlw	69	;'E'
  1597  100D  344E               	retlw	78	;'N'
  1598  100E  3444               	retlw	68	;'D'
  1599  100F  3449               	retlw	73	;'I'
  1600  1010  344E               	retlw	78	;'N'
  1601  1011  3447               	retlw	71	;'G'
  1602  1012  345F               	retlw	95	;'_'
  1603  1013  3449               	retlw	73	;'I'
  1604  1014  3448               	retlw	72	;'H'
  1605  1015  3443               	retlw	67	;'C'
  1606  1016  345F               	retlw	95	;'_'
  1607  1017  3450               	retlw	80	;'P'
  1608  1018  3455               	retlw	85	;'U'
  1609  1019  344C               	retlw	76	;'L'
  1610  101A  3453               	retlw	83	;'S'
  1611  101B  3445               	retlw	69	;'E'
  1612  101C  340D               	retlw	13
  1613  101D  340A               	retlw	10
  1614  101E  3400               	retlw	0
  1615                           
  1616                           	psect	stringtext7
  1617  101F                     __pstringtext7:
  1618  101F                     STR_8:
  1619  101F  3453               	retlw	83	;'S'
  1620  1020  3454               	retlw	84	;'T'
  1621  1021  3441               	retlw	65	;'A'
  1622  1022  3454               	retlw	84	;'T'
  1623  1023  3445               	retlw	69	;'E'
  1624  1024  345F               	retlw	95	;'_'
  1625  1025  3444               	retlw	68	;'D'
  1626  1026  344F               	retlw	79	;'O'
  1627  1027  344F               	retlw	79	;'O'
  1628  1028  3452               	retlw	82	;'R'
  1629  1029  345F               	retlw	95	;'_'
  1630  102A  3443               	retlw	67	;'C'
  1631  102B  3448               	retlw	72	;'H'
  1632  102C  3441               	retlw	65	;'A'
  1633  102D  344E               	retlw	78	;'N'
  1634  102E  3447               	retlw	71	;'G'
  1635  102F  3445               	retlw	69	;'E'
  1636  1030  3444               	retlw	68	;'D'
  1637  1031  345F               	retlw	95	;'_'
  1638  1032  3457               	retlw	87	;'W'
  1639  1033  3441               	retlw	65	;'A'
  1640  1034  3449               	retlw	73	;'I'
  1641  1035  3454               	retlw	84	;'T'
  1642  1036  345F               	retlw	95	;'_'
  1643  1037  3450               	retlw	80	;'P'
  1644  1038  3452               	retlw	82	;'R'
  1645  1039  3445               	retlw	69	;'E'
  1646  103A  344C               	retlw	76	;'L'
  1647  103B  340D               	retlw	13
  1648  103C  340A               	retlw	10
  1649  103D  3400               	retlw	0
  1650                           
  1651                           	psect	stringtext8
  1652  103E                     __pstringtext8:
  1653  103E                     STR_6:
  1654  103E  346E               	retlw	110	;'n'
  1655  103F  346F               	retlw	111	;'o'
  1656  1040  3420               	retlw	32	;' '
  1657  1041  346E               	retlw	110	;'n'
  1658  1042  3465               	retlw	101	;'e'
  1659  1043  3477               	retlw	119	;'w'
  1660  1044  3420               	retlw	32	;' '
  1661  1045  3464               	retlw	100	;'d'
  1662  1046  346F               	retlw	111	;'o'
  1663  1047  346F               	retlw	111	;'o'
  1664  1048  3472               	retlw	114	;'r'
  1665  1049  3420               	retlw	32	;' '
  1666  104A  3473               	retlw	115	;'s'
  1667  104B  3474               	retlw	116	;'t'
  1668  104C  3461               	retlw	97	;'a'
  1669  104D  3474               	retlw	116	;'t'
  1670  104E  3465               	retlw	101	;'e'
  1671  104F  3420               	retlw	32	;' '
  1672  1050  3464               	retlw	100	;'d'
  1673  1051  3465               	retlw	101	;'e'
  1674  1052  3474               	retlw	116	;'t'
  1675  1053  3465               	retlw	101	;'e'
  1676  1054  3463               	retlw	99	;'c'
  1677  1055  3474               	retlw	116	;'t'
  1678  1056  3465               	retlw	101	;'e'
  1679  1057  3464               	retlw	100	;'d'
  1680  1058  3421               	retlw	33	;'!'
  1681  1059  340D               	retlw	13
  1682  105A  340A               	retlw	10
  1683  105B  3400               	retlw	0
  1684                           
  1685                           	psect	stringtext9
  1686  105C                     __pstringtext9:
  1687  105C                     STR_9:
  1688  105C  3453               	retlw	83	;'S'
  1689  105D  3454               	retlw	84	;'T'
  1690  105E  3441               	retlw	65	;'A'
  1691  105F  3454               	retlw	84	;'T'
  1692  1060  3445               	retlw	69	;'E'
  1693  1061  345F               	retlw	95	;'_'
  1694  1062  3444               	retlw	68	;'D'
  1695  1063  344F               	retlw	79	;'O'
  1696  1064  344F               	retlw	79	;'O'
  1697  1065  3452               	retlw	82	;'R'
  1698  1066  345F               	retlw	95	;'_'
  1699  1067  3443               	retlw	67	;'C'
  1700  1068  3448               	retlw	72	;'H'
  1701  1069  3445               	retlw	69	;'E'
  1702  106A  3443               	retlw	67	;'C'
  1703  106B  344B               	retlw	75	;'K'
  1704  106C  345F               	retlw	95	;'_'
  1705  106D  3441               	retlw	65	;'A'
  1706  106E  3446               	retlw	70	;'F'
  1707  106F  3454               	retlw	84	;'T'
  1708  1070  3445               	retlw	69	;'E'
  1709  1071  3452               	retlw	82	;'R'
  1710  1072  345F               	retlw	95	;'_'
  1711  1073  3450               	retlw	80	;'P'
  1712  1074  3452               	retlw	82	;'R'
  1713  1075  3445               	retlw	69	;'E'
  1714  1076  344C               	retlw	76	;'L'
  1715  1077  340D               	retlw	13
  1716  1078  340A               	retlw	10
  1717  1079  3400               	retlw	0
  1718                           
  1719                           	psect	stringtext10
  1720  107A                     __pstringtext10:
  1721  107A                     STR_22:
  1722  107A  3473               	retlw	115	;'s'
  1723  107B  3465               	retlw	101	;'e'
  1724  107C  3474               	retlw	116	;'t'
  1725  107D  345F               	retlw	95	;'_'
  1726  107E  3477               	retlw	119	;'w'
  1727  107F  3461               	retlw	97	;'a'
  1728  1080  3474               	retlw	116	;'t'
  1729  1081  3463               	retlw	99	;'c'
  1730  1082  3468               	retlw	104	;'h'
  1731  1083  3464               	retlw	100	;'d'
  1732  1084  346F               	retlw	111	;'o'
  1733  1085  3467               	retlw	103	;'g'
  1734  1086  345F               	retlw	95	;'_'
  1735  1087  3474               	retlw	116	;'t'
  1736  1088  3469               	retlw	105	;'i'
  1737  1089  346D               	retlw	109	;'m'
  1738  108A  3465               	retlw	101	;'e'
  1739  108B  3472               	retlw	114	;'r'
  1740  108C  345F               	retlw	95	;'_'
  1741  108D  3432               	retlw	50	;'2'
  1742  108E  3435               	retlw	53	;'5'
  1743  108F  3436               	retlw	54	;'6'
  1744  1090  3473               	retlw	115	;'s'
  1745  1091  340D               	retlw	13
  1746  1092  340A               	retlw	10
  1747  1093  3400               	retlw	0
  1748                           
  1749                           	psect	stringtext11
  1750  1094                     __pstringtext11:
  1751  1094                     STR_20:
  1752  1094  3473               	retlw	115	;'s'
  1753  1095  3465               	retlw	101	;'e'
  1754  1096  3474               	retlw	116	;'t'
  1755  1097  345F               	retlw	95	;'_'
  1756  1098  3477               	retlw	119	;'w'
  1757  1099  3461               	retlw	97	;'a'
  1758  109A  3474               	retlw	116	;'t'
  1759  109B  3463               	retlw	99	;'c'
  1760  109C  3468               	retlw	104	;'h'
  1761  109D  3464               	retlw	100	;'d'
  1762  109E  346F               	retlw	111	;'o'
  1763  109F  3467               	retlw	103	;'g'
  1764  10A0  345F               	retlw	95	;'_'
  1765  10A1  3474               	retlw	116	;'t'
  1766  10A2  3469               	retlw	105	;'i'
  1767  10A3  346D               	retlw	109	;'m'
  1768  10A4  3465               	retlw	101	;'e'
  1769  10A5  3472               	retlw	114	;'r'
  1770  10A6  345F               	retlw	95	;'_'
  1771  10A7  3431               	retlw	49	;'1'
  1772  10A8  3473               	retlw	115	;'s'
  1773  10A9  340D               	retlw	13
  1774  10AA  340A               	retlw	10
  1775  10AB  3400               	retlw	0
  1776                           
  1777                           	psect	stringtext12
  1778  10AC                     __pstringtext12:
  1779  10AC                     STR_21:
  1780  10AC  3473               	retlw	115	;'s'
  1781  10AD  3465               	retlw	101	;'e'
  1782  10AE  3474               	retlw	116	;'t'
  1783  10AF  345F               	retlw	95	;'_'
  1784  10B0  3477               	retlw	119	;'w'
  1785  10B1  3461               	retlw	97	;'a'
  1786  10B2  3474               	retlw	116	;'t'
  1787  10B3  3463               	retlw	99	;'c'
  1788  10B4  3468               	retlw	104	;'h'
  1789  10B5  3464               	retlw	100	;'d'
  1790  10B6  346F               	retlw	111	;'o'
  1791  10B7  3467               	retlw	103	;'g'
  1792  10B8  345F               	retlw	95	;'_'
  1793  10B9  3474               	retlw	116	;'t'
  1794  10BA  3469               	retlw	105	;'i'
  1795  10BB  346D               	retlw	109	;'m'
  1796  10BC  3465               	retlw	101	;'e'
  1797  10BD  3472               	retlw	114	;'r'
  1798  10BE  345F               	retlw	95	;'_'
  1799  10BF  3434               	retlw	52	;'4'
  1800  10C0  3473               	retlw	115	;'s'
  1801  10C1  340D               	retlw	13
  1802  10C2  340A               	retlw	10
  1803  10C3  3400               	retlw	0
  1804                           
  1805                           	psect	stringtext13
  1806  10C4                     __pstringtext13:
  1807  10C4                     STR_17:
  1808  10C4  3453               	retlw	83	;'S'
  1809  10C5  3454               	retlw	84	;'T'
  1810  10C6  3441               	retlw	65	;'A'
  1811  10C7  3454               	retlw	84	;'T'
  1812  10C8  3445               	retlw	69	;'E'
  1813  10C9  345F               	retlw	95	;'_'
  1814  10CA  344D               	retlw	77	;'M'
  1815  10CB  3445               	retlw	69	;'E'
  1816  10CC  3441               	retlw	65	;'A'
  1817  10CD  3453               	retlw	83	;'S'
  1818  10CE  3455               	retlw	85	;'U'
  1819  10CF  3452               	retlw	82	;'R'
  1820  10D0  3445               	retlw	69	;'E'
  1821  10D1  345F               	retlw	95	;'_'
  1822  10D2  3442               	retlw	66	;'B'
  1823  10D3  3441               	retlw	65	;'A'
  1824  10D4  3454               	retlw	84	;'T'
  1825  10D5  3454               	retlw	84	;'T'
  1826  10D6  3445               	retlw	69	;'E'
  1827  10D7  3452               	retlw	82	;'R'
  1828  10D8  3459               	retlw	89	;'Y'
  1829  10D9  340D               	retlw	13
  1830  10DA  340A               	retlw	10
  1831  10DB  3400               	retlw	0
  1832                           
  1833                           	psect	stringtext14
  1834  10DC                     __pstringtext14:
  1835  10DC                     STR_13:
  1836  10DC  3467               	retlw	103	;'g'
  1837  10DD  346F               	retlw	111	;'o'
  1838  10DE  3420               	retlw	32	;' '
  1839  10DF  3473               	retlw	115	;'s'
  1840  10E0  346C               	retlw	108	;'l'
  1841  10E1  3465               	retlw	101	;'e'
  1842  10E2  3465               	retlw	101	;'e'
  1843  10E3  3470               	retlw	112	;'p'
  1844  10E4  342E               	retlw	46	;'.'
  1845  10E5  342E               	retlw	46	;'.'
  1846  10E6  342E               	retlw	46	;'.'
  1847  10E7  3473               	retlw	115	;'s'
  1848  10E8  346C               	retlw	108	;'l'
  1849  10E9  3465               	retlw	101	;'e'
  1850  10EA  3465               	retlw	101	;'e'
  1851  10EB  3470               	retlw	112	;'p'
  1852  10EC  3469               	retlw	105	;'i'
  1853  10ED  346E               	retlw	110	;'n'
  1854  10EE  3467               	retlw	103	;'g'
  1855  10EF  340D               	retlw	13
  1856  10F0  340A               	retlw	10
  1857  10F1  340A               	retlw	10
  1858  10F2  3400               	retlw	0
  1859                           
  1860                           	psect	stringtext15
  1861  10F3                     __pstringtext15:
  1862  10F3                     STR_4:
  1863  10F3  3453               	retlw	83	;'S'
  1864  10F4  3454               	retlw	84	;'T'
  1865  10F5  3441               	retlw	65	;'A'
  1866  10F6  3454               	retlw	84	;'T'
  1867  10F7  3445               	retlw	69	;'E'
  1868  10F8  345F               	retlw	95	;'_'
  1869  10F9  344E               	retlw	78	;'N'
  1870  10FA  3445               	retlw	69	;'E'
  1871  10FB  3457               	retlw	87	;'W'
  1872  10FC  345F               	retlw	95	;'_'
  1873  10FD  3444               	retlw	68	;'D'
  1874  10FE  344F               	retlw	79	;'O'
  1875  10FF  344F               	retlw	79	;'O'
  1876  1100  3452               	retlw	82	;'R'
  1877  1101  345F               	retlw	95	;'_'
  1878  1102  3453               	retlw	83	;'S'
  1879  1103  3454               	retlw	84	;'T'
  1880  1104  3441               	retlw	65	;'A'
  1881  1105  3454               	retlw	84	;'T'
  1882  1106  3445               	retlw	69	;'E'
  1883  1107  340D               	retlw	13
  1884  1108  340A               	retlw	10
  1885  1109  3400               	retlw	0
  1886                           
  1887                           	psect	stringtext16
  1888  110A                     __pstringtext16:
  1889  110A                     STR_16:
  1890  110A  3453               	retlw	83	;'S'
  1891  110B  3454               	retlw	84	;'T'
  1892  110C  3441               	retlw	65	;'A'
  1893  110D  3454               	retlw	84	;'T'
  1894  110E  3445               	retlw	69	;'E'
  1895  110F  345F               	retlw	95	;'_'
  1896  1110  3444               	retlw	68	;'D'
  1897  1111  344F               	retlw	79	;'O'
  1898  1112  344F               	retlw	79	;'O'
  1899  1113  3452               	retlw	82	;'R'
  1900  1114  345F               	retlw	95	;'_'
  1901  1115  3443               	retlw	67	;'C'
  1902  1116  3448               	retlw	72	;'H'
  1903  1117  3441               	retlw	65	;'A'
  1904  1118  344E               	retlw	78	;'N'
  1905  1119  3447               	retlw	71	;'G'
  1906  111A  3445               	retlw	69	;'E'
  1907  111B  3444               	retlw	68	;'D'
  1908  111C  340D               	retlw	13
  1909  111D  340A               	retlw	10
  1910  111E  3400               	retlw	0
  1911                           
  1912                           	psect	stringtext17
  1913  111F                     __pstringtext17:
  1914  111F                     STR_3:
  1915  111F  3453               	retlw	83	;'S'
  1916  1120  3454               	retlw	84	;'T'
  1917  1121  3441               	retlw	65	;'A'
  1918  1122  3454               	retlw	84	;'T'
  1919  1123  3445               	retlw	69	;'E'
  1920  1124  345F               	retlw	95	;'_'
  1921  1125  344A               	retlw	74	;'J'
  1922  1126  3455               	retlw	85	;'U'
  1923  1127  3453               	retlw	83	;'S'
  1924  1128  3454               	retlw	84	;'T'
  1925  1129  345F               	retlw	95	;'_'
  1926  112A  3441               	retlw	65	;'A'
  1927  112B  3457               	retlw	87	;'W'
  1928  112C  3441               	retlw	65	;'A'
  1929  112D  344B               	retlw	75	;'K'
  1930  112E  3445               	retlw	69	;'E'
  1931  112F  3444               	retlw	68	;'D'
  1932  1130  340D               	retlw	13
  1933  1131  340A               	retlw	10
  1934  1132  3400               	retlw	0
  1935                           
  1936                           	psect	stringtext18
  1937  1133                     __pstringtext18:
  1938  1133                     STR_11:
  1939  1133  3453               	retlw	83	;'S'
  1940  1134  3454               	retlw	84	;'T'
  1941  1135  3441               	retlw	65	;'A'
  1942  1136  3454               	retlw	84	;'T'
  1943  1137  3445               	retlw	69	;'E'
  1944  1138  345F               	retlw	95	;'_'
  1945  1139  3444               	retlw	68	;'D'
  1946  113A  344F               	retlw	79	;'O'
  1947  113B  344F               	retlw	79	;'O'
  1948  113C  3452               	retlw	82	;'R'
  1949  113D  345F               	retlw	95	;'_'
  1950  113E  3443               	retlw	67	;'C'
  1951  113F  344C               	retlw	76	;'L'
  1952  1140  344F               	retlw	79	;'O'
  1953  1141  3453               	retlw	83	;'S'
  1954  1142  3445               	retlw	69	;'E'
  1955  1143  3444               	retlw	68	;'D'
  1956  1144  340D               	retlw	13
  1957  1145  340A               	retlw	10
  1958  1146  3400               	retlw	0
  1959                           
  1960                           	psect	stringtext19
  1961  1147                     __pstringtext19:
  1962  1147                     STR_5:
  1963  1147  3453               	retlw	83	;'S'
  1964  1148  3454               	retlw	84	;'T'
  1965  1149  3441               	retlw	65	;'A'
  1966  114A  3454               	retlw	84	;'T'
  1967  114B  3445               	retlw	69	;'E'
  1968  114C  345F               	retlw	95	;'_'
  1969  114D  3443               	retlw	67	;'C'
  1970  114E  3448               	retlw	72	;'H'
  1971  114F  3445               	retlw	69	;'E'
  1972  1150  3443               	retlw	67	;'C'
  1973  1151  344B               	retlw	75	;'K'
  1974  1152  345F               	retlw	95	;'_'
  1975  1153  3444               	retlw	68	;'D'
  1976  1154  344F               	retlw	79	;'O'
  1977  1155  344F               	retlw	79	;'O'
  1978  1156  3452               	retlw	82	;'R'
  1979  1157  343A               	retlw	58	;':'
  1980  1158  3420               	retlw	32	;' '
  1981  1159  3400               	retlw	0
  1982                           
  1983                           	psect	stringtext20
  1984  115A                     __pstringtext20:
  1985  115A                     STR_10:
  1986  115A  3453               	retlw	83	;'S'
  1987  115B  3454               	retlw	84	;'T'
  1988  115C  3441               	retlw	65	;'A'
  1989  115D  3454               	retlw	84	;'T'
  1990  115E  3445               	retlw	69	;'E'
  1991  115F  345F               	retlw	95	;'_'
  1992  1160  3444               	retlw	68	;'D'
  1993  1161  344F               	retlw	79	;'O'
  1994  1162  344F               	retlw	79	;'O'
  1995  1163  3452               	retlw	82	;'R'
  1996  1164  345F               	retlw	95	;'_'
  1997  1165  344F               	retlw	79	;'O'
  1998  1166  3450               	retlw	80	;'P'
  1999  1167  3445               	retlw	69	;'E'
  2000  1168  344E               	retlw	78	;'N'
  2001  1169  340D               	retlw	13
  2002  116A  340A               	retlw	10
  2003  116B  3400               	retlw	0
  2004                           
  2005                           	psect	stringtext21
  2006  116C                     __pstringtext21:
  2007  116C                     STR_15:
  2008  116C  346D               	retlw	109	;'m'
  2009  116D  3465               	retlw	101	;'e'
  2010  116E  3461               	retlw	97	;'a'
  2011  116F  3473               	retlw	115	;'s'
  2012  1170  3475               	retlw	117	;'u'
  2013  1171  3472               	retlw	114	;'r'
  2014  1172  3465               	retlw	101	;'e'
  2015  1173  3420               	retlw	32	;' '
  2016  1174  3462               	retlw	98	;'b'
  2017  1175  3461               	retlw	97	;'a'
  2018  1176  3474               	retlw	116	;'t'
  2019  1177  3474               	retlw	116	;'t'
  2020  1178  3465               	retlw	101	;'e'
  2021  1179  3472               	retlw	114	;'r'
  2022  117A  3479               	retlw	121	;'y'
  2023  117B  340D               	retlw	13
  2024  117C  340A               	retlw	10
  2025  117D  3400               	retlw	0
  2026                           
  2027                           	psect	stringtext22
  2028  117E                     __pstringtext22:
  2029  117E                     STR_18:
  2030  117E  3453               	retlw	83	;'S'
  2031  117F  3454               	retlw	84	;'T'
  2032  1180  3441               	retlw	65	;'A'
  2033  1181  3454               	retlw	84	;'T'
  2034  1182  3445               	retlw	69	;'E'
  2035  1183  345F               	retlw	95	;'_'
  2036  1184  3453               	retlw	83	;'S'
  2037  1185  344C               	retlw	76	;'L'
  2038  1186  3445               	retlw	69	;'E'
  2039  1187  3445               	retlw	69	;'E'
  2040  1188  3450               	retlw	80	;'P'
  2041  1189  3449               	retlw	73	;'I'
  2042  118A  344E               	retlw	78	;'N'
  2043  118B  3447               	retlw	71	;'G'
  2044  118C  340D               	retlw	13
  2045  118D  340A               	retlw	10
  2046  118E  3400               	retlw	0
  2047                           
  2048                           	psect	stringtext23
  2049  118F                     __pstringtext23:
  2050  118F                     STR_19:
  2051  118F  3453               	retlw	83	;'S'
  2052  1190  3454               	retlw	84	;'T'
  2053  1191  3441               	retlw	65	;'A'
  2054  1192  3454               	retlw	84	;'T'
  2055  1193  3445               	retlw	69	;'E'
  2056  1194  345F               	retlw	95	;'_'
  2057  1195  3464               	retlw	100	;'d'
  2058  1196  3465               	retlw	101	;'e'
  2059  1197  3466               	retlw	102	;'f'
  2060  1198  3461               	retlw	97	;'a'
  2061  1199  3475               	retlw	117	;'u'
  2062  119A  346C               	retlw	108	;'l'
  2063  119B  3474               	retlw	116	;'t'
  2064  119C  340D               	retlw	13
  2065  119D  340A               	retlw	10
  2066  119E  3400               	retlw	0
  2067                           
  2068                           	psect	stringtext24
  2069  0000                     __pstringtext24:
  2070                           
  2071                           	psect	cinit
  2072  0076                     start_initialization:	
  2073                           ; #config settings
  2074                           
  2075  0076                     __initialization:
  2076                           
  2077                           ; Clear objects allocated to BITCOMMON
  2078  0076  01F0               	clrf	(__pbitbssCOMMON/(0+8))& (0+127)
  2079  0077  01F1               	clrf	((__pbitbssCOMMON/(0+8)+1))& (0+127)
  2080  0078  01F2               	clrf	((__pbitbssCOMMON/(0+8)+2))& (0+127)
  2081                           
  2082                           ; Clear objects allocated to COMMON
  2083  0079  01FD               	clrf	__pbssCOMMON& (0+127)
  2084                           
  2085                           ; Clear objects allocated to BITBANK0
  2086  007A  3021               	movlw	low (__pbitbssBANK0/(0+8))
  2087  007B  0084               	movwf	4
  2088  007C  3000               	movlw	high (__pbitbssBANK0/(0+8))
  2089  007D  0085               	movwf	5
  2090  007E  3007               	movlw	7
  2091  007F  318F  2728  3180   	fcall	clear_ram0
  2092                           
  2093                           ; Clear objects allocated to BANK0
  2094  0082  3028               	movlw	low __pbssBANK0
  2095  0083  0084               	movwf	4
  2096  0084  3000               	movlw	high __pbssBANK0
  2097  0085  0085               	movwf	5
  2098  0086  3024               	movlw	36
  2099  0087  318F  2728  3180   	fcall	clear_ram0
  2100                           
  2101                           ; Clear objects allocated to BANK1
  2102  008A  30A0               	movlw	low __pbssBANK1
  2103  008B  0084               	movwf	4
  2104  008C  3000               	movlw	high __pbssBANK1
  2105  008D  0085               	movwf	5
  2106  008E  3020               	movlw	32
  2107  008F  318F  2728  3180   	fcall	clear_ram0
  2108  0092                     end_of_initialization:	
  2109                           ;End of C runtime variable initialization code
  2110                           
  2111  0092                     __end_of__initialization:
  2112  0092  107E               	bcf	int$flags,0	;clear compiler interrupt flag (level 1)
  2113  0093  0020               	movlb	0
  2114  0094  3182  2AAD         	ljmp	_main	;jump to C main() function
  2115                           
  2116                           	psect	bitbssCOMMON
  2117  0380                     __pbitbssCOMMON:
  2118  0380                     __ccovbit2_20:
  2119  0380                     	ds	1
  2120  0381                     __ccovbit19_19:
  2121  0381                     	ds	1
  2122  0382                     __ccovbit3_18:
  2123  0382                     	ds	1
  2124  0383                     __ccovbit14_17:
  2125  0383                     	ds	1
  2126  0384                     __ccovbit10_16:
  2127  0384                     	ds	1
  2128  0385                     __ccovbit6_15:
  2129  0385                     	ds	1
  2130  0386                     __ccovbit2_14:
  2131  0386                     	ds	1
  2132  0387                     __ccovbit110_13:
  2133  0387                     	ds	1
  2134  0388                     __ccovbit107_12:
  2135  0388                     	ds	1
  2136  0389                     __ccovbit105_11:
  2137  0389                     	ds	1
  2138  038A                     __ccovbit102_10:
  2139  038A                     	ds	1
  2140  038B                     __ccovbit96_9:
  2141  038B                     	ds	1
  2142  038C                     __ccovbit92_8:
  2143  038C                     	ds	1
  2144  038D                     __ccovbit79_7:
  2145  038D                     	ds	1
  2146  038E                     __ccovbit1_6:
  2147  038E                     	ds	1
  2148  038F                     __ccovbit1_5:
  2149  038F                     	ds	1
  2150  0390                     __ccovbit9_4:
  2151  0390                     	ds	1
  2152  0391                     __ccovbit7_3:
  2153  0391                     	ds	1
  2154  0392                     __ccovbit4_2:
  2155  0392                     	ds	1
  2156  0393                     __ccovbit2_1:
  2157  0393                     	ds	1
  2158  0394                     main@output_polarity:
  2159  0394                     	ds	1
  2160  0395                     _NewDoorPolarity:
  2161  0395                     	ds	1
  2162  0396                     _NewStateChangeDetected:
  2163  0396                     	ds	1
  2164  0397                     _PWMtoggle:
  2165  0397                     	ds	1
  2166                           
  2167                           	psect	bssCOMMON
  2168  007D                     __pbssCOMMON:
  2169  007D                     _write2display_copy:
  2170  007D                     	ds	1
  2171                           
  2172                           	psect	bitbssBANK0
  2173  0108                     __pbitbssBANK0:
  2174  0108                     __ccovbit1_74:
  2175  0108                     	ds	1
  2176  0109                     __ccovbit1_73:
  2177  0109                     	ds	1
  2178  010A                     __ccovbit2_72:
  2179  010A                     	ds	1
  2180  010B                     __ccovbit2_71:
  2181  010B                     	ds	1
  2182  010C                     __ccovbit2_70:
  2183  010C                     	ds	1
  2184  010D                     __ccovbit1_69:
  2185  010D                     	ds	1
  2186  010E                     __ccovbit1_68:
  2187  010E                     	ds	1
  2188  010F                     __ccovbit5_67:
  2189  010F                     	ds	1
  2190  0110                     __ccovbit8_66:
  2191  0110                     	ds	1
  2192  0111                     __ccovbit10_65:
  2193  0111                     	ds	1
  2194  0112                     __ccovbit7_64:
  2195  0112                     	ds	1
  2196  0113                     __ccovbit108_63:
  2197  0113                     	ds	1
  2198  0114                     __ccovbit103_62:
  2199  0114                     	ds	1
  2200  0115                     __ccovbit101_61:
  2201  0115                     	ds	1
  2202  0116                     __ccovbit99_60:
  2203  0116                     	ds	1
  2204  0117                     __ccovbit97_59:
  2205  0117                     	ds	1
  2206  0118                     __ccovbit93_58:
  2207  0118                     	ds	1
  2208  0119                     __ccovbit91_57:
  2209  0119                     	ds	1
  2210  011A                     __ccovbit90_56:
  2211  011A                     	ds	1
  2212  011B                     __ccovbit82_55:
  2213  011B                     	ds	1
  2214  011C                     __ccovbit69_54:
  2215  011C                     	ds	1
  2216  011D                     __ccovbit68_53:
  2217  011D                     	ds	1
  2218  011E                     __ccovbit64_52:
  2219  011E                     	ds	1
  2220  011F                     __ccovbit58_51:
  2221  011F                     	ds	1
  2222  0120                     __ccovbit56_50:
  2223  0120                     	ds	1
  2224  0121                     __ccovbit52_49:
  2225  0121                     	ds	1
  2226  0122                     __ccovbit48_48:
  2227  0122                     	ds	1
  2228  0123                     __ccovbit39_47:
  2229  0123                     	ds	1
  2230  0124                     __ccovbit37_46:
  2231  0124                     	ds	1
  2232  0125                     __ccovbit30_45:
  2233  0125                     	ds	1
  2234  0126                     __ccovbit28_44:
  2235  0126                     	ds	1
  2236  0127                     __ccovbit26_43:
  2237  0127                     	ds	1
  2238  0128                     __ccovbit22_42:
  2239  0128                     	ds	1
  2240  0129                     __ccovbit16_41:
  2241  0129                     	ds	1
  2242  012A                     __ccovbit11_40:
  2243  012A                     	ds	1
  2244  012B                     __ccovbit5_39:
  2245  012B                     	ds	1
  2246  012C                     __ccovbit4_38:
  2247  012C                     	ds	1
  2248  012D                     __ccovbit22_37:
  2249  012D                     	ds	1
  2250  012E                     __ccovbit19_36:
  2251  012E                     	ds	1
  2252  012F                     __ccovbit17_35:
  2253  012F                     	ds	1
  2254  0130                     __ccovbit15_34:
  2255  0130                     	ds	1
  2256  0131                     __ccovbit13_33:
  2257  0131                     	ds	1
  2258  0132                     __ccovbit11_32:
  2259  0132                     	ds	1
  2260  0133                     __ccovbit7_31:
  2261  0133                     	ds	1
  2262  0134                     __ccovbit3_30:
  2263  0134                     	ds	1
  2264  0135                     __ccovbit1_29:
  2265  0135                     	ds	1
  2266  0136                     __ccovbit1_28:
  2267  0136                     	ds	1
  2268  0137                     __ccovbit1_27:
  2269  0137                     	ds	1
  2270  0138                     __ccovbit24_26:
  2271  0138                     	ds	1
  2272  0139                     __ccovbit22_25:
  2273  0139                     	ds	1
  2274  013A                     __ccovbit18_24:
  2275  013A                     	ds	1
  2276  013B                     __ccovbit14_23:
  2277  013B                     	ds	1
  2278  013C                     __ccovbit10_22:
  2279  013C                     	ds	1
  2280  013D                     __ccovbit6_21:
  2281  013D                     	ds	1
  2282                           
  2283                           	psect	bssBANK0
  2284  0028                     __pbssBANK0:
  2285  0028                     _nout:
  2286  0028                     	ds	2
  2287  002A                     _width:
  2288  002A                     	ds	2
  2289  002C                     _prec:
  2290  002C                     	ds	2
  2291  002E                     _flags:
  2292  002E                     	ds	2
  2293  0030                     _WakeUpCounter:
  2294  0030                     	ds	2
  2295  0032                     _sleep_256s_counter:
  2296  0032                     	ds	2
  2297  0034                     _sleep_4s_counter:
  2298  0034                     	ds	2
  2299  0036                     _sleep_1s_counter:
  2300  0036                     	ds	2
  2301  0038                     _sleep_256ms_counter:
  2302  0038                     	ds	2
  2303  003A                     _sleep_128ms_counter:
  2304  003A                     	ds	2
  2305  003C                     _ihcPulseTimer:
  2306  003C                     	ds	2
  2307  003E                     _prelCounter:
  2308  003E                     	ds	2
  2309  0040                     _millivolts:
  2310  0040                     	ds	2
  2311  0042                     _state_selftest:
  2312  0042                     	ds	1
  2313  0043                     _state_output_pulse:
  2314  0043                     	ds	1
  2315  0044                     main@display_char:
  2316  0044                     	ds	1
  2317  0045                     main@pwm_dc:
  2318  0045                     	ds	1
  2319  0046                     _DoorStateAfterPrel:
  2320  0046                     	ds	1
  2321  0047                     _DoorStateBeforePrel:
  2322  0047                     	ds	1
  2323  0048                     _state_machine:
  2324  0048                     	ds	1
  2325  0049                     _state_door:
  2326  0049                     	ds	1
  2327  004A                     _BatteryVoltage:
  2328  004A                     	ds	2
  2329                           
  2330                           	psect	bssBANK1
  2331  00A0                     __pbssBANK1:
  2332  00A0                     _dbuf:
  2333  00A0                     	ds	32
  2334                           
  2335                           	psect	clrtext
  2336  0F28                     clear_ram0:	
  2337                           ;	Called with FSR0 containing the base address, and
  2338                           ;	WREG with the size to clear
  2339                           
  2340  0F28  0064               	clrwdt	;clear the watchdog before getting into this loop
  2341  0F29                     clrloop0:
  2342  0F29  0180               	clrf	0	;clear RAM location pointed to by FSR
  2343  0F2A  3101               	addfsr 0,1
  2344  0F2B  0B89               	decfsz	9,f	;Have we reached the end of clearing yet?
  2345  0F2C  2F29               	goto	clrloop0	;have we reached the end yet?
  2346  0F2D  3400               	retlw	0	;all done for this memory range, return
  2347                           
  2348                           	psect	cstackCOMMON
  2349  0073                     __pcstackCOMMON:
  2350  0073                     ?_timer2_init:
  2351  0073                     ?_spi1_init:	
  2352                           ; 1 bytes @ 0x0
  2353                           
  2354  0073                     ?_PWM_set:	
  2355                           ; 1 bytes @ 0x0
  2356                           
  2357  0073                     ?_UART_init:	
  2358                           ; 1 bytes @ 0x0
  2359                           
  2360  0073                     ?_disable_watchdog_timer:	
  2361                           ; 1 bytes @ 0x0
  2362                           
  2363  0073                     ?_enable_external_interrupt:	
  2364                           ; 1 bytes @ 0x0
  2365                           
  2366  0073                     ?_set_watchdog_timer_128ms:	
  2367                           ; 1 bytes @ 0x0
  2368                           
  2369  0073                     ?_checkState1:	
  2370                           ; 1 bytes @ 0x0
  2371                           
  2372  0073                     ?_set_watchdog_timer_256ms:	
  2373                           ; 1 bytes @ 0x0
  2374                           
  2375  0073                     ?_set_watchdog_timer_1s:	
  2376                           ; 1 bytes @ 0x0
  2377                           
  2378  0073                     ?_set_watchdog_timer_4s:	
  2379                           ; 1 bytes @ 0x0
  2380                           
  2381  0073                     ?_set_watchdog_timer_256s:	
  2382                           ; 1 bytes @ 0x0
  2383                           
  2384  0073                     ?_enable_watchdog_timer:	
  2385                           ; 1 bytes @ 0x0
  2386                           
  2387  0073                     ?_Click_reset:	
  2388                           ; 1 bytes @ 0x0
  2389                           
  2390  0073                     ?_Click_latch_data:	
  2391                           ; 1 bytes @ 0x0
  2392                           
  2393  0073                     ?_main:	
  2394                           ; 1 bytes @ 0x0
  2395                           
  2396  0073                     ?_watch_dog_incrementing_timer:	
  2397                           ; 1 bytes @ 0x0
  2398                           
  2399  0073                     ?_disable_external_interrupt:	
  2400                           ; 1 bytes @ 0x0
  2401                           
  2402  0073                     ?_my_isr:	
  2403                           ; 1 bytes @ 0x0
  2404                           
  2405  0073                     ??_my_isr:	
  2406                           ; 1 bytes @ 0x0
  2407                           
  2408  0073                     ?_putch:	
  2409                           ; 1 bytes @ 0x0
  2410                           
  2411                           
  2412                           ; 1 bytes @ 0x0
  2413  0073                     	ds	2
  2414  0075                     ??_timer2_init:
  2415  0075                     ??_spi1_init:	
  2416                           ; 1 bytes @ 0x2
  2417                           
  2418  0075                     ??_UART_init:	
  2419                           ; 1 bytes @ 0x2
  2420                           
  2421  0075                     ??_disable_watchdog_timer:	
  2422                           ; 1 bytes @ 0x2
  2423                           
  2424  0075                     ??_enable_external_interrupt:	
  2425                           ; 1 bytes @ 0x2
  2426                           
  2427  0075                     ??_set_watchdog_timer_128ms:	
  2428                           ; 1 bytes @ 0x2
  2429                           
  2430  0075                     ??_set_watchdog_timer_256ms:	
  2431                           ; 1 bytes @ 0x2
  2432                           
  2433  0075                     ??_enable_watchdog_timer:	
  2434                           ; 1 bytes @ 0x2
  2435                           
  2436  0075                     ??_Click_reset:	
  2437                           ; 1 bytes @ 0x2
  2438                           
  2439  0075                     ??_Click_latch_data:	
  2440                           ; 1 bytes @ 0x2
  2441                           
  2442  0075                     ??_disable_external_interrupt:	
  2443                           ; 1 bytes @ 0x2
  2444                           
  2445  0075                     ??_putch:	
  2446                           ; 1 bytes @ 0x2
  2447                           
  2448  0075                     ?_getBatteryVoltage:	
  2449                           ; 1 bytes @ 0x2
  2450                           
  2451  0075                     ?___wmul:	
  2452                           ; 2 bytes @ 0x2
  2453                           
  2454  0075                     ?___awdiv:	
  2455                           ; 2 bytes @ 0x2
  2456                           
  2457  0075                     ?___awmod:	
  2458                           ; 2 bytes @ 0x2
  2459                           
  2460  0075                     putch@data:	
  2461                           ; 2 bytes @ 0x2
  2462                           
  2463  0075                     ___wmul@multiplier:	
  2464                           ; 1 bytes @ 0x2
  2465                           
  2466  0075                     ___awdiv@divisor:	
  2467                           ; 2 bytes @ 0x2
  2468                           
  2469  0075                     ___awmod@divisor:	
  2470                           ; 2 bytes @ 0x2
  2471                           
  2472                           
  2473                           ; 2 bytes @ 0x2
  2474  0075                     	ds	1
  2475  0076                     ?_fputc:
  2476  0076                     fputc@c:	
  2477                           ; 2 bytes @ 0x3
  2478                           
  2479                           
  2480                           ; 2 bytes @ 0x3
  2481  0076                     	ds	1
  2482  0077                     ??_getBatteryVoltage:
  2483  0077                     ___wmul@multiplicand:	
  2484                           ; 1 bytes @ 0x4
  2485                           
  2486  0077                     ___awdiv@dividend:	
  2487                           ; 2 bytes @ 0x4
  2488                           
  2489  0077                     ___awmod@dividend:	
  2490                           ; 2 bytes @ 0x4
  2491                           
  2492                           
  2493                           ; 2 bytes @ 0x4
  2494  0077                     	ds	1
  2495  0078                     fputc@fp:
  2496                           
  2497                           ; 1 bytes @ 0x5
  2498  0078                     	ds	1
  2499  0079                     ??___wmul:
  2500  0079                     ??___awdiv:	
  2501                           ; 1 bytes @ 0x6
  2502                           
  2503  0079                     ??___awmod:	
  2504                           ; 1 bytes @ 0x6
  2505                           
  2506  0079                     vfpfcnvrt@fp:	
  2507                           ; 1 bytes @ 0x6
  2508                           
  2509  0079                     ___wmul@product:	
  2510                           ; 1 bytes @ 0x6
  2511                           
  2512                           
  2513                           ; 2 bytes @ 0x6
  2514  0079                     	ds	1
  2515  007A                     ??_vfprintf:
  2516  007A                     ___awmod@counter:	
  2517                           ; 1 bytes @ 0x7
  2518                           
  2519  007A                     getBatteryVoltage@adc_val:	
  2520                           ; 1 bytes @ 0x7
  2521                           
  2522                           
  2523                           ; 2 bytes @ 0x7
  2524  007A                     	ds	1
  2525  007B                     ??_PWM_set:
  2526  007B                     ___awmod@sign:	
  2527                           ; 1 bytes @ 0x8
  2528                           
  2529                           
  2530                           ; 1 bytes @ 0x8
  2531  007B                     	ds	1
  2532  007C                     ?_spi1_send:
  2533  007C                     ??_printf:	
  2534                           ; 1 bytes @ 0x9
  2535                           
  2536  007C                     spi1_send@data2:	
  2537                           ; 1 bytes @ 0x9
  2538                           
  2539                           
  2540                           ; 1 bytes @ 0x9
  2541  007C                     	ds	1
  2542  007D                     ??_spi1_send:
  2543  007D                     ??_set_watchdog_timer_1s:	
  2544                           ; 1 bytes @ 0xA
  2545                           
  2546  007D                     ??_set_watchdog_timer_4s:	
  2547                           ; 1 bytes @ 0xA
  2548                           
  2549  007D                     ??_set_watchdog_timer_256s:	
  2550                           ; 1 bytes @ 0xA
  2551                           
  2552                           
  2553                           	psect	cstackBANK0
  2554  004C                     __pcstackBANK0:	
  2555                           ; 1 bytes @ 0xA
  2556                           
  2557  004C                     ??_fputc:
  2558  004C                     ___awdiv@counter:	
  2559                           ; 1 bytes @ 0x0
  2560                           
  2561  004C                     PWM_set@scaled_duty_cycle:	
  2562                           ; 1 bytes @ 0x0
  2563                           
  2564                           
  2565                           ; 2 bytes @ 0x0
  2566  004C                     	ds	1
  2567  004D                     ___awdiv@sign:
  2568                           
  2569                           ; 1 bytes @ 0x1
  2570  004D                     	ds	1
  2571  004E                     PWM_set@duty_cycle:
  2572  004E                     ___awdiv@quotient:	
  2573                           ; 1 bytes @ 0x2
  2574                           
  2575                           
  2576                           ; 2 bytes @ 0x2
  2577  004E                     	ds	2
  2578  0050                     spi1_send@data1:
  2579                           
  2580                           ; 1 bytes @ 0x4
  2581  0050                     	ds	1
  2582  0051                     ?_int2bcd:
  2583  0051                     ?_vfpfcnvrt:	
  2584                           ; 1 bytes @ 0x5
  2585                           
  2586  0051                     vfpfcnvrt@fmt:	
  2587                           ; 2 bytes @ 0x5
  2588                           
  2589  0051                     int2bcd@number:	
  2590                           ; 1 bytes @ 0x5
  2591                           
  2592                           
  2593                           ; 2 bytes @ 0x5
  2594  0051                     	ds	1
  2595  0052                     vfpfcnvrt@ap:
  2596                           
  2597                           ; 1 bytes @ 0x6
  2598  0052                     	ds	1
  2599  0053                     ??_vfpfcnvrt:
  2600  0053                     int2bcd@comma:	
  2601                           ; 1 bytes @ 0x7
  2602                           
  2603                           
  2604                           ; 1 bytes @ 0x7
  2605  0053                     	ds	1
  2606  0054                     ??_int2bcd:
  2607                           
  2608                           ; 1 bytes @ 0x8
  2609  0054                     	ds	4
  2610  0058                     ?_vfprintf:
  2611  0058                     vfprintf@fmt:	
  2612                           ; 2 bytes @ 0xC
  2613                           
  2614                           
  2615                           ; 2 bytes @ 0xC
  2616  0058                     	ds	2
  2617  005A                     vfprintf@ap:
  2618                           
  2619                           ; 1 bytes @ 0xE
  2620  005A                     	ds	1
  2621  005B                     vfprintf@fp:
  2622                           
  2623                           ; 1 bytes @ 0xF
  2624  005B                     	ds	1
  2625  005C                     vfprintf@cfmt:
  2626                           
  2627                           ; 2 bytes @ 0x10
  2628  005C                     	ds	2
  2629  005E                     ?_printf:
  2630  005E                     printf@fmt:	
  2631                           ; 2 bytes @ 0x12
  2632                           
  2633                           
  2634                           ; 2 bytes @ 0x12
  2635  005E                     	ds	2
  2636  0060                     printf@ap:
  2637                           
  2638                           ; 1 bytes @ 0x14
  2639  0060                     	ds	1
  2640  0061                     ??_watch_dog_incrementing_timer:
  2641                           
  2642                           ; 1 bytes @ 0x15
  2643  0061                     	ds	1
  2644  0062                     ??_checkState1:
  2645                           
  2646                           ; 1 bytes @ 0x16
  2647  0062                     	ds	2
  2648  0064                     ??_main:
  2649                           
  2650                           ; 1 bytes @ 0x18
  2651  0064                     	ds	2
  2652  0066                     main@write2display_copy:
  2653                           
  2654                           ; 1 bytes @ 0x1A
  2655  0066                     	ds	1
  2656                           
  2657                           	psect	maintext
  2658  02AD                     __pmaintext:	
  2659 ;;
  2660 ;;Main: autosize = 0, tempsize = 2, incstack = 0, save=0
  2661 ;;
  2662 ;; *************** function _main *****************
  2663 ;; Defined at:
  2664 ;;		line 110 in file "main.c"
  2665 ;; Parameters:    Size  Location     Type
  2666 ;;		None
  2667 ;; Auto vars:     Size  Location     Type
  2668 ;;  write2displa    1   26[BANK0 ] unsigned char 
  2669 ;; Return value:  Size  Location     Type
  2670 ;;                  1    wreg      void 
  2671 ;; Registers used:
  2672 ;;		wreg, fsr0l, fsr0h, fsr1l, fsr1h, status,2, status,0, pclath, cstack
  2673 ;; Tracked objects:
  2674 ;;		On entry : B1F/0
  2675 ;;		On exit  : 0/0
  2676 ;;		Unchanged: 0/0
  2677 ;; Data sizes:     COMMON   BANK0   BANK1   BANK2   BANK3   BANK4   BANK5   BANK6   BANK7   BANK8   BANK9  BANK10  BANK1
      +1  BANK12
  2678 ;;      Params:         0       0       0       0       0       0       0       0       0       0       0       0       
      +0       0
  2679 ;;      Locals:         0       1       0       0       0       0       0       0       0       0       0       0       
      +0       0
  2680 ;;      Temps:          0       2       0       0       0       0       0       0       0       0       0       0       
      +0       0
  2681 ;;      Totals:         0       3       0       0       0       0       0       0       0       0       0       0       
      +0       0
  2682 ;;Total ram usage:        3 bytes
  2683 ;; Hardware stack levels required when called: 9
  2684 ;; This function calls:
  2685 ;;		_Click_latch_data
  2686 ;;		_Click_reset
  2687 ;;		_PWM_set
  2688 ;;		_UART_init
  2689 ;;		___awdiv
  2690 ;;		_checkState1
  2691 ;;		_disable_watchdog_timer
  2692 ;;		_enable_external_interrupt
  2693 ;;		_getBatteryVoltage
  2694 ;;		_int2bcd
  2695 ;;		_printf
  2696 ;;		_set_watchdog_timer_128ms
  2697 ;;		_spi1_init
  2698 ;;		_spi1_send
  2699 ;;		_timer2_init
  2700 ;; This function is called by:
  2701 ;;		Startup code after reset
  2702 ;; This function uses a non-reentrant model
  2703 ;;
  2704                           
  2705                           
  2706                           ;psect for function _main
  2707  02AD                     _main:
  2708                           
  2709                           ;incstack = 0
  2710                           ; Regs used in _main: [wreg-fsr1h+status,2+status,0+pclath+cstack]
  2711  02AD                     l3056:
  2712                           
  2713                           ;main.c: 111:     static __bit output_polarity;;main.c: 114:     static __bit pwm_direct
      +                          ion;;main.c: 115:     static unsigned char pwm_dc = 0;;main.c: 116:     static unsigned 
      +                          char display_char = 0;;main.c: 117:     char write2display_copy = 0;
  2714  02AD  0020               	movlb	0	; select bank0
  2715  02AE  01E6               	clrf	main@write2display_copy
  2716                           
  2717                           ;main.c: 121:     ANSELA = 0;
  2718  02AF  0023               	movlb	3	; select bank3
  2719  02B0  018C               	clrf	12	;volatile
  2720                           
  2721                           ;main.c: 123:     ANSELC = 0;
  2722  02B1  018E               	clrf	14	;volatile
  2723  02B2                     __ccov11_end_blk0:
  2724  02B2                     __ccov12_start_blk1:
  2725  02B2                     l3058:
  2726                           
  2727                           ;main.c: 126:     OSCCONbits.IRCF = 0b1111;
  2728  02B2  3078               	movlw	120
  2729  02B3  0021               	movlb	1	; select bank1
  2730  02B4  0499               	iorwf	25,f	;volatile
  2731  02B5                     __ccov12_end_blk1:
  2732  02B5                     __ccov13_start_blk2:
  2733  02B5                     l3060:
  2734                           
  2735                           ;main.c: 127:     OSCCONbits.SPLLEN = 0;
  2736  02B5  1399               	bcf	25,7	;volatile
  2737  02B6                     __ccov13_end_blk2:
  2738  02B6                     __ccov14_start_blk3:
  2739  02B6                     l3062:
  2740                           
  2741                           ;main.c: 128:     OSCCONbits.SCS = 0b10;
  2742  02B6  0819               	movf	25,w	;volatile
  2743  02B7  39FC               	andlw	-4
  2744  02B8  3802               	iorlw	2
  2745  02B9  0099               	movwf	25	;volatile
  2746  02BA                     __ccov14_end_blk3:
  2747  02BA                     __ccov15_start_blk4:
  2748  02BA                     l3064:
  2749                           
  2750                           ;main.c: 132:     TRISCbits.TRISC7 = 0;
  2751  02BA  138E               	bcf	14,7	;volatile
  2752  02BB                     __ccov15_end_blk4:
  2753  02BB                     __ccov16_start_blk5:
  2754  02BB                     l3066:
  2755                           
  2756                           ;main.c: 133:     TRISCbits.TRISC6 = 0;
  2757  02BB  130E               	bcf	14,6	;volatile
  2758  02BC                     __ccov16_end_blk5:
  2759  02BC                     __ccov17_start_blk6:
  2760  02BC                     l3068:
  2761                           
  2762                           ;main.c: 134:     TRISCbits.TRISC5 = 0;
  2763  02BC  128E               	bcf	14,5	;volatile
  2764  02BD                     __ccov17_end_blk6:
  2765  02BD                     __ccov18_start_blk7:
  2766  02BD                     l3070:
  2767                           
  2768                           ;main.c: 135:     TRISCbits.TRISC4 = 0;
  2769  02BD  120E               	bcf	14,4	;volatile
  2770  02BE                     __ccov18_end_blk7:
  2771  02BE                     __ccov19_start_blk8:
  2772  02BE                     l3072:
  2773                           
  2774                           ;main.c: 136:     TRISCbits.TRISC3 = 0;
  2775  02BE  118E               	bcf	14,3	;volatile
  2776  02BF                     __ccov19_end_blk8:
  2777  02BF                     __ccov20_start_blk9:
  2778  02BF                     l3074:
  2779                           
  2780                           ;main.c: 138:     TRISCbits.TRISC2 = 0;
  2781  02BF  110E               	bcf	14,2	;volatile
  2782  02C0                     __ccov20_end_blk9:
  2783  02C0                     __ccov21_start_blk10:
  2784  02C0                     l3076:
  2785                           
  2786                           ;main.c: 139:     TRISCbits.TRISC1 = 0;
  2787  02C0  108E               	bcf	14,1	;volatile
  2788  02C1                     __ccov21_end_blk10:
  2789  02C1                     __ccov22_start_blk11:
  2790  02C1                     l3078:
  2791                           
  2792                           ;main.c: 140:     TRISCbits.TRISC0 = 0;
  2793  02C1  100E               	bcf	14,0	;volatile
  2794  02C2                     __ccov22_end_blk11:
  2795  02C2                     __ccov23_start_blk12:
  2796  02C2                     l3080:
  2797                           
  2798                           ;main.c: 142:     TRISAbits.TRISA5 = 0;
  2799  02C2  128C               	bcf	12,5	;volatile
  2800  02C3                     __ccov23_end_blk12:
  2801  02C3                     __ccov24_start_blk13:
  2802  02C3                     l3082:
  2803                           
  2804                           ;main.c: 143:     TRISAbits.TRISA4 = 0;
  2805  02C3  120C               	bcf	12,4	;volatile
  2806  02C4                     __ccov24_end_blk13:
  2807  02C4                     __ccov25_start_blk14:
  2808  02C4                     l3084:
  2809                           
  2810                           ;main.c: 144:     TRISAbits.TRISA3 = 1;
  2811  02C4  158C               	bsf	12,3	;volatile
  2812  02C5                     __ccov25_end_blk14:
  2813  02C5                     __ccov26_start_blk15:
  2814  02C5                     l3086:
  2815                           
  2816                           ;main.c: 145:     TRISAbits.TRISA2 = 1;
  2817  02C5  150C               	bsf	12,2	;volatile
  2818  02C6                     __ccov26_end_blk15:
  2819  02C6                     __ccov27_start_blk16:
  2820  02C6                     l3088:
  2821                           
  2822                           ;main.c: 146:     TRISAbits.TRISA1 = 0;
  2823  02C6  108C               	bcf	12,1	;volatile
  2824  02C7                     __ccov27_end_blk16:
  2825  02C7                     __ccov28_start_blk17:
  2826  02C7                     l3090:
  2827                           
  2828                           ;main.c: 147:     TRISAbits.TRISA0 = 0;
  2829  02C7  100C               	bcf	12,0	;volatile
  2830  02C8                     __ccov28_end_blk17:
  2831  02C8                     __ccov29_start_blk18:
  2832  02C8                     l3092:
  2833                           
  2834                           ;main.c: 149:     TRISBbits.TRISB7 = 0;
  2835  02C8  138D               	bcf	13,7	;volatile
  2836  02C9                     __ccov29_end_blk18:
  2837  02C9                     __ccov30_start_blk19:
  2838  02C9                     l3094:
  2839                           
  2840                           ;main.c: 150:     TRISBbits.TRISB6 = 0;
  2841  02C9  130D               	bcf	13,6	;volatile
  2842  02CA                     __ccov30_end_blk19:
  2843  02CA                     __ccov31_start_blk20:
  2844  02CA                     l3096:
  2845                           
  2846                           ;main.c: 151:     TRISBbits.TRISB5 = 1;
  2847  02CA  168D               	bsf	13,5	;volatile
  2848  02CB                     __ccov31_end_blk20:
  2849  02CB                     __ccov32_start_blk21:
  2850  02CB                     l3098:
  2851                           
  2852                           ;main.c: 152:     TRISBbits.TRISB4 = 1;
  2853  02CB  160D               	bsf	13,4	;volatile
  2854  02CC                     __ccov32_end_blk21:
  2855  02CC                     __ccov33_start_blk22:
  2856  02CC                     l3100:
  2857                           
  2858                           ;main.c: 162:     ANSELAbits.ANSA4 = 0;
  2859  02CC  0023               	movlb	3	; select bank3
  2860  02CD  120C               	bcf	12,4	;volatile
  2861  02CE                     __ccov33_end_blk22:
  2862  02CE                     __ccov34_start_blk23:
  2863  02CE                     l3102:
  2864                           
  2865                           ;main.c: 163:     ANSELAbits.ANSA2 = 0;
  2866  02CE  110C               	bcf	12,2	;volatile
  2867  02CF                     __ccov34_end_blk23:
  2868  02CF                     __ccov35_start_blk24:
  2869  02CF                     l3104:
  2870                           
  2871                           ;main.c: 164:     ANSELAbits.ANSA1 = 0;
  2872  02CF  108C               	bcf	12,1	;volatile
  2873  02D0                     __ccov35_end_blk24:
  2874  02D0                     __ccov36_start_blk25:
  2875  02D0                     l3106:
  2876                           
  2877                           ;main.c: 165:     ANSELAbits.ANSA0 = 0;
  2878  02D0  100C               	bcf	12,0	;volatile
  2879  02D1                     __ccov36_end_blk25:
  2880  02D1                     __ccov37_start_blk26:
  2881  02D1                     l3108:
  2882                           
  2883                           ;main.c: 168:     ANSELBbits.ANSB5 = 0;
  2884  02D1  128D               	bcf	13,5	;volatile
  2885  02D2                     __ccov37_end_blk26:
  2886  02D2                     __ccov38_start_blk27:
  2887  02D2                     l3110:
  2888                           
  2889                           ;main.c: 169:     ANSELBbits.ANSB4 = 0;
  2890  02D2  120D               	bcf	13,4	;volatile
  2891  02D3                     __ccov38_end_blk27:
  2892  02D3                     __ccov39_start_blk28:
  2893  02D3                     l3112:
  2894                           
  2895                           ;main.c: 172:     OPTION_REGbits.nWPUEN = 0;
  2896  02D3  0021               	movlb	1	; select bank1
  2897  02D4  1395               	bcf	21,7	;volatile
  2898  02D5                     __ccov39_end_blk28:
  2899  02D5                     __ccov40_start_blk29:
  2900  02D5                     l3114:
  2901                           
  2902                           ;main.c: 173:     WPUAbits.WPUA3 = 1;
  2903  02D5  0024               	movlb	4	; select bank4
  2904  02D6  158C               	bsf	12,3	;volatile
  2905  02D7                     __ccov40_end_blk29:
  2906  02D7                     __ccov41_start_blk30:
  2907  02D7                     l3116:
  2908                           
  2909                           ;main.c: 174:     WPUAbits.WPUA2 = 0;
  2910  02D7  110C               	bcf	12,2	;volatile
  2911  02D8                     __ccov41_end_blk30:
  2912  02D8                     __ccov42_start_blk31:
  2913  02D8                     l3118:
  2914                           
  2915                           ;main.c: 177:     INLVLAbits.INLVLA3 = 1;
  2916  02D8  0027               	movlb	7	; select bank7
  2917  02D9  158C               	bsf	12,3	;volatile
  2918  02DA                     __ccov42_end_blk31:
  2919  02DA                     __ccov43_start_blk32:
  2920  02DA                     l3120:
  2921                           
  2922                           ;main.c: 178:     INLVLAbits.INLVLA2 = 1;
  2923  02DA  150C               	bsf	12,2	;volatile
  2924  02DB                     __ccov43_end_blk32:
  2925  02DB                     __ccov44_start_blk33:
  2926  02DB                     l3122:
  2927                           
  2928                           ;main.c: 181:     INTCONbits.PEIE = 1;
  2929  02DB  170B               	bsf	11,6	;volatile
  2930  02DC                     __ccov44_end_blk33:
  2931  02DC                     __ccov45_start_blk34:
  2932  02DC                     l3124:
  2933                           
  2934                           ;main.c: 183:     PIE1bits.TMR1GIE = 0;
  2935  02DC  0021               	movlb	1	; select bank1
  2936  02DD  1391               	bcf	17,7	;volatile
  2937  02DE                     __ccov45_end_blk34:
  2938  02DE                     __ccov46_start_blk35:
  2939  02DE                     l3126:
  2940                           
  2941                           ;main.c: 184:     PIE1bits.SSP1IE = 0;
  2942  02DE  1191               	bcf	17,3	;volatile
  2943  02DF                     __ccov46_end_blk35:
  2944  02DF                     __ccov47_start_blk36:
  2945  02DF                     l3128:
  2946                           
  2947                           ;main.c: 186:     INTCONbits.GIE = 1;
  2948  02DF  178B               	bsf	11,7	;volatile
  2949  02E0                     __ccov47_end_blk36:
  2950  02E0                     __ccov48_start_blk37:
  2951  02E0                     l3130:
  2952                           
  2953                           ;main.c: 188:     MDCARHbits.MDCH = 0b0100;
  2954  02E0  0027               	movlb	7	; select bank7
  2955  02E1  081F               	movf	31,w	;volatile
  2956  02E2  39F0               	andlw	-16
  2957  02E3  3804               	iorlw	4
  2958  02E4  009F               	movwf	31	;volatile
  2959  02E5                     __ccov48_end_blk37:
  2960  02E5                     __ccov49_start_blk38:
  2961  02E5                     l3132:
  2962                           
  2963                           ;main.c: 189:     MDCONbits.MDEN = 0;
  2964  02E5  139C               	bcf	28,7	;volatile
  2965  02E6                     __ccov49_end_blk38:
  2966  02E6                     __ccov50_start_blk39:
  2967  02E6                     l3134:
  2968                           
  2969                           ;main.c: 190:     MDSRCbits.MDMSODIS = 1;
  2970  02E6  179D               	bsf	29,7	;volatile
  2971  02E7                     __ccov50_end_blk39:
  2972  02E7                     __ccov51_start_blk40:
  2973  02E7                     l3136:
  2974                           
  2975                           ;main.c: 192:     PIE1bits.TMR2IE = 1;
  2976  02E7  0021               	movlb	1	; select bank1
  2977  02E8  1491               	bsf	17,1	;volatile
  2978  02E9                     __ccov51_end_blk40:
  2979  02E9                     __ccov52_start_blk41:
  2980  02E9                     l3138:
  2981                           
  2982                           ;main.c: 193:     PIR1 = 0;
  2983  02E9  0020               	movlb	0	; select bank0
  2984  02EA  0191               	clrf	17	;volatile
  2985  02EB                     __ccov52_end_blk41:
  2986  02EB                     __ccov53_start_blk42:
  2987  02EB                     l3140:
  2988                           
  2989                           ;main.c: 194:     PIR2 = 0;
  2990  02EB  0192               	clrf	18	;volatile
  2991  02EC                     __ccov53_end_blk42:
  2992  02EC                     __ccov54_start_blk43:
  2993  02EC                     l3142:
  2994                           
  2995                           ;main.c: 197:     PIR3 = 0;
  2996  02EC  0193               	clrf	19	;volatile
  2997  02ED                     __ccov54_end_blk43:
  2998  02ED                     __ccov55_start_blk44:
  2999  02ED                     l3144:
  3000                           
  3001                           ;main.c: 198:     PIR4 = 0;
  3002  02ED  0194               	clrf	20	;volatile
  3003  02EE                     __ccov55_end_blk44:
  3004  02EE                     __ccov56_start_blk45:
  3005  02EE                     l3146:
  3006                           
  3007                           ;main.c: 201:     IOCAF = 0;
  3008  02EE  0027               	movlb	7	; select bank7
  3009  02EF  0193               	clrf	19	;volatile
  3010  02F0                     __ccov56_end_blk45:
  3011  02F0                     __ccov57_start_blk46:
  3012  02F0                     l3148:
  3013                           
  3014                           ;main.c: 203:     IOCBF = 0;
  3015  02F0  0196               	clrf	22	;volatile
  3016  02F1                     __ccov57_end_blk46:
  3017  02F1                     __ccov58_start_blk47:
  3018  02F1                     l3150:
  3019                           
  3020                           ;main.c: 205:     FVRCON = 0;
  3021  02F1  0022               	movlb	2	; select bank2
  3022  02F2  0197               	clrf	23	;volatile
  3023                           
  3024                           ;main.c: 207:     MDSRCbits.MDMS = 0b0010;
  3025  02F3  0027               	movlb	7	; select bank7
  3026  02F4  081D               	movf	29,w	;volatile
  3027  02F5  39F0               	andlw	-16
  3028  02F6  3802               	iorlw	2
  3029  02F7  009D               	movwf	29	;volatile
  3030                           
  3031                           ;main.c: 208:     MDCARHbits.MDCH = 0b0100;
  3032  02F8  081F               	movf	31,w	;volatile
  3033  02F9  39F0               	andlw	-16
  3034  02FA  3804               	iorlw	4
  3035  02FB  009F               	movwf	31	;volatile
  3036                           
  3037                           ;main.c: 209:     MDCARLbits.MDCL = 0b0100;
  3038  02FC  081E               	movf	30,w	;volatile
  3039  02FD  39F0               	andlw	-16
  3040  02FE  3804               	iorlw	4
  3041  02FF  009E               	movwf	30	;volatile
  3042  0300                     __ccov58_end_blk47:
  3043  0300                     __ccov59_start_blk48:
  3044  0300                     l3152:
  3045                           
  3046                           ;main.c: 211:     SSP1CON1bits.SSPEN = 0;
  3047  0300  0024               	movlb	4	; select bank4
  3048  0301  1295               	bcf	21,5	;volatile
  3049  0302                     __ccov59_end_blk48:
  3050  0302                     __ccov60_start_blk49:
  3051  0302                     l3154:
  3052                           
  3053                           ;main.c: 212:     RCSTAbits.SPEN = 0;
  3054  0302  0023               	movlb	3	; select bank3
  3055  0303  139D               	bcf	29,7	;volatile
  3056  0304                     __ccov60_end_blk49:
  3057  0304                     __ccov61_start_blk50:
  3058  0304                     l3156:
  3059                           
  3060                           ;main.c: 214:     CM1CON0bits.C1ON = 0;
  3061  0304  0022               	movlb	2	; select bank2
  3062  0305  1391               	bcf	17,7	;volatile
  3063  0306                     __ccov61_end_blk50:
  3064  0306                     __ccov62_start_blk51:
  3065  0306                     l3158:
  3066                           
  3067                           ;main.c: 216:     CM2CON0bits.C2ON = 0;
  3068  0306  1393               	bcf	19,7	;volatile
  3069  0307                     __ccov62_end_blk51:
  3070  0307                     __ccov63_start_blk52:
  3071  0307                     l3160:
  3072                           
  3073                           ;main.c: 218:     SRCON0bits.SRLEN = 0;
  3074  0307  139A               	bcf	26,7	;volatile
  3075  0308                     __ccov63_end_blk52:
  3076  0308                     __ccov64_start_blk53:
  3077  0308                     l3162:
  3078                           
  3079                           ;main.c: 220:     RCSTAbits.SREN = 0;
  3080  0308  0023               	movlb	3	; select bank3
  3081  0309  129D               	bcf	29,5	;volatile
  3082  030A                     __ccov64_end_blk53:
  3083  030A                     __ccov65_start_blk54:
  3084  030A                     l3164:
  3085                           
  3086                           ;main.c: 221:     TXSTAbits.TXEN = 0;
  3087  030A  129E               	bcf	30,5	;volatile
  3088  030B                     __ccov65_end_blk54:
  3089  030B                     __ccov66_start_blk55:
  3090  030B                     l3166:
  3091                           
  3092                           ;main.c: 222:     timer2_init();
  3093  030B  318F  2759  3182   	fcall	_timer2_init
  3094  030E                     __ccov66_end_blk55:
  3095  030E                     __ccov67_start_blk56:
  3096  030E                     l3168:
  3097                           
  3098                           ;main.c: 227:     output_polarity = 0;
  3099  030E  1272               	bcf	main@output_polarity/(0+8),main@output_polarity& (0+7)
  3100  030F                     __ccov67_end_blk56:
  3101  030F                     __ccov68_start_blk57:
  3102  030F                     l3170:
  3103                           
  3104                           ;main.c: 228:     pwm_direction = 1;
  3105  030F  0020               	movlb	0	; select bank0
  3106  0310  1467               	bsf	main@pwm_direction/(0+8),main@pwm_direction& (0+7)
  3107  0311                     __ccov68_end_blk57:
  3108  0311                     __ccov69_start_blk58:
  3109  0311                     l3172:
  3110                           
  3111                           ;main.c: 229:     Click_latch_data();
  3112  0311  318F  2723  3182   	fcall	_Click_latch_data
  3113  0314                     __ccov69_end_blk58:
  3114  0314                     __ccov70_start_blk59:
  3115  0314                     l3174:
  3116                           
  3117                           ;main.c: 230:     Click_reset();
  3118  0314  318F  2714  3182   	fcall	_Click_reset
  3119  0317                     __ccov70_end_blk59:
  3120  0317                     __ccov71_start_blk60:
  3121  0317                     l3176:
  3122                           
  3123                           ;main.c: 231:     spi1_init();
  3124  0317  318F  27AA  3182   	fcall	_spi1_init
  3125  031A                     __ccov71_end_blk60:
  3126  031A                     __ccov72_start_blk61:
  3127  031A                     l3178:
  3128                           
  3129                           ;main.c: 232:     spi1_send(0x80, 0x80);
  3130  031A  3080               	movlw	128
  3131  031B  0020               	movlb	0	; select bank0
  3132  031C  00E4               	movwf	??_main
  3133  031D  0864               	movf	??_main,w
  3134  031E  00FC               	movwf	spi1_send@data2
  3135  031F  3080               	movlw	128
  3136  0320  318F  27DC  3182   	fcall	_spi1_send
  3137  0323                     __ccov72_end_blk61:
  3138  0323                     __ccov73_start_blk62:
  3139  0323                     l3180:
  3140                           
  3141                           ;main.c: 233:     PWMtoggle = 0;
  3142  0323  13F2               	bcf	_PWMtoggle/(0+8),_PWMtoggle& (0+7)
  3143  0324                     __ccov73_end_blk62:
  3144  0324                     __ccov74_start_blk63:
  3145  0324                     l3182:
  3146                           
  3147                           ;main.c: 234:     PWM_set(50);
  3148  0324  3032               	movlw	50
  3149  0325  3186  264E  3182   	fcall	_PWM_set
  3150  0328                     __ccov74_end_blk63:
  3151  0328                     __ccov75_start_blk64:
  3152  0328                     l3184:
  3153                           
  3154                           ;main.c: 235:     UART_init();
  3155  0328  318F  274A  3182   	fcall	_UART_init
  3156  032B                     __ccov75_end_blk64:
  3157  032B                     __ccov76_start_blk65:
  3158  032B                     l3186:
  3159                           
  3160                           ;main.c: 238:     disable_watchdog_timer();
  3161  032B  318F  2719  3182   	fcall	_disable_watchdog_timer
  3162  032E                     __ccov76_end_blk65:
  3163  032E                     __ccov77_start_blk66:
  3164  032E                     l3188:
  3165                           
  3166                           ;main.c: 241:     int2bcd(11, 1);
  3167  032E  300B               	movlw	11
  3168  032F  0020               	movlb	0	; select bank0
  3169  0330  00D1               	movwf	int2bcd@number
  3170  0331  3000               	movlw	0
  3171  0332  00D2               	movwf	int2bcd@number+1
  3172  0333  01D3               	clrf	int2bcd@comma
  3173  0334  0AD3               	incf	int2bcd@comma,f
  3174  0335  3184  2418  3182   	fcall	_int2bcd
  3175  0338                     __ccov77_end_blk66:
  3176  0338                     __ccov78_start_blk67:
  3177  0338                     l3190:
  3178                           
  3179                           ;main.c: 242:     printf("Welcome to KOCH Engineering GardenGate\r\n");
  3180  0338  3073               	movlw	low (STR_1| (0+32768))
  3181  0339  0020               	movlb	0	; select bank0
  3182  033A  00DE               	movwf	printf@fmt
  3183  033B  3087               	movlw	high (STR_1| (0+32768))
  3184  033C  00DF               	movwf	printf@fmt+1
  3185  033D  318F  2798  3182   	fcall	_printf
  3186  0340                     __ccov78_end_blk67:
  3187  0340                     __ccov79_start_blk68:
  3188  0340                     l3192:
  3189                           
  3190                           ;main.c: 243:     printf("Microchip 16LF1829 starting up...\r\n");
  3191  0340  30E9               	movlw	low (STR_2| (0+32768))
  3192  0341  0020               	movlb	0	; select bank0
  3193  0342  00DE               	movwf	printf@fmt
  3194  0343  3087               	movlw	high (STR_2| (0+32768))
  3195  0344  00DF               	movwf	printf@fmt+1
  3196  0345  318F  2798  3182   	fcall	_printf
  3197  0348                     __ccov79_end_blk68:
  3198  0348                     __ccov80_start_blk69:
  3199  0348                     l3194:
  3200                           
  3201                           ;main.c: 246:     _delay((unsigned long)((200)*(16000000/4000.0)));
  3202  0348  3005               	movlw	5
  3203  0349  0020               	movlb	0	; select bank0
  3204  034A  00E5               	movwf	??_main+1
  3205  034B  300F               	movlw	15
  3206  034C  00E4               	movwf	??_main
  3207  034D  30F1               	movlw	241
  3208  034E                     u1527:
  3209  034E  0B89               	decfsz	9,f
  3210  034F  2B4E               	goto	u1527
  3211  0350  0BE4               	decfsz	??_main,f
  3212  0351  2B4E               	goto	u1527
  3213  0352  0BE5               	decfsz	??_main+1,f
  3214  0353  2B4E               	goto	u1527
  3215  0354                     __ccov80_end_blk69:
  3216  0354                     __ccov81_start_blk70:
  3217  0354                     l3196:
  3218                           
  3219                           ;main.c: 248:     NewStateChangeDetected = 0;
  3220  0354  1372               	bcf	_NewStateChangeDetected/(0+8),_NewStateChangeDetected& (0+7)
  3221  0355                     __ccov81_end_blk70:
  3222  0355                     __ccov82_start_blk71:
  3223  0355                     l3198:
  3224                           
  3225                           ;main.c: 251:     state_door = PORTAbits.RA2;
  3226  0355  3000               	movlw	0
  3227  0356  0020               	movlb	0	; select bank0
  3228  0357  190C               	btfsc	12,2	;volatile
  3229  0358  3001               	movlw	1
  3230  0359  00C9               	movwf	_state_door
  3231  035A                     __ccov82_end_blk71:
  3232  035A                     __ccov83_start_blk72:
  3233  035A                     l3200:
  3234                           
  3235                           ;main.c: 252:     state_machine = STATE_JUST_AWAKED;
  3236  035A  01C8               	clrf	_state_machine
  3237  035B                     __ccov83_end_blk72:
  3238  035B                     __ccov84_start_blk73:
  3239  035B                     l3202:
  3240                           
  3241                           ;main.c: 255:     BatteryVoltage = getBatteryVoltage();
  3242  035B  3186  26D4  3182   	fcall	_getBatteryVoltage
  3243  035E  0876               	movf	?_getBatteryVoltage+1,w
  3244  035F  0020               	movlb	0	; select bank0
  3245  0360  00CB               	movwf	_BatteryVoltage+1	;volatile
  3246  0361  0875               	movf	?_getBatteryVoltage,w
  3247  0362  00CA               	movwf	_BatteryVoltage	;volatile
  3248  0363                     __ccov84_end_blk73:
  3249  0363                     __ccov85_start_blk74:
  3250  0363                     l3204:
  3251                           
  3252                           ;main.c: 256:     millivolts = (8192 / BatteryVoltage) * 1024;
  3253  0363  084B               	movf	_BatteryVoltage+1,w	;volatile
  3254  0364  00F6               	movwf	___awdiv@divisor+1
  3255  0365  084A               	movf	_BatteryVoltage,w	;volatile
  3256  0366  00F5               	movwf	___awdiv@divisor
  3257  0367  3000               	movlw	0
  3258  0368  00F7               	movwf	___awdiv@dividend
  3259  0369  3020               	movlw	32
  3260  036A  00F8               	movwf	___awdiv@dividend+1
  3261  036B  3185  259B  3182   	fcall	___awdiv
  3262  036E  0875               	movf	?___awdiv,w
  3263  036F  0020               	movlb	0	; select bank0
  3264  0370  00E4               	movwf	??_main
  3265  0371  0876               	movf	?___awdiv+1,w
  3266  0372  00E5               	movwf	??_main+1
  3267  0373  300A               	movlw	10
  3268  0374                     u1475:
  3269  0374  35E4               	lslf	??_main,f
  3270  0375  0DE5               	rlf	??_main+1,f
  3271  0376  0B89               	decfsz	9,f
  3272  0377  2B74               	goto	u1475
  3273  0378  0864               	movf	??_main,w
  3274  0379  00C0               	movwf	_millivolts	;volatile
  3275  037A  0865               	movf	??_main+1,w
  3276  037B  00C1               	movwf	_millivolts+1	;volatile
  3277  037C                     __ccov85_end_blk74:
  3278  037C                     __ccov86_start_blk75:
  3279  037C                     l3206:
  3280                           
  3281                           ;main.c: 257:     millivolts = millivolts / 8;
  3282  037C  3008               	movlw	8
  3283  037D  00F5               	movwf	___awdiv@divisor
  3284  037E  3000               	movlw	0
  3285  037F  00F6               	movwf	___awdiv@divisor+1
  3286  0380  0841               	movf	_millivolts+1,w	;volatile
  3287  0381  00F8               	movwf	___awdiv@dividend+1
  3288  0382  0840               	movf	_millivolts,w	;volatile
  3289  0383  00F7               	movwf	___awdiv@dividend
  3290  0384  3185  259B  3182   	fcall	___awdiv
  3291  0387  0876               	movf	?___awdiv+1,w
  3292  0388  0020               	movlb	0	; select bank0
  3293  0389  00C1               	movwf	_millivolts+1	;volatile
  3294  038A  0875               	movf	?___awdiv,w
  3295  038B  00C0               	movwf	_millivolts	;volatile
  3296  038C                     __ccov86_end_blk75:
  3297  038C                     __ccov87_start_blk76:
  3298  038C                     l3208:
  3299                           
  3300                           ;main.c: 258:     if (BatteryVoltage <= 2400) {
  3301  038C  084B               	movf	_BatteryVoltage+1,w	;volatile
  3302  038D  3A80               	xorlw	128
  3303  038E  00E4               	movwf	??_main
  3304  038F  3089               	movlw	137
  3305  0390  0264               	subwf	??_main,w
  3306  0391  1D03               	skipz
  3307  0392  2B95               	goto	u1485
  3308  0393  3061               	movlw	97
  3309  0394  024A               	subwf	_BatteryVoltage,w	;volatile
  3310  0395                     u1485:
  3311  0395  1803               	skipnc
  3312  0396  2B98               	goto	u1481
  3313  0397  2B99               	goto	u1480
  3314  0398                     u1481:
  3315  0398  2BA7               	goto	l3216
  3316  0399                     __ccov87_end_blk76:
  3317  0399                     u1480:
  3318  0399                     __ccov88_start_blk77:
  3319  0399                     l3210:
  3320                           
  3321                           ;main.c: 260:         LATCbits.LATC1 = 1;
  3322  0399  0022               	movlb	2	; select bank2
  3323  039A  148E               	bsf	14,1	;volatile
  3324  039B                     __ccov88_end_blk77:
  3325  039B                     __ccov89_start_blk78:
  3326  039B                     l3212:
  3327                           
  3328                           ;main.c: 261:         _delay((unsigned long)((5 * 8)*(16000000/4000.0)));
  3329  039B  30D0               	movlw	208
  3330  039C  0020               	movlb	0	; select bank0
  3331  039D  00E4               	movwf	??_main
  3332  039E  30C9               	movlw	201
  3333  039F                     u1537:
  3334  039F  0B89               	decfsz	9,f
  3335  03A0  2B9F               	goto	u1537
  3336  03A1  0BE4               	decfsz	??_main,f
  3337  03A2  2B9F               	goto	u1537
  3338  03A3  3200               	nop2
  3339  03A4                     __ccov89_end_blk78:
  3340  03A4                     __ccov90_start_blk79:
  3341  03A4                     l3214:
  3342  03A4  16F1               	bsf	__ccovbit79_7/(0+8),__ccovbit79_7& (0+7)	;volatile
  3343                           
  3344                           ;main.c: 262:         LATCbits.LATC1 = !1;
  3345  03A5  0022               	movlb	2	; select bank2
  3346  03A6  108E               	bcf	14,1	;volatile
  3347  03A7                     __ccov90_end_blk79:
  3348  03A7                     __ccov91_start_blk81:
  3349  03A7                     l3216:
  3350                           
  3351                           ;main.c: 264:     DoorStateBeforePrel = PORTAbits.RA2;
  3352  03A7  3000               	movlw	0
  3353  03A8  0020               	movlb	0	; select bank0
  3354  03A9  190C               	btfsc	12,2	;volatile
  3355  03AA  3001               	movlw	1
  3356  03AB  00C7               	movwf	_DoorStateBeforePrel
  3357  03AC                     __ccov91_end_blk81:
  3358  03AC                     __ccov92_start_blk82:
  3359  03AC                     l3218:
  3360                           
  3361                           ;main.c: 265:     DoorStateAfterPrel = PORTAbits.RA2;
  3362  03AC  3000               	movlw	0
  3363  03AD  190C               	btfsc	12,2	;volatile
  3364  03AE  3001               	movlw	1
  3365  03AF  00C6               	movwf	_DoorStateAfterPrel
  3366  03B0                     __ccov92_end_blk82:
  3367  03B0                     __ccov93_start_blk83:
  3368  03B0                     l3220:
  3369                           
  3370                           ;main.c: 267:     INTCONbits.INTF = 0;
  3371  03B0  108B               	bcf	11,1	;volatile
  3372  03B1                     __ccov93_end_blk83:
  3373  03B1                     __ccov94_start_blk84:
  3374  03B1                     l3222:
  3375                           
  3376                           ;main.c: 268:     INTCONbits.GIE = 1;
  3377  03B1  178B               	bsf	11,7	;volatile
  3378  03B2                     __ccov94_end_blk84:
  3379  03B2                     __ccov95_start_blk85:
  3380  03B2                     l3224:
  3381                           
  3382                           ;main.c: 270:     enable_external_interrupt();
  3383  03B2  318F  2710  3182   	fcall	_enable_external_interrupt
  3384  03B5                     __ccov95_end_blk85:
  3385  03B5                     __ccov96_start_blk86:
  3386  03B5                     l3226:
  3387                           
  3388                           ;main.c: 273:     sleep_128ms_counter = 0;
  3389  03B5  0020               	movlb	0	; select bank0
  3390  03B6  01BA               	clrf	_sleep_128ms_counter	;volatile
  3391  03B7  01BB               	clrf	_sleep_128ms_counter+1	;volatile
  3392  03B8                     __ccov96_end_blk86:
  3393  03B8                     __ccov97_start_blk87:
  3394  03B8                     l3228:
  3395                           
  3396                           ;main.c: 274:     sleep_256ms_counter = 0;
  3397  03B8  01B8               	clrf	_sleep_256ms_counter	;volatile
  3398  03B9  01B9               	clrf	_sleep_256ms_counter+1	;volatile
  3399  03BA                     __ccov97_end_blk87:
  3400  03BA                     __ccov98_start_blk88:
  3401  03BA                     l3230:
  3402                           
  3403                           ;main.c: 275:     sleep_1s_counter = 0;
  3404  03BA  01B6               	clrf	_sleep_1s_counter	;volatile
  3405  03BB  01B7               	clrf	_sleep_1s_counter+1	;volatile
  3406  03BC                     __ccov98_end_blk88:
  3407  03BC                     __ccov99_start_blk89:
  3408  03BC                     l3232:
  3409                           
  3410                           ;main.c: 276:     sleep_4s_counter = 0;
  3411  03BC  01B4               	clrf	_sleep_4s_counter	;volatile
  3412  03BD  01B5               	clrf	_sleep_4s_counter+1	;volatile
  3413  03BE                     __ccov99_end_blk89:
  3414  03BE                     __ccov100_start_blk90:
  3415  03BE                     l3234:
  3416                           
  3417                           ;main.c: 277:     sleep_256s_counter = 0;
  3418  03BE  01B2               	clrf	_sleep_256s_counter	;volatile
  3419  03BF  01B3               	clrf	_sleep_256s_counter+1	;volatile
  3420  03C0                     __ccov100_end_blk90:
  3421  03C0                     __ccov101_start_blk91:
  3422  03C0                     l3236:
  3423                           
  3424                           ;main.c: 279:     set_watchdog_timer_128ms();
  3425  03C0  318F  272E  3182   	fcall	_set_watchdog_timer_128ms
  3426                           
  3427                           ;main.c: 283:     switch (PORTAbits.RA2) {
  3428  03C3  2BD6               	goto	l3246
  3429  03C4                     __ccov101_end_blk91:
  3430  03C4                     __ccov102_start_blk92:
  3431  03C4                     l200:	
  3432                           ;main.c: 284:         case 1:
  3433                           
  3434  03C4  1671               	bsf	__ccovbit92_8/(0+8),__ccovbit92_8& (0+7)	;volatile
  3435                           
  3436                           ;main.c: 285:              state_door = STATE_DOOR_OPEN;
  3437  03C5  01C9               	clrf	_state_door
  3438  03C6  0AC9               	incf	_state_door,f
  3439                           
  3440                           ;main.c: 286:              OPTION_REGbits.INTEDG = !1;
  3441  03C7  0021               	movlb	1	; select bank1
  3442  03C8  1315               	bcf	21,6	;volatile
  3443                           
  3444                           ;main.c: 287:              NewDoorPolarity = 1;
  3445  03C9  16F2               	bsf	_NewDoorPolarity/(0+8),_NewDoorPolarity& (0+7)
  3446                           
  3447                           ;main.c: 288:              DoorStateBeforePrel = 1;
  3448  03CA  0020               	movlb	0	; select bank0
  3449  03CB  01C7               	clrf	_DoorStateBeforePrel
  3450  03CC  0AC7               	incf	_DoorStateBeforePrel,f
  3451                           
  3452                           ;main.c: 289:              break;
  3453  03CD  2BE9               	goto	l203
  3454  03CE                     __ccov102_end_blk92:
  3455  03CE                     __ccov103_start_blk94:
  3456  03CE                     l3238:
  3457                           
  3458                           ;main.c: 291:             state_door = STATE_DOOR_CLOSED;
  3459  03CE  01C9               	clrf	_state_door
  3460  03CF                     __ccov103_end_blk94:
  3461  03CF                     __ccov104_start_blk95:
  3462  03CF                     l3240:
  3463                           
  3464                           ;main.c: 292:             OPTION_REGbits.INTEDG = !0;
  3465  03CF  0021               	movlb	1	; select bank1
  3466  03D0  1715               	bsf	21,6	;volatile
  3467  03D1                     __ccov104_end_blk95:
  3468  03D1                     __ccov105_start_blk96:
  3469  03D1                     l3242:
  3470  03D1  15F1               	bsf	__ccovbit96_9/(0+8),__ccovbit96_9& (0+7)	;volatile
  3471                           
  3472                           ;main.c: 293:             NewDoorPolarity = 0;
  3473  03D2  12F2               	bcf	_NewDoorPolarity/(0+8),_NewDoorPolarity& (0+7)
  3474                           
  3475                           ;main.c: 294:             DoorStateBeforePrel = 0;
  3476  03D3  0020               	movlb	0	; select bank0
  3477  03D4  01C7               	clrf	_DoorStateBeforePrel
  3478                           
  3479                           ;main.c: 295:             break;
  3480  03D5  2BE9               	goto	l203
  3481  03D6                     __ccov105_end_blk96:
  3482  03D6                     __ccov106_start_blk99:
  3483  03D6                     l3246:
  3484  03D6  0020               	movlb	0	; select bank0
  3485  03D7  0C0C               	rrf	12,w	;volatile
  3486  03D8  0C89               	rrf	9,f
  3487  03D9  3901               	andlw	1
  3488  03DA  00E4               	movwf	??_main
  3489  03DB  01E5               	clrf	??_main+1
  3490                           
  3491                           ; Switch on 2 bytes has been partitioned into a top level switch of size 1, and 1 sub-sw
      +                          itches
  3492                           ; Switch size 1, requested type "simple"
  3493                           ; Number of cases is 1, Range of values is 0 to 0
  3494                           ; switch strategies available:
  3495                           ; Name         Instructions Cycles
  3496                           ; simple_byte            4     3 (average)
  3497                           ; direct_byte            8     6 (fixed)
  3498                           ; jumptable            260     6 (fixed)
  3499                           ;	Chosen strategy is simple_byte
  3500  03DC  0865               	movf	??_main+1,w
  3501  03DD  3A00               	xorlw	0	; case 0
  3502  03DE  1903               	skipnz
  3503  03DF  2BE1               	goto	l3486
  3504  03E0  2BE9               	goto	l203
  3505  03E1                     l3486:
  3506                           
  3507                           ; Switch size 1, requested type "simple"
  3508                           ; Number of cases is 2, Range of values is 0 to 1
  3509                           ; switch strategies available:
  3510                           ; Name         Instructions Cycles
  3511                           ; simple_byte            7     4 (average)
  3512                           ; direct_byte           10     6 (fixed)
  3513                           ; jumptable            260     6 (fixed)
  3514                           ;	Chosen strategy is simple_byte
  3515  03E1  0864               	movf	??_main,w
  3516  03E2  3A00               	xorlw	0	; case 0
  3517  03E3  1903               	skipnz
  3518  03E4  2BCE               	goto	l3238
  3519  03E5  3A01               	xorlw	1	; case 1
  3520  03E6  1903               	skipnz
  3521  03E7  2BC4               	goto	l200
  3522  03E8  2BE9               	goto	l203
  3523  03E9                     __ccov106_end_blk99:
  3524  03E9                     __ccov107_start_blk101:
  3525  03E9                     l203:	
  3526                           ;main.c: 298:     while (1) {
  3527                           
  3528                           
  3529                           ;main.c: 300:         if (NewStateChangeDetected == 1) {
  3530  03E9  1F72               	btfss	_NewStateChangeDetected/(0+8),_NewStateChangeDetected& (0+7)
  3531  03EA  2BEC               	goto	u1491
  3532  03EB  2BED               	goto	u1490
  3533  03EC                     u1491:
  3534  03EC  2BF2               	goto	l3250
  3535  03ED                     __ccov107_end_blk101:
  3536  03ED                     u1490:
  3537  03ED                     __ccov108_start_blk102:
  3538  03ED                     l3248:
  3539  03ED  1571               	bsf	__ccovbit102_10/(0+8),__ccovbit102_10& (0+7)	;volatile
  3540                           
  3541                           ;main.c: 301:             state_machine = STATE_NEW_DOOR_STATE;
  3542  03EE  0020               	movlb	0	; select bank0
  3543  03EF  01C8               	clrf	_state_machine
  3544  03F0  0AC8               	incf	_state_machine,f
  3545                           
  3546                           ;main.c: 302:             NewStateChangeDetected = 0;
  3547  03F1  1372               	bcf	_NewStateChangeDetected/(0+8),_NewStateChangeDetected& (0+7)
  3548  03F2                     __ccov108_end_blk102:
  3549  03F2                     __ccov109_start_blk104:
  3550  03F2                     l3250:
  3551                           
  3552                           ;main.c: 306:         if (state_machine != write2display_copy) {
  3553  03F2  0020               	movlb	0	; select bank0
  3554  03F3  0848               	movf	_state_machine,w
  3555  03F4  0666               	xorwf	main@write2display_copy,w
  3556  03F5  1903               	skipnz
  3557  03F6  2BF8               	goto	u1501
  3558  03F7  2BF9               	goto	u1500
  3559  03F8                     u1501:
  3560  03F8  2C11               	goto	l3258
  3561  03F9                     __ccov109_end_blk104:
  3562  03F9                     u1500:
  3563  03F9                     __ccov110_start_blk105:
  3564  03F9                     l3252:
  3565  03F9  14F1               	bsf	__ccovbit105_11/(0+8),__ccovbit105_11& (0+7)	;volatile
  3566                           
  3567                           ;main.c: 307:             if (state_machine != 12) {
  3568  03FA  300C               	movlw	12
  3569  03FB  0648               	xorwf	_state_machine,w
  3570  03FC  1903               	btfsc	3,2
  3571  03FD  2BFF               	goto	u1511
  3572  03FE  2C00               	goto	u1510
  3573  03FF                     u1511:
  3574  03FF  2C11               	goto	l3258
  3575  0400                     __ccov110_end_blk105:
  3576  0400                     u1510:
  3577  0400                     __ccov111_start_blk106:
  3578  0400                     l3254:
  3579                           
  3580                           ;main.c: 308:                 int2bcd('0', state_machine);
  3581  0400  3030               	movlw	48
  3582  0401  00D1               	movwf	int2bcd@number
  3583  0402  3000               	movlw	0
  3584  0403  00D2               	movwf	int2bcd@number+1
  3585  0404  0848               	movf	_state_machine,w
  3586  0405  00E4               	movwf	??_main
  3587  0406  0864               	movf	??_main,w
  3588  0407  00D3               	movwf	int2bcd@comma
  3589  0408  3184  2418  3182   	fcall	_int2bcd
  3590  040B                     __ccov111_end_blk106:
  3591  040B                     __ccov112_start_blk107:
  3592  040B                     l3256:
  3593  040B  1471               	bsf	__ccovbit107_12/(0+8),__ccovbit107_12& (0+7)	;volatile
  3594                           
  3595                           ;main.c: 310:                 write2display_copy = state_machine;
  3596  040C  0020               	movlb	0	; select bank0
  3597  040D  0848               	movf	_state_machine,w
  3598  040E  00E4               	movwf	??_main
  3599  040F  0864               	movf	??_main,w
  3600  0410  00E6               	movwf	main@write2display_copy
  3601  0411                     __ccov112_end_blk107:
  3602  0411                     __ccov113_start_blk110:
  3603  0411                     l3258:
  3604  0411  17F0               	bsf	__ccovbit110_13/(0+8),__ccovbit110_13& (0+7)	;volatile
  3605                           
  3606                           ;main.c: 314:         checkState1();
  3607  0412  3180  2096  3182   	fcall	_checkState1
  3608  0415  2BE9               	goto	l203
  3609  0416                     __ccov113_end_blk110:
  3610  0416  3180  2871         	ljmp	start
  3611  0418                     __end_of_main:
  3612                           
  3613                           	psect	text1
  3614  0F59                     __ptext1:	
  3615 ;; *************** function _timer2_init *****************
  3616 ;; Defined at:
  3617 ;;		line 409 in file "main.c"
  3618 ;; Parameters:    Size  Location     Type
  3619 ;;		None
  3620 ;; Auto vars:     Size  Location     Type
  3621 ;;		None
  3622 ;; Return value:  Size  Location     Type
  3623 ;;                  1    wreg      void 
  3624 ;; Registers used:
  3625 ;;		wreg, status,2, status,0
  3626 ;; Tracked objects:
  3627 ;;		On entry : 0/0
  3628 ;;		On exit  : 0/0
  3629 ;;		Unchanged: 0/0
  3630 ;; Data sizes:     COMMON   BANK0   BANK1   BANK2   BANK3   BANK4   BANK5   BANK6   BANK7   BANK8   BANK9  BANK10  BANK1
      +1  BANK12
  3631 ;;      Params:         0       0       0       0       0       0       0       0       0       0       0       0       
      +0       0
  3632 ;;      Locals:         0       0       0       0       0       0       0       0       0       0       0       0       
      +0       0
  3633 ;;      Temps:          0       0       0       0       0       0       0       0       0       0       0       0       
      +0       0
  3634 ;;      Totals:         0       0       0       0       0       0       0       0       0       0       0       0       
      +0       0
  3635 ;;Total ram usage:        0 bytes
  3636 ;; Hardware stack levels used: 1
  3637 ;; Hardware stack levels required when called: 1
  3638 ;; This function calls:
  3639 ;;		Nothing
  3640 ;; This function is called by:
  3641 ;;		_main
  3642 ;; This function uses a non-reentrant model
  3643 ;;
  3644                           
  3645                           
  3646                           ;psect for function _timer2_init
  3647  0F59                     _timer2_init:
  3648                           
  3649                           ;incstack = 0
  3650                           ; Regs used in _timer2_init: [wreg+status,2+status,0]
  3651  0F59                     l2176:
  3652                           
  3653                           ;main.c: 411:     T2CONbits.T2OUTPS = 0b1111;
  3654  0F59  3078               	movlw	120
  3655  0F5A  0020               	movlb	0	; select bank0
  3656  0F5B  049C               	iorwf	28,f	;volatile
  3657  0F5C                     __ccov131_end_blk0:
  3658  0F5C                     __ccov132_start_blk1:
  3659  0F5C                     l2178:
  3660                           
  3661                           ;main.c: 412:     T2CONbits.TMR2ON = 1;
  3662  0F5C  151C               	bsf	28,2	;volatile
  3663                           
  3664                           ;main.c: 414:     T2CONbits.T2CKPS = 0b10;
  3665  0F5D  081C               	movf	28,w	;volatile
  3666  0F5E  39FC               	andlw	-4
  3667  0F5F  3802               	iorlw	2
  3668  0F60  009C               	movwf	28	;volatile
  3669                           
  3670                           ;main.c: 415:     T2CONbits.T2OUTPS = 0b111;
  3671  0F61  081C               	movf	28,w	;volatile
  3672  0F62  3987               	andlw	-121
  3673  0F63  3838               	iorlw	56
  3674  0F64  009C               	movwf	28	;volatile
  3675  0F65                     __ccov132_end_blk1:
  3676  0F65                     __ccov133_start_blk2:
  3677  0F65                     l2180:
  3678                           
  3679                           ;main.c: 416:     T2CONbits.TMR2ON = 1;
  3680  0F65  151C               	bsf	28,2	;volatile
  3681  0F66                     __ccov133_end_blk2:
  3682  0F66                     __ccov134_start_blk3:
  3683  0F66                     l222:
  3684  0F66  1570               	bsf	__ccovbit3_18/(0+8),__ccovbit3_18& (0+7)	;volatile
  3685  0F67  0008               	return
  3686  0F68                     __end_of_timer2_init:
  3687  0F68                     
  3688                           	psect	text2
  3689  0FAA                     __ptext2:	
  3690 ;; *************** function _spi1_init *****************
  3691 ;; Defined at:
  3692 ;;		line 26 in file "spi.c"
  3693 ;; Parameters:    Size  Location     Type
  3694 ;;		None
  3695 ;; Auto vars:     Size  Location     Type
  3696 ;;		None
  3697 ;; Return value:  Size  Location     Type
  3698 ;;                  1    wreg      void 
  3699 ;; Registers used:
  3700 ;;		wreg, status,2, status,0
  3701 ;; Tracked objects:
  3702 ;;		On entry : 0/0
  3703 ;;		On exit  : 0/0
  3704 ;;		Unchanged: 0/0
  3705 ;; Data sizes:     COMMON   BANK0   BANK1   BANK2   BANK3   BANK4   BANK5   BANK6   BANK7   BANK8   BANK9  BANK10  BANK1
      +1  BANK12
  3706 ;;      Params:         0       0       0       0       0       0       0       0       0       0       0       0       
      +0       0
  3707 ;;      Locals:         0       0       0       0       0       0       0       0       0       0       0       0       
      +0       0
  3708 ;;      Temps:          0       0       0       0       0       0       0       0       0       0       0       0       
      +0       0
  3709 ;;      Totals:         0       0       0       0       0       0       0       0       0       0       0       0       
      +0       0
  3710 ;;Total ram usage:        0 bytes
  3711 ;; Hardware stack levels used: 1
  3712 ;; Hardware stack levels required when called: 1
  3713 ;; This function calls:
  3714 ;;		Nothing
  3715 ;; This function is called by:
  3716 ;;		_main
  3717 ;; This function uses a non-reentrant model
  3718 ;;
  3719                           
  3720                           
  3721                           ;psect for function _spi1_init
  3722  0FAA                     _spi1_init:
  3723                           
  3724                           ;incstack = 0
  3725                           ; Regs used in _spi1_init: [wreg+status,2+status,0]
  3726  0FAA                     l2182:
  3727                           
  3728                           ;spi.c: 33:     SSP1STATbits.SMP = 1;
  3729  0FAA  0024               	movlb	4	; select bank4
  3730  0FAB  1794               	bsf	20,7	;volatile
  3731                           
  3732                           ;spi.c: 34:     SSP1STATbits.CKE = 1;
  3733  0FAC  1714               	bsf	20,6	;volatile
  3734  0FAD                     __ccov261_end_blk0:
  3735  0FAD                     __ccov262_start_blk1:
  3736  0FAD                     l2184:
  3737                           
  3738                           ;spi.c: 37:     SSP1CON1bits.SSPM = 0x01;
  3739  0FAD  0815               	movf	21,w	;volatile
  3740  0FAE  39F0               	andlw	-16
  3741  0FAF  3801               	iorlw	1
  3742  0FB0  0095               	movwf	21	;volatile
  3743  0FB1                     __ccov262_end_blk1:
  3744  0FB1                     __ccov263_start_blk2:
  3745  0FB1                     l2186:
  3746                           
  3747                           ;spi.c: 38:     SSP1CON1bits.CKP = 0;
  3748  0FB1  1215               	bcf	21,4	;volatile
  3749  0FB2                     __ccov263_end_blk2:
  3750  0FB2                     __ccov264_start_blk3:
  3751  0FB2                     l2188:
  3752                           
  3753                           ;spi.c: 56:     SSP1CON1 = 0b00000001;
  3754  0FB2  3001               	movlw	1
  3755  0FB3  0095               	movwf	21	;volatile
  3756  0FB4                     __ccov264_end_blk3:
  3757  0FB4                     __ccov265_start_blk4:
  3758  0FB4                     l2190:
  3759                           
  3760                           ;spi.c: 58:     PIR1bits.TMR2IF = 0;
  3761  0FB4  0020               	movlb	0	; select bank0
  3762  0FB5  1091               	bcf	17,1	;volatile
  3763  0FB6                     __ccov265_end_blk4:
  3764  0FB6                     __ccov266_start_blk5:
  3765  0FB6                     l2192:
  3766                           
  3767                           ;spi.c: 60:     PWM1CONbits.P1RSEN = 1;
  3768  0FB6  0025               	movlb	5	; select bank5
  3769  0FB7  1794               	bsf	20,7	;volatile
  3770  0FB8                     __ccov266_end_blk5:
  3771  0FB8                     __ccov267_start_blk6:
  3772  0FB8                     l2194:
  3773                           
  3774                           ;spi.c: 61:     SSP1CON1bits.SSPEN = 1;
  3775  0FB8  0024               	movlb	4	; select bank4
  3776  0FB9  1695               	bsf	21,5	;volatile
  3777  0FBA                     __ccov267_end_blk6:
  3778  0FBA                     __ccov268_start_blk7:
  3779  0FBA                     l397:
  3780  0FBA  0020               	movlb	0	; select bank0
  3781  0FBB  1522               	bsf	__ccovbit7_64/(0+8),__ccovbit7_64& (0+7)	;volatile
  3782  0FBC  0008               	return
  3783  0FBD                     __end_of_spi1_init:
  3784  0FBD                     
  3785                           	psect	text3
  3786  0418                     __ptext3:	
  3787 ;; *************** function _int2bcd *****************
  3788 ;; Defined at:
  3789 ;;		line 19 in file "Click_7Seg.c"
  3790 ;; Parameters:    Size  Location     Type
  3791 ;;  number          2    5[BANK0 ] int 
  3792 ;;  comma           1    7[BANK0 ] unsigned char 
  3793 ;; Auto vars:     Size  Location     Type
  3794 ;;		None
  3795 ;; Return value:  Size  Location     Type
  3796 ;;                  1    wreg      void 
  3797 ;; Registers used:
  3798 ;;		wreg, fsr0l, fsr0h, status,2, status,0, pclath, cstack
  3799 ;; Tracked objects:
  3800 ;;		On entry : 0/0
  3801 ;;		On exit  : 0/0
  3802 ;;		Unchanged: 0/0
  3803 ;; Data sizes:     COMMON   BANK0   BANK1   BANK2   BANK3   BANK4   BANK5   BANK6   BANK7   BANK8   BANK9  BANK10  BANK1
      +1  BANK12
  3804 ;;      Params:         0       3       0       0       0       0       0       0       0       0       0       0       
      +0       0
  3805 ;;      Locals:         0       0       0       0       0       0       0       0       0       0       0       0       
      +0       0
  3806 ;;      Temps:          0       2       0       0       0       0       0       0       0       0       0       0       
      +0       0
  3807 ;;      Totals:         0       5       0       0       0       0       0       0       0       0       0       0       
      +0       0
  3808 ;;Total ram usage:        5 bytes
  3809 ;; Hardware stack levels used: 1
  3810 ;; Hardware stack levels required when called: 3
  3811 ;; This function calls:
  3812 ;;		___awdiv
  3813 ;;		___awmod
  3814 ;;		_spi1_send
  3815 ;; This function is called by:
  3816 ;;		_main
  3817 ;; This function uses a non-reentrant model
  3818 ;;
  3819                           
  3820                           
  3821                           ;psect for function _int2bcd
  3822  0418                     _int2bcd:
  3823                           
  3824                           ;incstack = 0
  3825                           ; Regs used in _int2bcd: [wreg-fsr0h+status,2+status,0+pclath+cstack]
  3826  0418                     l2890:
  3827                           
  3828                           ;Click_7Seg.c: 24:     if (number < 100)
  3829  0418  0020               	movlb	0	; select bank0
  3830  0419  0852               	movf	int2bcd@number+1,w
  3831  041A  3A80               	xorlw	128
  3832  041B  00D4               	movwf	??_int2bcd
  3833  041C  3080               	movlw	128
  3834  041D  0254               	subwf	??_int2bcd,w
  3835  041E  1D03               	skipz
  3836  041F  2C22               	goto	u1375
  3837  0420  3064               	movlw	100
  3838  0421  0251               	subwf	int2bcd@number,w
  3839  0422                     u1375:
  3840  0422  1803               	skipnc
  3841  0423  2C25               	goto	u1371
  3842  0424  2C26               	goto	u1370
  3843  0425                     u1371:
  3844  0425  2C96               	goto	l2898
  3845  0426                     __ccov1_end_blk0:
  3846  0426                     u1370:
  3847  0426                     __ccov2_start_blk1:
  3848  0426                     l2892:
  3849                           
  3850                           ;Click_7Seg.c: 25:         if (comma == 1)
  3851  0426  0020               	movlb	0	; select bank0
  3852  0427  0353               	decf	int2bcd@comma,w
  3853  0428  1D03               	btfss	3,2
  3854  0429  2C2B               	goto	u1381
  3855  042A  2C2C               	goto	u1380
  3856  042B                     u1381:
  3857  042B  2C65               	goto	l2896
  3858  042C                     __ccov2_end_blk1:
  3859  042C                     u1380:
  3860  042C                     __ccov3_start_blk2:
  3861  042C                     l2894:
  3862  042C  15F2               	bsf	__ccovbit2_1/(0+8),__ccovbit2_1& (0+7)	;volatile
  3863                           
  3864                           ;Click_7Seg.c: 26:             spi1_send((C7SEG_CHAR_TABLE[(number/10)+3] | C7SEG_CHAR_T
      +                          ABLE[1]) ,C7SEG_CHAR_TABLE[(number%10)+3]);
  3865  042D  300A               	movlw	10
  3866  042E  00F5               	movwf	___awmod@divisor
  3867  042F  3000               	movlw	0
  3868  0430  00F6               	movwf	___awmod@divisor+1
  3869  0431  0852               	movf	int2bcd@number+1,w
  3870  0432  00F8               	movwf	___awmod@dividend+1
  3871  0433  0851               	movf	int2bcd@number,w
  3872  0434  00F7               	movwf	___awmod@dividend
  3873  0435  3185  25FB  3184   	fcall	___awmod
  3874  0438  0876               	movf	?___awmod+1,w
  3875  0439  0085               	movwf	5
  3876  043A  0875               	movf	?___awmod,w
  3877  043B  0084               	movwf	4
  3878  043C  3043               	movlw	low ((_C7SEG_CHAR_TABLE+3)| (0+32768))
  3879  043D  0784               	addwf	4,f
  3880  043E  3087               	movlw	high ((_C7SEG_CHAR_TABLE+3)| (0+32768))
  3881  043F  3D85               	addwfc	5,f
  3882  0440  0800               	movf	0,w	;code access
  3883  0441  0020               	movlb	0	; select bank0
  3884  0442  00D4               	movwf	??_int2bcd
  3885  0443  0854               	movf	??_int2bcd,w
  3886  0444  00FC               	movwf	spi1_send@data2
  3887  0445  3041               	movlw	low ((_C7SEG_CHAR_TABLE+1)| (0+32768))
  3888  0446  0084               	movwf	4
  3889  0447  3087               	movlw	high ((_C7SEG_CHAR_TABLE+1)| (0+32768))
  3890  0448  0085               	movwf	5
  3891  0449  0800               	movf	0,w	;code access
  3892  044A  00D5               	movwf	??_int2bcd+1
  3893  044B  300A               	movlw	10
  3894  044C  00F5               	movwf	___awdiv@divisor
  3895  044D  3000               	movlw	0
  3896  044E  00F6               	movwf	___awdiv@divisor+1
  3897  044F  0852               	movf	int2bcd@number+1,w
  3898  0450  00F8               	movwf	___awdiv@dividend+1
  3899  0451  0851               	movf	int2bcd@number,w
  3900  0452  00F7               	movwf	___awdiv@dividend
  3901  0453  3185  259B  3184   	fcall	___awdiv
  3902  0456  0876               	movf	?___awdiv+1,w
  3903  0457  0085               	movwf	5
  3904  0458  0875               	movf	?___awdiv,w
  3905  0459  0084               	movwf	4
  3906  045A  3043               	movlw	low ((_C7SEG_CHAR_TABLE+3)| (0+32768))
  3907  045B  0784               	addwf	4,f
  3908  045C  3087               	movlw	high ((_C7SEG_CHAR_TABLE+3)| (0+32768))
  3909  045D  3D85               	addwfc	5,f
  3910  045E  0800               	movf	0,w	;code access
  3911  045F  0020               	movlb	0	; select bank0
  3912  0460  0455               	iorwf	??_int2bcd+1,w
  3913  0461  318F  27DC  3184   	fcall	_spi1_send
  3914  0464  2CA0               	goto	l15
  3915  0465                     __ccov3_end_blk2:
  3916  0465                     __ccov4_start_blk4:
  3917  0465                     l2896:
  3918  0465  1572               	bsf	__ccovbit4_2/(0+8),__ccovbit4_2& (0+7)	;volatile
  3919                           
  3920                           ;Click_7Seg.c: 28:             spi1_send(C7SEG_CHAR_TABLE[(number/10)+3],C7SEG_CHAR_TABL
      +                          E[(number%10)+3]);
  3921  0466  300A               	movlw	10
  3922  0467  00F5               	movwf	___awmod@divisor
  3923  0468  3000               	movlw	0
  3924  0469  00F6               	movwf	___awmod@divisor+1
  3925  046A  0852               	movf	int2bcd@number+1,w
  3926  046B  00F8               	movwf	___awmod@dividend+1
  3927  046C  0851               	movf	int2bcd@number,w
  3928  046D  00F7               	movwf	___awmod@dividend
  3929  046E  3185  25FB  3184   	fcall	___awmod
  3930  0471  0876               	movf	?___awmod+1,w
  3931  0472  0085               	movwf	5
  3932  0473  0875               	movf	?___awmod,w
  3933  0474  0084               	movwf	4
  3934  0475  3043               	movlw	low ((_C7SEG_CHAR_TABLE+3)| (0+32768))
  3935  0476  0784               	addwf	4,f
  3936  0477  3087               	movlw	high ((_C7SEG_CHAR_TABLE+3)| (0+32768))
  3937  0478  3D85               	addwfc	5,f
  3938  0479  0800               	movf	0,w	;code access
  3939  047A  0020               	movlb	0	; select bank0
  3940  047B  00D4               	movwf	??_int2bcd
  3941  047C  0854               	movf	??_int2bcd,w
  3942  047D  00FC               	movwf	spi1_send@data2
  3943  047E  300A               	movlw	10
  3944  047F  00F5               	movwf	___awdiv@divisor
  3945  0480  3000               	movlw	0
  3946  0481  00F6               	movwf	___awdiv@divisor+1
  3947  0482  0852               	movf	int2bcd@number+1,w
  3948  0483  00F8               	movwf	___awdiv@dividend+1
  3949  0484  0851               	movf	int2bcd@number,w
  3950  0485  00F7               	movwf	___awdiv@dividend
  3951  0486  3185  259B  3184   	fcall	___awdiv
  3952  0489  0876               	movf	?___awdiv+1,w
  3953  048A  0085               	movwf	5
  3954  048B  0875               	movf	?___awdiv,w
  3955  048C  0084               	movwf	4
  3956  048D  3043               	movlw	low ((_C7SEG_CHAR_TABLE+3)| (0+32768))
  3957  048E  0784               	addwf	4,f
  3958  048F  3087               	movlw	high ((_C7SEG_CHAR_TABLE+3)| (0+32768))
  3959  0490  3D85               	addwfc	5,f
  3960  0491  0800               	movf	0,w	;code access
  3961  0492  318F  27DC  3184   	fcall	_spi1_send
  3962  0495  2CA0               	goto	l15
  3963  0496                     __ccov4_end_blk4:
  3964  0496                     __ccov5_start_blk7:
  3965  0496                     l2898:
  3966  0496  14F2               	bsf	__ccovbit7_3/(0+8),__ccovbit7_3& (0+7)	;volatile
  3967                           
  3968                           ;Click_7Seg.c: 30:         spi1_send(0xF4, 0x64);
  3969  0497  3064               	movlw	100
  3970  0498  0020               	movlb	0	; select bank0
  3971  0499  00D4               	movwf	??_int2bcd
  3972  049A  0854               	movf	??_int2bcd,w
  3973  049B  00FC               	movwf	spi1_send@data2
  3974  049C  30F4               	movlw	244
  3975  049D  318F  27DC  3184   	fcall	_spi1_send
  3976  04A0                     __ccov5_end_blk7:
  3977  04A0                     __ccov6_start_blk9:
  3978  04A0                     l15:
  3979  04A0  1472               	bsf	__ccovbit9_4/(0+8),__ccovbit9_4& (0+7)	;volatile
  3980  04A1  0008               	return
  3981  04A2                     __end_of_int2bcd:
  3982  04A2                     
  3983                           	psect	text4
  3984  0FDC                     __ptext4:	
  3985 ;; *************** function _spi1_send *****************
  3986 ;; Defined at:
  3987 ;;		line 66 in file "spi.c"
  3988 ;; Parameters:    Size  Location     Type
  3989 ;;  data1           1    wreg     unsigned char 
  3990 ;;  data2           1    9[COMMON] unsigned char 
  3991 ;; Auto vars:     Size  Location     Type
  3992 ;;  data1           1    4[BANK0 ] unsigned char 
  3993 ;; Return value:  Size  Location     Type
  3994 ;;                  1    wreg      void 
  3995 ;; Registers used:
  3996 ;;		wreg, status,2, status,0, pclath, cstack
  3997 ;; Tracked objects:
  3998 ;;		On entry : 0/0
  3999 ;;		On exit  : 0/0
  4000 ;;		Unchanged: 0/0
  4001 ;; Data sizes:     COMMON   BANK0   BANK1   BANK2   BANK3   BANK4   BANK5   BANK6   BANK7   BANK8   BANK9  BANK10  BANK1
      +1  BANK12
  4002 ;;      Params:         1       0       0       0       0       0       0       0       0       0       0       0       
      +0       0
  4003 ;;      Locals:         0       1       0       0       0       0       0       0       0       0       0       0       
      +0       0
  4004 ;;      Temps:          0       0       0       0       0       0       0       0       0       0       0       0       
      +0       0
  4005 ;;      Totals:         1       1       0       0       0       0       0       0       0       0       0       0       
      +0       0
  4006 ;;Total ram usage:        2 bytes
  4007 ;; Hardware stack levels used: 1
  4008 ;; Hardware stack levels required when called: 2
  4009 ;; This function calls:
  4010 ;;		_Click_latch_data
  4011 ;; This function is called by:
  4012 ;;		_int2bcd
  4013 ;;		_main
  4014 ;; This function uses a non-reentrant model
  4015 ;;
  4016                           
  4017                           
  4018                           ;psect for function _spi1_send
  4019  0FDC                     _spi1_send:
  4020                           
  4021                           ;incstack = 0
  4022                           ; Regs used in _spi1_send: [wreg+status,2+status,0+pclath+cstack]
  4023                           ;spi1_send@data1 stored from wreg
  4024  0FDC  0020               	movlb	0	; select bank0
  4025  0FDD  00D0               	movwf	spi1_send@data1
  4026  0FDE                     l1990:
  4027                           
  4028                           ;spi.c: 74:     SSP1BUF = data2;
  4029  0FDE  087C               	movf	spi1_send@data2,w
  4030  0FDF  0024               	movlb	4	; select bank4
  4031  0FE0  0091               	movwf	17	;volatile
  4032  0FE1                     __ccov269_end_blk0:
  4033  0FE1                     __ccov270_start_blk1:
  4034  0FE1                     l1992:
  4035                           
  4036                           ;spi.c: 77:     LATCbits.LATC1 = 1;
  4037  0FE1  0022               	movlb	2	; select bank2
  4038  0FE2  148E               	bsf	14,1	;volatile
  4039                           
  4040                           ;spi.c: 78:     _delay((unsigned long)((10)*(16000000/4000000.0)));
  4041  0FE3  300D               	movlw	13
  4042  0FE4                     u1547:
  4043  0FE4  0B89               	decfsz	9,f
  4044  0FE5  2FE4               	goto	u1547
  4045  0FE6  0000               	nop
  4046  0FE7                     __ccov270_end_blk1:
  4047  0FE7                     __ccov271_start_blk2:
  4048  0FE7                     l1994:
  4049                           
  4050                           ;spi.c: 79:     LATCbits.LATC1 = 0;
  4051  0FE7  0022               	movlb	2	; select bank2
  4052  0FE8  108E               	bcf	14,1	;volatile
  4053                           
  4054                           ;spi.c: 82:     SSP1BUF = data1;
  4055  0FE9  0020               	movlb	0	; select bank0
  4056  0FEA  0850               	movf	spi1_send@data1,w
  4057  0FEB  0024               	movlb	4	; select bank4
  4058  0FEC  0091               	movwf	17	;volatile
  4059  0FED                     __ccov271_end_blk2:
  4060  0FED                     __ccov272_start_blk4:
  4061  0FED                     l400:	
  4062                           ;spi.c: 83:     while(!SSP1STATbits.BF);
  4063                           
  4064  0FED  1C14               	btfss	20,0	;volatile
  4065  0FEE  2FF0               	goto	u611
  4066  0FEF  2FF1               	goto	u610
  4067  0FF0                     u611:
  4068  0FF0  2FED               	goto	l400
  4069  0FF1                     __ccov272_end_blk4:
  4070  0FF1                     u610:
  4071  0FF1                     __ccov273_start_blk6:
  4072  0FF1                     l1996:
  4073                           
  4074                           ;spi.c: 84:     SSP1BUF;
  4075  0FF1  0811               	movf	17,w	;volatile
  4076  0FF2                     __ccov273_end_blk6:
  4077  0FF2                     __ccov274_start_blk7:
  4078  0FF2                     l1998:
  4079                           
  4080                           ;spi.c: 86:     LATCbits.LATC1 = 1;
  4081  0FF2  0022               	movlb	2	; select bank2
  4082  0FF3  148E               	bsf	14,1	;volatile
  4083                           
  4084                           ;spi.c: 87:     _delay((unsigned long)((10)*(16000000/4000000.0)));
  4085  0FF4  300D               	movlw	13
  4086  0FF5                     u1557:
  4087  0FF5  0B89               	decfsz	9,f
  4088  0FF6  2FF5               	goto	u1557
  4089  0FF7  0000               	nop
  4090  0FF8                     __ccov274_end_blk7:
  4091  0FF8                     __ccov275_start_blk8:
  4092  0FF8                     l2000:
  4093                           
  4094                           ;spi.c: 88:     LATCbits.LATC1 = 0;
  4095  0FF8  0022               	movlb	2	; select bank2
  4096  0FF9  108E               	bcf	14,1	;volatile
  4097  0FFA                     __ccov275_end_blk8:
  4098  0FFA                     __ccov276_start_blk9:
  4099  0FFA                     l2002:
  4100                           
  4101                           ;spi.c: 92:     Click_latch_data();
  4102  0FFA  318F  2723  318F   	fcall	_Click_latch_data
  4103  0FFD                     __ccov276_end_blk9:
  4104  0FFD                     __ccov277_start_blk10:
  4105  0FFD                     l403:
  4106  0FFD  0020               	movlb	0	; select bank0
  4107  0FFE  14A2               	bsf	__ccovbit10_65/(0+8),__ccovbit10_65& (0+7)	;volatile
  4108  0FFF  0008               	return
  4109  1000                     __end_of_spi1_send:
  4110  1000                     
  4111                           	psect	text5
  4112  0F23                     __ptext5:	
  4113 ;; *************** function _Click_latch_data *****************
  4114 ;; Defined at:
  4115 ;;		line 41 in file "Click_7Seg.c"
  4116 ;; Parameters:    Size  Location     Type
  4117 ;;		None
  4118 ;; Auto vars:     Size  Location     Type
  4119 ;;		None
  4120 ;; Return value:  Size  Location     Type
  4121 ;;                  1    wreg      void 
  4122 ;; Registers used:
  4123 ;;		None
  4124 ;; Tracked objects:
  4125 ;;		On entry : 0/0
  4126 ;;		On exit  : 0/0
  4127 ;;		Unchanged: 0/0
  4128 ;; Data sizes:     COMMON   BANK0   BANK1   BANK2   BANK3   BANK4   BANK5   BANK6   BANK7   BANK8   BANK9  BANK10  BANK1
      +1  BANK12
  4129 ;;      Params:         0       0       0       0       0       0       0       0       0       0       0       0       
      +0       0
  4130 ;;      Locals:         0       0       0       0       0       0       0       0       0       0       0       0       
      +0       0
  4131 ;;      Temps:          0       0       0       0       0       0       0       0       0       0       0       0       
      +0       0
  4132 ;;      Totals:         0       0       0       0       0       0       0       0       0       0       0       0       
      +0       0
  4133 ;;Total ram usage:        0 bytes
  4134 ;; Hardware stack levels used: 1
  4135 ;; Hardware stack levels required when called: 1
  4136 ;; This function calls:
  4137 ;;		Nothing
  4138 ;; This function is called by:
  4139 ;;		_main
  4140 ;;		_spi1_send
  4141 ;; This function uses a non-reentrant model
  4142 ;;
  4143                           
  4144                           
  4145                           ;psect for function _Click_latch_data
  4146  0F23                     _Click_latch_data:
  4147                           
  4148                           ;incstack = 0
  4149                           ; Regs used in _Click_latch_data: []
  4150  0F23                     l1972:
  4151                           
  4152                           ;Click_7Seg.c: 45:     LATCbits.LATC6 = 1;
  4153  0F23  0022               	movlb	2	; select bank2
  4154  0F24  170E               	bsf	14,6	;volatile
  4155                           
  4156                           ;Click_7Seg.c: 46:     LATCbits.LATC6 = 0;
  4157  0F25  130E               	bcf	14,6	;volatile
  4158  0F26                     __ccov9_end_blk0:
  4159  0F26                     __ccov10_start_blk1:
  4160  0F26                     l21:
  4161  0F26  1771               	bsf	__ccovbit1_6/(0+8),__ccovbit1_6& (0+7)	;volatile
  4162  0F27  0008               	return
  4163  0F28                     __end_of_Click_latch_data:
  4164  0F28                     
  4165                           	psect	text6
  4166  05FB                     __ptext6:	
  4167 ;; *************** function ___awmod *****************
  4168 ;; Defined at:
  4169 ;;		line 5 in file "C:\Program Files\Microchip\xc8\v2.32\pic\sources\c99\common\awmod.c"
  4170 ;; Parameters:    Size  Location     Type
  4171 ;;  divisor         2    2[COMMON] int 
  4172 ;;  dividend        2    4[COMMON] int 
  4173 ;; Auto vars:     Size  Location     Type
  4174 ;;  sign            1    8[COMMON] unsigned char 
  4175 ;;  counter         1    7[COMMON] unsigned char 
  4176 ;; Return value:  Size  Location     Type
  4177 ;;                  2    2[COMMON] int 
  4178 ;; Registers used:
  4179 ;;		wreg, status,2, status,0
  4180 ;; Tracked objects:
  4181 ;;		On entry : 0/0
  4182 ;;		On exit  : 0/0
  4183 ;;		Unchanged: 0/0
  4184 ;; Data sizes:     COMMON   BANK0   BANK1   BANK2   BANK3   BANK4   BANK5   BANK6   BANK7   BANK8   BANK9  BANK10  BANK1
      +1  BANK12
  4185 ;;      Params:         4       0       0       0       0       0       0       0       0       0       0       0       
      +0       0
  4186 ;;      Locals:         2       0       0       0       0       0       0       0       0       0       0       0       
      +0       0
  4187 ;;      Temps:          1       0       0       0       0       0       0       0       0       0       0       0       
      +0       0
  4188 ;;      Totals:         7       0       0       0       0       0       0       0       0       0       0       0       
      +0       0
  4189 ;;Total ram usage:        7 bytes
  4190 ;; Hardware stack levels used: 1
  4191 ;; Hardware stack levels required when called: 1
  4192 ;; This function calls:
  4193 ;;		Nothing
  4194 ;; This function is called by:
  4195 ;;		_int2bcd
  4196 ;; This function uses a non-reentrant model
  4197 ;;
  4198                           
  4199                           
  4200                           ;psect for function ___awmod
  4201  05FB                     ___awmod:
  4202  05FB                     l2126:	
  4203                           ;incstack = 0
  4204                           ; Regs used in ___awmod: [wreg+status,2+status,0]
  4205                           
  4206  05FB  01FB               	clrf	___awmod@sign
  4207  05FC                     l2128:
  4208  05FC  1FF8               	btfss	___awmod@dividend+1,7
  4209  05FD  2DFF               	goto	u831
  4210  05FE  2E00               	goto	u830
  4211  05FF                     u831:
  4212  05FF  2E07               	goto	l2134
  4213  0600                     u830:
  4214  0600                     l2130:
  4215  0600  09F7               	comf	___awmod@dividend,f
  4216  0601  09F8               	comf	___awmod@dividend+1,f
  4217  0602  0AF7               	incf	___awmod@dividend,f
  4218  0603  1903               	skipnz
  4219  0604  0AF8               	incf	___awmod@dividend+1,f
  4220  0605                     l2132:
  4221  0605  01FB               	clrf	___awmod@sign
  4222  0606  0AFB               	incf	___awmod@sign,f
  4223  0607                     l2134:
  4224  0607  1FF6               	btfss	___awmod@divisor+1,7
  4225  0608  2E0A               	goto	u841
  4226  0609  2E0B               	goto	u840
  4227  060A                     u841:
  4228  060A  2E10               	goto	l2138
  4229  060B                     u840:
  4230  060B                     l2136:
  4231  060B  09F5               	comf	___awmod@divisor,f
  4232  060C  09F6               	comf	___awmod@divisor+1,f
  4233  060D  0AF5               	incf	___awmod@divisor,f
  4234  060E  1903               	skipnz
  4235  060F  0AF6               	incf	___awmod@divisor+1,f
  4236  0610                     l2138:
  4237  0610  0875               	movf	___awmod@divisor,w
  4238  0611  0476               	iorwf	___awmod@divisor+1,w
  4239  0612  1903               	btfsc	3,2
  4240  0613  2E15               	goto	u851
  4241  0614  2E16               	goto	u850
  4242  0615                     u851:
  4243  0615  2E3F               	goto	l2156
  4244  0616                     u850:
  4245  0616                     l2140:
  4246  0616  01FA               	clrf	___awmod@counter
  4247  0617  0AFA               	incf	___awmod@counter,f
  4248  0618  2E22               	goto	l2146
  4249  0619                     l2142:
  4250  0619  3001               	movlw	1
  4251  061A                     u865:
  4252  061A  35F5               	lslf	___awmod@divisor,f
  4253  061B  0DF6               	rlf	___awmod@divisor+1,f
  4254  061C  0B89               	decfsz	9,f
  4255  061D  2E1A               	goto	u865
  4256  061E                     l2144:
  4257  061E  3001               	movlw	1
  4258  061F  00F9               	movwf	??___awmod
  4259  0620  0879               	movf	??___awmod,w
  4260  0621  07FA               	addwf	___awmod@counter,f
  4261  0622                     l2146:
  4262  0622  1FF6               	btfss	___awmod@divisor+1,7
  4263  0623  2E25               	goto	u871
  4264  0624  2E26               	goto	u870
  4265  0625                     u871:
  4266  0625  2E19               	goto	l2142
  4267  0626                     u870:
  4268  0626                     l2148:
  4269  0626  0876               	movf	___awmod@divisor+1,w
  4270  0627  0278               	subwf	___awmod@dividend+1,w
  4271  0628  1D03               	skipz
  4272  0629  2E2C               	goto	u885
  4273  062A  0875               	movf	___awmod@divisor,w
  4274  062B  0277               	subwf	___awmod@dividend,w
  4275  062C                     u885:
  4276  062C  1C03               	skipc
  4277  062D  2E2F               	goto	u881
  4278  062E  2E30               	goto	u880
  4279  062F                     u881:
  4280  062F  2E34               	goto	l2152
  4281  0630                     u880:
  4282  0630                     l2150:
  4283  0630  0875               	movf	___awmod@divisor,w
  4284  0631  02F7               	subwf	___awmod@dividend,f
  4285  0632  0876               	movf	___awmod@divisor+1,w
  4286  0633  3BF8               	subwfb	___awmod@dividend+1,f
  4287  0634                     l2152:
  4288  0634  3001               	movlw	1
  4289  0635                     u895:
  4290  0635  36F6               	lsrf	___awmod@divisor+1,f
  4291  0636  0CF5               	rrf	___awmod@divisor,f
  4292  0637  0B89               	decfsz	9,f
  4293  0638  2E35               	goto	u895
  4294  0639                     l2154:
  4295  0639  3001               	movlw	1
  4296  063A  02FA               	subwf	___awmod@counter,f
  4297  063B  1D03               	btfss	3,2
  4298  063C  2E3E               	goto	u901
  4299  063D  2E3F               	goto	u900
  4300  063E                     u901:
  4301  063E  2E26               	goto	l2148
  4302  063F                     u900:
  4303  063F                     l2156:
  4304  063F  087B               	movf	___awmod@sign,w
  4305  0640  1903               	btfsc	3,2
  4306  0641  2E43               	goto	u911
  4307  0642  2E44               	goto	u910
  4308  0643                     u911:
  4309  0643  2E49               	goto	l2160
  4310  0644                     u910:
  4311  0644                     l2158:
  4312  0644  09F7               	comf	___awmod@dividend,f
  4313  0645  09F8               	comf	___awmod@dividend+1,f
  4314  0646  0AF7               	incf	___awmod@dividend,f
  4315  0647  1903               	skipnz
  4316  0648  0AF8               	incf	___awmod@dividend+1,f
  4317  0649                     l2160:
  4318  0649  0878               	movf	___awmod@dividend+1,w
  4319  064A  00F6               	movwf	?___awmod+1
  4320  064B  0877               	movf	___awmod@dividend,w
  4321  064C  00F5               	movwf	?___awmod
  4322  064D                     l790:
  4323  064D  0008               	return
  4324  064E                     __end_of___awmod:
  4325                           
  4326                           	psect	text7
  4327  0096                     __ptext7:	
  4328 ;; *************** function _checkState1 *****************
  4329 ;; Defined at:
  4330 ;;		line 41 in file "statemachine.c"
  4331 ;; Parameters:    Size  Location     Type
  4332 ;;		None
  4333 ;; Auto vars:     Size  Location     Type
  4334 ;;		None
  4335 ;; Return value:  Size  Location     Type
  4336 ;;                  1    wreg      void 
  4337 ;; Registers used:
  4338 ;;		wreg, fsr0l, fsr0h, fsr1l, fsr1h, status,2, status,0, pclath, cstack
  4339 ;; Tracked objects:
  4340 ;;		On entry : 0/0
  4341 ;;		On exit  : 0/0
  4342 ;;		Unchanged: 0/0
  4343 ;; Data sizes:     COMMON   BANK0   BANK1   BANK2   BANK3   BANK4   BANK5   BANK6   BANK7   BANK8   BANK9  BANK10  BANK1
      +1  BANK12
  4344 ;;      Params:         0       0       0       0       0       0       0       0       0       0       0       0       
      +0       0
  4345 ;;      Locals:         0       0       0       0       0       0       0       0       0       0       0       0       
      +0       0
  4346 ;;      Temps:          0       2       0       0       0       0       0       0       0       0       0       0       
      +0       0
  4347 ;;      Totals:         0       2       0       0       0       0       0       0       0       0       0       0       
      +0       0
  4348 ;;Total ram usage:        2 bytes
  4349 ;; Hardware stack levels used: 1
  4350 ;; Hardware stack levels required when called: 8
  4351 ;; This function calls:
  4352 ;;		___awdiv
  4353 ;;		_disable_external_interrupt
  4354 ;;		_disable_watchdog_timer
  4355 ;;		_enable_external_interrupt
  4356 ;;		_enable_watchdog_timer
  4357 ;;		_getBatteryVoltage
  4358 ;;		_printf
  4359 ;;		_set_watchdog_timer_128ms
  4360 ;;		_set_watchdog_timer_1s
  4361 ;;		_watch_dog_incrementing_timer
  4362 ;; This function is called by:
  4363 ;;		_main
  4364 ;; This function uses a non-reentrant model
  4365 ;;
  4366                           
  4367                           
  4368                           ;psect for function _checkState1
  4369  0096                     _checkState1:
  4370                           
  4371                           ;incstack = 0
  4372                           ; Regs used in _checkState1: [wreg-fsr1h+status,2+status,0+pclath+cstack]
  4373  0096                     l2900:
  4374                           
  4375                           ;statemachine.c: 42:     switch(state_machine) {
  4376  0096  2A7E               	goto	l3042
  4377  0097                     __ccov190_end_blk0:
  4378  0097                     __ccov191_start_blk2:
  4379  0097                     l2902:
  4380                           
  4381                           ;statemachine.c: 44:             disable_external_interrupt();
  4382  0097  318F  270C  3180   	fcall	_disable_external_interrupt
  4383                           
  4384                           ;statemachine.c: 45:             disable_watchdog_timer();
  4385  009A  318F  2719  3180   	fcall	_disable_watchdog_timer
  4386  009D                     __ccov191_end_blk2:
  4387  009D                     __ccov192_start_blk3:
  4388  009D                     l2904:
  4389                           
  4390                           ;statemachine.c: 46:             state_door = STATE_DOOR_UNKNOWN;
  4391  009D  3002               	movlw	2
  4392  009E  0020               	movlb	0	; select bank0
  4393  009F  00E2               	movwf	??_checkState1
  4394  00A0  0862               	movf	??_checkState1,w
  4395  00A1  00C9               	movwf	_state_door
  4396  00A2                     __ccov192_end_blk3:
  4397  00A2                     __ccov193_start_blk4:
  4398  00A2                     l2906:
  4399  00A2  1625               	bsf	__ccovbit4_38/(0+8),__ccovbit4_38& (0+7)	;volatile
  4400                           
  4401                           ;statemachine.c: 48:             printf("STATE_JUST_AWAKED\r\n");
  4402  00A3  301F               	movlw	low (STR_3| (0+32768))
  4403  00A4  00DE               	movwf	printf@fmt
  4404  00A5  3091               	movlw	high (STR_3| (0+32768))
  4405  00A6  00DF               	movwf	printf@fmt+1
  4406  00A7  318F  2798  3180   	fcall	_printf
  4407  00AA                     __ccov193_end_blk4:
  4408  00AA                     __ccov194_start_blk5:
  4409  00AA                     l2908:
  4410  00AA  0020               	movlb	0	; select bank0
  4411  00AB  15A5               	bsf	__ccovbit5_39/(0+8),__ccovbit5_39& (0+7)	;volatile
  4412                           
  4413                           ;statemachine.c: 50:             state_machine = STATE_CHECK_DOOR;
  4414  00AC  3002               	movlw	2
  4415  00AD  00E2               	movwf	??_checkState1
  4416  00AE  0862               	movf	??_checkState1,w
  4417  00AF  00C8               	movwf	_state_machine
  4418                           
  4419                           ;statemachine.c: 51:             break;
  4420  00B0  2AAA               	goto	l376
  4421  00B1                     __ccov194_end_blk5:
  4422  00B1                     __ccov195_start_blk7:
  4423  00B1                     l2910:
  4424                           
  4425                           ;statemachine.c: 55:             sleep_128ms_counter = 0;
  4426  00B1  01BA               	clrf	_sleep_128ms_counter	;volatile
  4427  00B2  01BB               	clrf	_sleep_128ms_counter+1	;volatile
  4428                           
  4429                           ;statemachine.c: 56:             sleep_256ms_counter = 0;
  4430  00B3  01B8               	clrf	_sleep_256ms_counter	;volatile
  4431  00B4  01B9               	clrf	_sleep_256ms_counter+1	;volatile
  4432                           
  4433                           ;statemachine.c: 57:             sleep_1s_counter = 0;
  4434  00B5  01B6               	clrf	_sleep_1s_counter	;volatile
  4435  00B6  01B7               	clrf	_sleep_1s_counter+1	;volatile
  4436                           
  4437                           ;statemachine.c: 58:             sleep_4s_counter = 0;
  4438  00B7  01B4               	clrf	_sleep_4s_counter	;volatile
  4439  00B8  01B5               	clrf	_sleep_4s_counter+1	;volatile
  4440  00B9                     __ccov195_end_blk7:
  4441  00B9                     __ccov196_start_blk8:
  4442  00B9                     l2912:
  4443                           
  4444                           ;statemachine.c: 59:             set_watchdog_timer_128ms();
  4445  00B9  318F  272E  3180   	fcall	_set_watchdog_timer_128ms
  4446  00BC                     __ccov196_end_blk8:
  4447  00BC                     __ccov197_start_blk9:
  4448  00BC                     l2914:
  4449                           
  4450                           ;statemachine.c: 61:             prelCounter = 1;
  4451  00BC  3001               	movlw	1
  4452  00BD  0020               	movlb	0	; select bank0
  4453  00BE  00BE               	movwf	_prelCounter	;volatile
  4454  00BF  3000               	movlw	0
  4455  00C0  00BF               	movwf	_prelCounter+1	;volatile
  4456  00C1                     __ccov197_end_blk9:
  4457  00C1                     __ccov198_start_blk10:
  4458  00C1                     l2916:
  4459                           
  4460                           ;statemachine.c: 62:             state_machine = STATE_DOOR_CHANGED_WAIT_PREL;
  4461  00C1  3004               	movlw	4
  4462  00C2  00E2               	movwf	??_checkState1
  4463  00C3  0862               	movf	??_checkState1,w
  4464  00C4  00C8               	movwf	_state_machine
  4465  00C5                     __ccov198_end_blk10:
  4466  00C5                     __ccov199_start_blk11:
  4467  00C5                     l2918:
  4468  00C5  1525               	bsf	__ccovbit11_40/(0+8),__ccovbit11_40& (0+7)	;volatile
  4469                           
  4470                           ;statemachine.c: 64:             printf("STATE_NEW_DOOR_STATE\r\n");
  4471  00C6  30F3               	movlw	low (STR_4| (0+32768))
  4472  00C7  00DE               	movwf	printf@fmt
  4473  00C8  3090               	movlw	high (STR_4| (0+32768))
  4474  00C9  00DF               	movwf	printf@fmt+1
  4475  00CA  318F  2798  3180   	fcall	_printf
  4476                           
  4477                           ;statemachine.c: 66:             break;
  4478  00CD  2AAA               	goto	l376
  4479  00CE                     __ccov199_end_blk11:
  4480  00CE                     __ccov200_start_blk13:
  4481  00CE                     l2920:
  4482                           
  4483                           ;statemachine.c: 71:             printf("STATE_CHECK_DOOR: ");
  4484  00CE  3047               	movlw	low (STR_5| (0+32768))
  4485  00CF  00DE               	movwf	printf@fmt
  4486  00D0  3091               	movlw	high (STR_5| (0+32768))
  4487  00D1  00DF               	movwf	printf@fmt+1
  4488  00D2  318F  2798  3180   	fcall	_printf
  4489  00D5                     __ccov200_end_blk13:
  4490  00D5                     __ccov201_start_blk14:
  4491  00D5                     l2922:
  4492                           
  4493                           ;statemachine.c: 81:             if (state_door == PORTAbits.RA2) {
  4494  00D5  0020               	movlb	0	; select bank0
  4495  00D6  0C0C               	rrf	12,w	;volatile
  4496  00D7  0C89               	rrf	9,f
  4497  00D8  3901               	andlw	1
  4498  00D9  0649               	xorwf	_state_door,w
  4499  00DA  1D03               	skipz
  4500  00DB  28DD               	goto	u1391
  4501  00DC  28DE               	goto	u1390
  4502  00DD                     u1391:
  4503  00DD  28EB               	goto	l2928
  4504  00DE                     __ccov201_end_blk14:
  4505  00DE                     u1390:
  4506  00DE                     __ccov202_start_blk15:
  4507  00DE                     l2924:
  4508                           
  4509                           ;statemachine.c: 84:                 state_machine = STATE_GO_SLEEP;
  4510  00DE  3009               	movlw	9
  4511  00DF  00E2               	movwf	??_checkState1
  4512  00E0  0862               	movf	??_checkState1,w
  4513  00E1  00C8               	movwf	_state_machine
  4514  00E2                     __ccov202_end_blk15:
  4515  00E2                     __ccov203_start_blk16:
  4516  00E2                     l2926:
  4517  00E2  14A5               	bsf	__ccovbit16_41/(0+8),__ccovbit16_41& (0+7)	;volatile
  4518                           
  4519                           ;statemachine.c: 86:                 printf("no new door state detected!\r\n");
  4520  00E3  303E               	movlw	low (STR_6| (0+32768))
  4521  00E4  00DE               	movwf	printf@fmt
  4522  00E5  3090               	movlw	high (STR_6| (0+32768))
  4523  00E6  00DF               	movwf	printf@fmt+1
  4524  00E7  318F  2798  3180   	fcall	_printf
  4525                           
  4526                           ;statemachine.c: 88:             }
  4527  00EA  2AAA               	goto	l376
  4528  00EB                     __ccov203_end_blk16:
  4529  00EB                     __ccov204_start_blk18:
  4530  00EB                     l2928:
  4531                           
  4532                           ;statemachine.c: 92:                 state_door = PORTAbits.RA2;
  4533  00EB  3000               	movlw	0
  4534  00EC  190C               	btfsc	12,2	;volatile
  4535  00ED  3001               	movlw	1
  4536  00EE  00C9               	movwf	_state_door
  4537  00EF                     __ccov204_end_blk18:
  4538  00EF                     __ccov205_start_blk19:
  4539  00EF                     l2930:
  4540                           
  4541                           ;statemachine.c: 93:                 DoorStateBeforePrel = state_door;
  4542  00EF  0849               	movf	_state_door,w
  4543  00F0  00E2               	movwf	??_checkState1
  4544  00F1  0862               	movf	??_checkState1,w
  4545  00F2  00C7               	movwf	_DoorStateBeforePrel
  4546  00F3                     __ccov205_end_blk19:
  4547  00F3                     __ccov206_start_blk20:
  4548  00F3                     l2932:
  4549                           
  4550                           ;statemachine.c: 94:                 prelCounter = 1;
  4551  00F3  3001               	movlw	1
  4552  00F4  00BE               	movwf	_prelCounter	;volatile
  4553  00F5  3000               	movlw	0
  4554  00F6  00BF               	movwf	_prelCounter+1	;volatile
  4555  00F7                     __ccov206_end_blk20:
  4556  00F7                     __ccov207_start_blk21:
  4557  00F7                     l2934:
  4558                           
  4559                           ;statemachine.c: 95:                 state_machine = STATE_DOOR_CHANGED_WAIT_PREL;
  4560  00F7  3004               	movlw	4
  4561  00F8  00E2               	movwf	??_checkState1
  4562  00F9  0862               	movf	??_checkState1,w
  4563  00FA  00C8               	movwf	_state_machine
  4564  00FB                     __ccov207_end_blk21:
  4565  00FB                     __ccov208_start_blk22:
  4566  00FB                     l2936:
  4567  00FB  1425               	bsf	__ccovbit22_42/(0+8),__ccovbit22_42& (0+7)	;volatile
  4568                           
  4569                           ;statemachine.c: 97:                 printf("new door state detected. Going to wait for 
      +                          prel..\r\n");
  4570  00FC  300C               	movlw	low (STR_7| (0+32768))
  4571  00FD  00DE               	movwf	printf@fmt
  4572  00FE  3087               	movlw	high (STR_7| (0+32768))
  4573  00FF  00DF               	movwf	printf@fmt+1
  4574  0100  318F  2798  3180   	fcall	_printf
  4575  0103  2AAA               	goto	l376
  4576  0104                     __ccov208_end_blk22:
  4577  0104                     __ccov209_start_blk25:
  4578  0104                     l2938:
  4579                           
  4580                           ;statemachine.c: 102:             if (prelCounter > 0) {
  4581  0104  083F               	movf	_prelCounter+1,w	;volatile
  4582  0105  3A80               	xorlw	128
  4583  0106  00E2               	movwf	??_checkState1
  4584  0107  3080               	movlw	128
  4585  0108  0262               	subwf	??_checkState1,w
  4586  0109  1D03               	skipz
  4587  010A  290D               	goto	u1405
  4588  010B  3001               	movlw	1
  4589  010C  023E               	subwf	_prelCounter,w	;volatile
  4590  010D                     u1405:
  4591  010D  1C03               	skipc
  4592  010E  2910               	goto	u1401
  4593  010F  2911               	goto	u1400
  4594  0110                     u1401:
  4595  0110  2918               	goto	l2942
  4596  0111                     __ccov209_end_blk25:
  4597  0111                     u1400:
  4598  0111                     __ccov210_start_blk26:
  4599  0111                     l2940:
  4600  0111  0020               	movlb	0	; select bank0
  4601  0112  17A4               	bsf	__ccovbit26_43/(0+8),__ccovbit26_43& (0+7)	;volatile
  4602                           
  4603                           ;statemachine.c: 103:                 state_machine = STATE_DOOR_CHANGED_WAIT_PREL;
  4604  0113  3004               	movlw	4
  4605  0114  00E2               	movwf	??_checkState1
  4606  0115  0862               	movf	??_checkState1,w
  4607  0116  00C8               	movwf	_state_machine
  4608                           
  4609                           ;statemachine.c: 104:             }
  4610  0117  291E               	goto	l2944
  4611  0118                     __ccov210_end_blk26:
  4612  0118                     __ccov211_start_blk28:
  4613  0118                     l2942:
  4614  0118  0020               	movlb	0	; select bank0
  4615  0119  1724               	bsf	__ccovbit28_44/(0+8),__ccovbit28_44& (0+7)	;volatile
  4616                           
  4617                           ;statemachine.c: 106:                 state_machine = STATE_DOOR_CHECK_AFTER_PREL;
  4618  011A  3005               	movlw	5
  4619  011B  00E2               	movwf	??_checkState1
  4620  011C  0862               	movf	??_checkState1,w
  4621  011D  00C8               	movwf	_state_machine
  4622  011E                     __ccov211_end_blk28:
  4623  011E                     __ccov212_start_blk30:
  4624  011E                     l2944:
  4625  011E  16A4               	bsf	__ccovbit30_45/(0+8),__ccovbit30_45& (0+7)	;volatile
  4626                           
  4627                           ;statemachine.c: 109:                 printf("STATE_DOOR_CHANGED_WAIT_PREL\r\n");
  4628  011F  301F               	movlw	low (STR_8| (0+32768))
  4629  0120  00DE               	movwf	printf@fmt
  4630  0121  3090               	movlw	high (STR_8| (0+32768))
  4631  0122  00DF               	movwf	printf@fmt+1
  4632  0123  318F  2798  3180   	fcall	_printf
  4633                           
  4634                           ;statemachine.c: 111:             break;
  4635  0126  2AAA               	goto	l376
  4636  0127                     __ccov212_end_blk30:
  4637  0127                     __ccov213_start_blk32:
  4638  0127                     l2946:
  4639                           
  4640                           ;statemachine.c: 114:             DoorStateAfterPrel = PORTAbits.RA2;
  4641  0127  3000               	movlw	0
  4642  0128  190C               	btfsc	12,2	;volatile
  4643  0129  3001               	movlw	1
  4644  012A  00C6               	movwf	_DoorStateAfterPrel
  4645  012B                     __ccov213_end_blk32:
  4646  012B                     __ccov214_start_blk33:
  4647  012B                     l2948:
  4648                           
  4649                           ;statemachine.c: 117:                 printf("STATE_DOOR_CHECK_AFTER_PREL\r\n");
  4650  012B  305C               	movlw	low (STR_9| (0+32768))
  4651  012C  00DE               	movwf	printf@fmt
  4652  012D  3090               	movlw	high (STR_9| (0+32768))
  4653  012E  00DF               	movwf	printf@fmt+1
  4654  012F  318F  2798  3180   	fcall	_printf
  4655  0132                     __ccov214_end_blk33:
  4656  0132                     __ccov215_start_blk34:
  4657  0132                     l2950:
  4658                           
  4659                           ;statemachine.c: 121:             if (DoorStateAfterPrel == DoorStateBeforePrel) {
  4660  0132  0020               	movlb	0	; select bank0
  4661  0133  0846               	movf	_DoorStateAfterPrel,w
  4662  0134  0647               	xorwf	_DoorStateBeforePrel,w
  4663  0135  1D03               	skipz
  4664  0136  2938               	goto	u1411
  4665  0137  2939               	goto	u1410
  4666  0138                     u1411:
  4667  0138  2974               	goto	l2966
  4668  0139                     __ccov215_end_blk34:
  4669  0139                     u1410:
  4670  0139                     __ccov216_start_blk35:
  4671  0139                     l2952:
  4672                           
  4673                           ;statemachine.c: 124:                 state_door = DoorStateAfterPrel;
  4674  0139  0846               	movf	_DoorStateAfterPrel,w
  4675  013A  00E2               	movwf	??_checkState1
  4676  013B  0862               	movf	??_checkState1,w
  4677  013C  00C9               	movwf	_state_door
  4678                           
  4679                           ;statemachine.c: 127:                 switch (state_door) {
  4680  013D  2956               	goto	l2962
  4681  013E                     __ccov216_end_blk35:
  4682  013E                     __ccov217_start_blk36:
  4683  013E                     l353:	
  4684                           ;statemachine.c: 128:                     case STATE_DOOR_OPEN:
  4685                           
  4686                           
  4687                           ;statemachine.c: 129:                         LATCbits.LATC0 = 1;
  4688  013E  0022               	movlb	2	; select bank2
  4689  013F  140E               	bsf	14,0	;volatile
  4690  0140                     __ccov217_end_blk36:
  4691  0140                     __ccov218_start_blk37:
  4692  0140                     l2954:
  4693  0140  0020               	movlb	0	; select bank0
  4694  0141  1624               	bsf	__ccovbit37_46/(0+8),__ccovbit37_46& (0+7)	;volatile
  4695                           
  4696                           ;statemachine.c: 131:                             printf("STATE_DOOR_OPEN\r\n");
  4697  0142  305A               	movlw	low (STR_10| (0+32768))
  4698  0143  00DE               	movwf	printf@fmt
  4699  0144  3091               	movlw	high (STR_10| (0+32768))
  4700  0145  00DF               	movwf	printf@fmt+1
  4701  0146  318F  2798  3180   	fcall	_printf
  4702                           
  4703                           ;statemachine.c: 133:                         break;
  4704  0149  2969               	goto	l2964
  4705  014A                     __ccov218_end_blk37:
  4706  014A                     __ccov219_start_blk38:
  4707  014A                     l355:	
  4708                           ;statemachine.c: 134:                     case STATE_DOOR_CLOSED:
  4709                           
  4710                           
  4711                           ;statemachine.c: 135:                         LATCbits.LATC2 = 1;
  4712  014A  0022               	movlb	2	; select bank2
  4713  014B  150E               	bsf	14,2	;volatile
  4714  014C                     __ccov219_end_blk38:
  4715  014C                     __ccov220_start_blk39:
  4716  014C                     l2956:
  4717  014C  0020               	movlb	0	; select bank0
  4718  014D  15A4               	bsf	__ccovbit39_47/(0+8),__ccovbit39_47& (0+7)	;volatile
  4719                           
  4720                           ;statemachine.c: 137:                             printf("STATE_DOOR_CLOSED\r\n");
  4721  014E  3033               	movlw	low (STR_11| (0+32768))
  4722  014F  00DE               	movwf	printf@fmt
  4723  0150  3091               	movlw	high (STR_11| (0+32768))
  4724  0151  00DF               	movwf	printf@fmt+1
  4725  0152  318F  2798  3180   	fcall	_printf
  4726                           
  4727                           ;statemachine.c: 139:                         break;
  4728  0155  2969               	goto	l2964
  4729  0156                     __ccov220_end_blk39:
  4730  0156                     __ccov221_start_blk46:
  4731  0156                     l2962:
  4732  0156  0849               	movf	_state_door,w
  4733  0157  00E2               	movwf	??_checkState1
  4734  0158  01E3               	clrf	??_checkState1+1
  4735                           
  4736                           ; Switch on 2 bytes has been partitioned into a top level switch of size 1, and 1 sub-sw
      +                          itches
  4737                           ; Switch size 1, requested type "simple"
  4738                           ; Number of cases is 1, Range of values is 0 to 0
  4739                           ; switch strategies available:
  4740                           ; Name         Instructions Cycles
  4741                           ; simple_byte            4     3 (average)
  4742                           ; direct_byte            8     6 (fixed)
  4743                           ; jumptable            260     6 (fixed)
  4744                           ;	Chosen strategy is simple_byte
  4745  0159  0863               	movf	??_checkState1+1,w
  4746  015A  3A00               	xorlw	0	; case 0
  4747  015B  1903               	skipnz
  4748  015C  295E               	goto	l3488
  4749  015D  2969               	goto	l2964
  4750  015E                     l3488:
  4751                           
  4752                           ; Switch size 1, requested type "simple"
  4753                           ; Number of cases is 3, Range of values is 0 to 2
  4754                           ; switch strategies available:
  4755                           ; Name         Instructions Cycles
  4756                           ; simple_byte           10     6 (average)
  4757                           ; direct_byte           12     6 (fixed)
  4758                           ; jumptable            260     6 (fixed)
  4759                           ;	Chosen strategy is simple_byte
  4760  015E  0862               	movf	??_checkState1,w
  4761  015F  3A00               	xorlw	0	; case 0
  4762  0160  1903               	skipnz
  4763  0161  294A               	goto	l355
  4764  0162  3A01               	xorlw	1	; case 1
  4765  0163  1903               	skipnz
  4766  0164  293E               	goto	l353
  4767  0165  3A03               	xorlw	3	; case 2
  4768  0166  1903               	skipnz
  4769  0167  2969               	goto	l2964
  4770  0168  2969               	goto	l2964
  4771  0169                     __ccov221_end_blk46:
  4772  0169                     __ccov222_start_blk48:
  4773  0169                     l2964:
  4774  0169  0020               	movlb	0	; select bank0
  4775  016A  1524               	bsf	__ccovbit48_48/(0+8),__ccovbit48_48& (0+7)	;volatile
  4776                           
  4777                           ;statemachine.c: 148:                 ihcPulseTimer = 5;
  4778  016B  3005               	movlw	5
  4779  016C  00BC               	movwf	_ihcPulseTimer	;volatile
  4780  016D  3000               	movlw	0
  4781  016E  00BD               	movwf	_ihcPulseTimer+1	;volatile
  4782                           
  4783                           ;statemachine.c: 149:                 state_machine = STATE_SEND_IHC_PULSE;
  4784  016F  3006               	movlw	6
  4785  0170  00E2               	movwf	??_checkState1
  4786  0171  0862               	movf	??_checkState1,w
  4787  0172  00C8               	movwf	_state_machine
  4788                           
  4789                           ;statemachine.c: 150:             }
  4790  0173  2AAA               	goto	l376
  4791  0174                     __ccov222_end_blk48:
  4792  0174                     __ccov223_start_blk50:
  4793  0174                     l2966:
  4794                           
  4795                           ;statemachine.c: 157:                 sleep_128ms_counter = 0;
  4796  0174  01BA               	clrf	_sleep_128ms_counter	;volatile
  4797  0175  01BB               	clrf	_sleep_128ms_counter+1	;volatile
  4798                           
  4799                           ;statemachine.c: 158:                 sleep_256ms_counter = 0;
  4800  0176  01B8               	clrf	_sleep_256ms_counter	;volatile
  4801  0177  01B9               	clrf	_sleep_256ms_counter+1	;volatile
  4802                           
  4803                           ;statemachine.c: 159:                 sleep_1s_counter = 0;
  4804  0178  01B6               	clrf	_sleep_1s_counter	;volatile
  4805  0179  01B7               	clrf	_sleep_1s_counter+1	;volatile
  4806                           
  4807                           ;statemachine.c: 160:                 sleep_4s_counter = 0;
  4808  017A  01B4               	clrf	_sleep_4s_counter	;volatile
  4809  017B  01B5               	clrf	_sleep_4s_counter+1	;volatile
  4810  017C                     __ccov223_end_blk50:
  4811  017C                     __ccov224_start_blk51:
  4812  017C                     l2968:
  4813                           
  4814                           ;statemachine.c: 163:                 set_watchdog_timer_1s();
  4815  017C  318F  2768  3180   	fcall	_set_watchdog_timer_1s
  4816  017F                     __ccov224_end_blk51:
  4817  017F                     __ccov225_start_blk52:
  4818  017F                     l2970:
  4819  017F  0020               	movlb	0	; select bank0
  4820  0180  14A4               	bsf	__ccovbit52_49/(0+8),__ccovbit52_49& (0+7)	;volatile
  4821                           
  4822                           ;statemachine.c: 164:                 state_machine = STATE_GO_SLEEP;
  4823  0181  3009               	movlw	9
  4824  0182  00E2               	movwf	??_checkState1
  4825  0183  0862               	movf	??_checkState1,w
  4826  0184  00C8               	movwf	_state_machine
  4827  0185  2AAA               	goto	l376
  4828  0186                     __ccov225_end_blk52:
  4829  0186                     __ccov226_start_blk55:
  4830  0186                     l2972:
  4831                           
  4832                           ;statemachine.c: 168:             if (ihcPulseTimer > 0)
  4833  0186  083D               	movf	_ihcPulseTimer+1,w	;volatile
  4834  0187  3A80               	xorlw	128
  4835  0188  00E2               	movwf	??_checkState1
  4836  0189  3080               	movlw	128
  4837  018A  0262               	subwf	??_checkState1,w
  4838  018B  1D03               	skipz
  4839  018C  298F               	goto	u1425
  4840  018D  3001               	movlw	1
  4841  018E  023C               	subwf	_ihcPulseTimer,w	;volatile
  4842  018F                     u1425:
  4843  018F  1C03               	skipc
  4844  0190  2992               	goto	u1421
  4845  0191  2993               	goto	u1420
  4846  0192                     u1421:
  4847  0192  299A               	goto	l2976
  4848  0193                     __ccov226_end_blk55:
  4849  0193                     u1420:
  4850  0193                     __ccov227_start_blk56:
  4851  0193                     l2974:
  4852  0193  0020               	movlb	0	; select bank0
  4853  0194  1424               	bsf	__ccovbit56_50/(0+8),__ccovbit56_50& (0+7)	;volatile
  4854                           
  4855                           ;statemachine.c: 169:                 state_machine = STATE_SEND_IHC_PULSE;
  4856  0195  3006               	movlw	6
  4857  0196  00E2               	movwf	??_checkState1
  4858  0197  0862               	movf	??_checkState1,w
  4859  0198  00C8               	movwf	_state_machine
  4860  0199  2AAA               	goto	l376
  4861  019A                     __ccov227_end_blk56:
  4862  019A                     __ccov228_start_blk58:
  4863  019A                     l2976:
  4864  019A  0020               	movlb	0	; select bank0
  4865  019B  17A3               	bsf	__ccovbit58_51/(0+8),__ccovbit58_51& (0+7)	;volatile
  4866                           
  4867                           ;statemachine.c: 171:                 state_machine = STATE_STOP_SENDING_IHC_PULSE;
  4868  019C  3007               	movlw	7
  4869  019D  00E2               	movwf	??_checkState1
  4870  019E  0862               	movf	??_checkState1,w
  4871  019F  00C8               	movwf	_state_machine
  4872  01A0  2AAA               	goto	l376
  4873  01A1                     __ccov228_end_blk58:
  4874  01A1                     __ccov229_start_blk60:
  4875  01A1                     l363:	
  4876                           ;statemachine.c: 176:         case STATE_STOP_SENDING_IHC_PULSE:
  4877                           
  4878                           
  4879                           ;statemachine.c: 178:             LATCbits.LATC0 = !1;
  4880  01A1  0022               	movlb	2	; select bank2
  4881  01A2  100E               	bcf	14,0	;volatile
  4882                           
  4883                           ;statemachine.c: 179:             LATCbits.LATC2 = !1;
  4884  01A3  110E               	bcf	14,2	;volatile
  4885                           
  4886                           ;statemachine.c: 180:             LATCbits.LATC1 = !1;
  4887  01A4  108E               	bcf	14,1	;volatile
  4888  01A5                     __ccov229_end_blk60:
  4889  01A5                     __ccov230_start_blk61:
  4890  01A5                     l2978:
  4891                           
  4892                           ;statemachine.c: 184:             sleep_128ms_counter = 0;
  4893  01A5  0020               	movlb	0	; select bank0
  4894  01A6  01BA               	clrf	_sleep_128ms_counter	;volatile
  4895  01A7  01BB               	clrf	_sleep_128ms_counter+1	;volatile
  4896                           
  4897                           ;statemachine.c: 185:             sleep_256ms_counter = 0;
  4898  01A8  01B8               	clrf	_sleep_256ms_counter	;volatile
  4899  01A9  01B9               	clrf	_sleep_256ms_counter+1	;volatile
  4900                           
  4901                           ;statemachine.c: 186:             sleep_1s_counter = 0;
  4902  01AA  01B6               	clrf	_sleep_1s_counter	;volatile
  4903  01AB  01B7               	clrf	_sleep_1s_counter+1	;volatile
  4904                           
  4905                           ;statemachine.c: 187:             sleep_4s_counter = 0;
  4906  01AC  01B4               	clrf	_sleep_4s_counter	;volatile
  4907  01AD  01B5               	clrf	_sleep_4s_counter+1	;volatile
  4908  01AE                     __ccov230_end_blk61:
  4909  01AE                     __ccov231_start_blk62:
  4910  01AE                     l2980:
  4911                           
  4912                           ;statemachine.c: 190:             set_watchdog_timer_128ms();
  4913  01AE  318F  272E  3180   	fcall	_set_watchdog_timer_128ms
  4914  01B1                     __ccov231_end_blk62:
  4915  01B1                     __ccov232_start_blk63:
  4916  01B1                     l2982:
  4917                           
  4918                           ;statemachine.c: 191:             state_machine = STATE_GO_SLEEP;
  4919  01B1  3009               	movlw	9
  4920  01B2  0020               	movlb	0	; select bank0
  4921  01B3  00E2               	movwf	??_checkState1
  4922  01B4  0862               	movf	??_checkState1,w
  4923  01B5  00C8               	movwf	_state_machine
  4924  01B6                     __ccov232_end_blk63:
  4925  01B6                     __ccov233_start_blk64:
  4926  01B6                     l2984:
  4927  01B6  1723               	bsf	__ccovbit64_52/(0+8),__ccovbit64_52& (0+7)	;volatile
  4928                           
  4929                           ;statemachine.c: 193:             printf("STATE_STOP_SENDING_IHC_PULSE\r\n");
  4930  01B7  3000               	movlw	low (STR_12| (0+32768))
  4931  01B8  00DE               	movwf	printf@fmt
  4932  01B9  3090               	movlw	high (STR_12| (0+32768))
  4933  01BA  00DF               	movwf	printf@fmt+1
  4934  01BB  318F  2798  3180   	fcall	_printf
  4935                           
  4936                           ;statemachine.c: 196:             break;
  4937  01BE  2AAA               	goto	l376
  4938  01BF                     __ccov233_end_blk64:
  4939  01BF                     __ccov234_start_blk66:
  4940  01BF                     l2986:
  4941                           
  4942                           ;statemachine.c: 202:                 PWMtoggle = !PWMtoggle;
  4943  01BF  3080               	movlw	(0+1) shl (_PWMtoggle& (0+7))
  4944  01C0  06F2               	xorwf	_PWMtoggle/(0+8),f
  4945  01C1                     __ccov234_end_blk66:
  4946  01C1                     __ccov235_start_blk67:
  4947  01C1                     l2988:
  4948                           
  4949                           ;statemachine.c: 204:                 if (PWMtoggle==1) { LATAbits.LATA5 = 1; }
  4950  01C1  1FF2               	btfss	_PWMtoggle/(0+8),_PWMtoggle& (0+7)
  4951  01C2  29C4               	goto	u1431
  4952  01C3  29C5               	goto	u1430
  4953  01C4                     u1431:
  4954  01C4  29C9               	goto	l365
  4955  01C5                     __ccov235_end_blk67:
  4956  01C5                     u1430:
  4957  01C5                     __ccov236_start_blk68:
  4958  01C5                     l2990:
  4959  01C5  16A3               	bsf	__ccovbit68_53/(0+8),__ccovbit68_53& (0+7)	;volatile
  4960  01C6  0022               	movlb	2	; select bank2
  4961  01C7  168C               	bsf	12,5	;volatile
  4962  01C8  29CC               	goto	l2992
  4963  01C9                     __ccov236_end_blk68:
  4964  01C9                     __ccov237_start_blk69:
  4965  01C9                     l365:	
  4966                           ;statemachine.c: 205:                 else { LATAbits.LATA5 = 0; }
  4967                           
  4968  01C9  1623               	bsf	__ccovbit69_54/(0+8),__ccovbit69_54& (0+7)	;volatile
  4969  01CA  0022               	movlb	2	; select bank2
  4970  01CB  128C               	bcf	12,5	;volatile
  4971  01CC                     __ccov237_end_blk69:
  4972  01CC                     __ccov238_start_blk71:
  4973  01CC                     l2992:
  4974                           
  4975                           ;statemachine.c: 212:             enable_external_interrupt();
  4976  01CC  318F  2710  3180   	fcall	_enable_external_interrupt
  4977                           
  4978                           ;statemachine.c: 213:             enable_watchdog_timer();
  4979  01CF  318F  271E  3180   	fcall	_enable_watchdog_timer
  4980  01D2                     __ccov238_end_blk71:
  4981  01D2                     __ccov239_start_blk72:
  4982  01D2                     l2994:
  4983                           
  4984                           ;statemachine.c: 216:                 printf("go sleep...sleeping\r\n\n");
  4985  01D2  30DC               	movlw	low (STR_13| (0+32768))
  4986  01D3  0020               	movlb	0	; select bank0
  4987  01D4  00DE               	movwf	printf@fmt
  4988  01D5  3090               	movlw	high (STR_13| (0+32768))
  4989  01D6  00DF               	movwf	printf@fmt+1
  4990  01D7  318F  2798  3180   	fcall	_printf
  4991  01DA  0063               	sleep	;# 
  4992  01DB                     __ccov239_end_blk72:
  4993  01DB                     __ccov240_start_blk73:
  4994  01DB                     l2996:
  4995                           
  4996                           ;statemachine.c: 221:             __nop();
  4997  01DB  0000               	nop
  4998  01DC                     __ccov240_end_blk73:
  4999  01DC                     __ccov241_start_blk74:
  5000  01DC                     l2998:
  5001                           
  5002                           ;statemachine.c: 223:             disable_watchdog_timer();
  5003  01DC  318F  2719  3180   	fcall	_disable_watchdog_timer
  5004                           
  5005                           ;statemachine.c: 226:                 printf("...now awake due to watchdog timer\r\n");
  5006  01DF  30C4               	movlw	low (STR_14| (0+32768))
  5007  01E0  0020               	movlb	0	; select bank0
  5008  01E1  00DE               	movwf	printf@fmt
  5009  01E2  3087               	movlw	high (STR_14| (0+32768))
  5010  01E3  00DF               	movwf	printf@fmt+1
  5011  01E4  318F  2798  3180   	fcall	_printf
  5012  01E7                     __ccov241_end_blk74:
  5013  01E7                     __ccov242_start_blk80:
  5014  01E7                     l3006:
  5015                           
  5016                           ;statemachine.c: 237:             watch_dog_incrementing_timer();
  5017  01E7  3184  24A2  3180   	fcall	_watch_dog_incrementing_timer
  5018  01EA                     __ccov242_end_blk80:
  5019  01EA                     __ccov243_start_blk81:
  5020  01EA                     l3008:
  5021                           
  5022                           ;statemachine.c: 244:             PSTR1CONbits.STR1A = 1;
  5023  01EA  0025               	movlb	5	; select bank5
  5024  01EB  1416               	bsf	22,0	;volatile
  5025  01EC                     __ccov243_end_blk81:
  5026  01EC                     __ccov244_start_blk82:
  5027  01EC                     l3010:
  5028  01EC  0020               	movlb	0	; select bank0
  5029  01ED  15A3               	bsf	__ccovbit82_55/(0+8),__ccovbit82_55& (0+7)	;volatile
  5030                           
  5031                           ;statemachine.c: 246:             if (sleep_256s_counter >= 337) {
  5032  01EE  0833               	movf	_sleep_256s_counter+1,w	;volatile
  5033  01EF  3A80               	xorlw	128
  5034  01F0  00E2               	movwf	??_checkState1
  5035  01F1  3081               	movlw	129
  5036  01F2  0262               	subwf	??_checkState1,w
  5037  01F3  1D03               	skipz
  5038  01F4  29F7               	goto	u1445
  5039  01F5  3051               	movlw	81
  5040  01F6  0232               	subwf	_sleep_256s_counter,w	;volatile
  5041  01F7                     u1445:
  5042  01F7  1C03               	skipc
  5043  01F8  29FA               	goto	u1441
  5044  01F9  29FB               	goto	u1440
  5045  01FA                     u1441:
  5046  01FA  28AA               	goto	l2908
  5047  01FB                     __ccov244_end_blk82:
  5048  01FB                     u1440:
  5049  01FB                     __ccov245_start_blk83:
  5050  01FB                     l3012:
  5051                           
  5052                           ;statemachine.c: 249:                     printf("measure battery\r\n");
  5053  01FB  306C               	movlw	low (STR_15| (0+32768))
  5054  01FC  0020               	movlb	0	; select bank0
  5055  01FD  00DE               	movwf	printf@fmt
  5056  01FE  3091               	movlw	high (STR_15| (0+32768))
  5057  01FF  00DF               	movwf	printf@fmt+1
  5058  0200  318F  2798  3180   	fcall	_printf
  5059  0203                     __ccov245_end_blk83:
  5060  0203                     __ccov246_start_blk84:
  5061  0203                     l3014:
  5062                           
  5063                           ;statemachine.c: 252:                 BatteryVoltage = getBatteryVoltage();
  5064  0203  3186  26D4  3180   	fcall	_getBatteryVoltage
  5065  0206  0876               	movf	?_getBatteryVoltage+1,w
  5066  0207  0020               	movlb	0	; select bank0
  5067  0208  00CB               	movwf	_BatteryVoltage+1	;volatile
  5068  0209  0875               	movf	?_getBatteryVoltage,w
  5069  020A  00CA               	movwf	_BatteryVoltage	;volatile
  5070  020B                     __ccov246_end_blk84:
  5071  020B                     __ccov247_start_blk85:
  5072  020B                     l3016:
  5073                           
  5074                           ;statemachine.c: 255:                 millivolts = (8192 / BatteryVoltage) * 1024;
  5075  020B  084B               	movf	_BatteryVoltage+1,w	;volatile
  5076  020C  00F6               	movwf	___awdiv@divisor+1
  5077  020D  084A               	movf	_BatteryVoltage,w	;volatile
  5078  020E  00F5               	movwf	___awdiv@divisor
  5079  020F  3000               	movlw	0
  5080  0210  00F7               	movwf	___awdiv@dividend
  5081  0211  3020               	movlw	32
  5082  0212  00F8               	movwf	___awdiv@dividend+1
  5083  0213  3185  259B  3180   	fcall	___awdiv
  5084  0216  0875               	movf	?___awdiv,w
  5085  0217  0020               	movlb	0	; select bank0
  5086  0218  00E2               	movwf	??_checkState1
  5087  0219  0876               	movf	?___awdiv+1,w
  5088  021A  00E3               	movwf	??_checkState1+1
  5089  021B  300A               	movlw	10
  5090  021C                     u1455:
  5091  021C  35E2               	lslf	??_checkState1,f
  5092  021D  0DE3               	rlf	??_checkState1+1,f
  5093  021E  0B89               	decfsz	9,f
  5094  021F  2A1C               	goto	u1455
  5095  0220  0862               	movf	??_checkState1,w
  5096  0221  00C0               	movwf	_millivolts	;volatile
  5097  0222  0863               	movf	??_checkState1+1,w
  5098  0223  00C1               	movwf	_millivolts+1	;volatile
  5099  0224                     __ccov247_end_blk85:
  5100  0224                     __ccov248_start_blk86:
  5101  0224                     l3018:
  5102                           
  5103                           ;statemachine.c: 256:                 millivolts = millivolts /8;
  5104  0224  3008               	movlw	8
  5105  0225  00F5               	movwf	___awdiv@divisor
  5106  0226  3000               	movlw	0
  5107  0227  00F6               	movwf	___awdiv@divisor+1
  5108  0228  0841               	movf	_millivolts+1,w	;volatile
  5109  0229  00F8               	movwf	___awdiv@dividend+1
  5110  022A  0840               	movf	_millivolts,w	;volatile
  5111  022B  00F7               	movwf	___awdiv@dividend
  5112  022C  3185  259B  3180   	fcall	___awdiv
  5113  022F  0876               	movf	?___awdiv+1,w
  5114  0230  0020               	movlb	0	; select bank0
  5115  0231  00C1               	movwf	_millivolts+1	;volatile
  5116  0232  0875               	movf	?___awdiv,w
  5117  0233  00C0               	movwf	_millivolts	;volatile
  5118  0234                     __ccov248_end_blk86:
  5119  0234                     __ccov249_start_blk87:
  5120  0234                     l3020:
  5121                           
  5122                           ;statemachine.c: 266:                 if (millivolts <= 2400) {
  5123  0234  0841               	movf	_millivolts+1,w	;volatile
  5124  0235  3A80               	xorlw	128
  5125  0236  00E2               	movwf	??_checkState1
  5126  0237  3089               	movlw	137
  5127  0238  0262               	subwf	??_checkState1,w
  5128  0239  1D03               	skipz
  5129  023A  2A3D               	goto	u1465
  5130  023B  3061               	movlw	97
  5131  023C  0240               	subwf	_millivolts,w	;volatile
  5132  023D                     u1465:
  5133  023D  1803               	skipnc
  5134  023E  2A40               	goto	u1461
  5135  023F  2A41               	goto	u1460
  5136  0240                     u1461:
  5137  0240  2A51               	goto	l370
  5138  0241                     __ccov249_end_blk87:
  5139  0241                     u1460:
  5140  0241                     __ccov250_start_blk88:
  5141  0241                     l3022:
  5142                           
  5143                           ;statemachine.c: 267:                     LATCbits.LATC1 = 1;
  5144  0241  0022               	movlb	2	; select bank2
  5145  0242  148E               	bsf	14,1	;volatile
  5146  0243                     __ccov250_end_blk88:
  5147  0243                     __ccov251_start_blk89:
  5148  0243                     l3024:
  5149                           
  5150                           ;statemachine.c: 268:                     _delay((unsigned long)((5*8)*(16000000/4000.0)
      +                          ));
  5151  0243  30D0               	movlw	208
  5152  0244  0020               	movlb	0	; select bank0
  5153  0245  00E2               	movwf	??_checkState1
  5154  0246  30C9               	movlw	201
  5155  0247                     u1567:
  5156  0247  0B89               	decfsz	9,f
  5157  0248  2A47               	goto	u1567
  5158  0249  0BE2               	decfsz	??_checkState1,f
  5159  024A  2A47               	goto	u1567
  5160  024B  3200               	nop2
  5161  024C                     __ccov251_end_blk89:
  5162  024C                     __ccov252_start_blk90:
  5163  024C                     l3026:
  5164  024C  0020               	movlb	0	; select bank0
  5165  024D  1523               	bsf	__ccovbit90_56/(0+8),__ccovbit90_56& (0+7)	;volatile
  5166                           
  5167                           ;statemachine.c: 269:                     LATCbits.LATC1 = !1;
  5168  024E  0022               	movlb	2	; select bank2
  5169  024F  108E               	bcf	14,1	;volatile
  5170                           
  5171                           ;statemachine.c: 270:                 }
  5172  0250  2A55               	goto	l3028
  5173  0251                     __ccov252_end_blk90:
  5174  0251                     __ccov253_start_blk91:
  5175  0251                     l370:	
  5176                           ;statemachine.c: 271:                 else {
  5177                           
  5178  0251  0020               	movlb	0	; select bank0
  5179  0252  14A3               	bsf	__ccovbit91_57/(0+8),__ccovbit91_57& (0+7)	;volatile
  5180                           
  5181                           ;statemachine.c: 272:                     LATCbits.LATC1 = !1;
  5182  0253  0022               	movlb	2	; select bank2
  5183  0254  108E               	bcf	14,1	;volatile
  5184  0255                     __ccov253_end_blk91:
  5185  0255                     __ccov254_start_blk93:
  5186  0255                     l3028:
  5187  0255  0020               	movlb	0	; select bank0
  5188  0256  1423               	bsf	__ccovbit93_58/(0+8),__ccovbit93_58& (0+7)	;volatile
  5189                           
  5190                           ;statemachine.c: 274:                 sleep_256s_counter = 0;
  5191  0257  01B2               	clrf	_sleep_256s_counter	;volatile
  5192  0258  01B3               	clrf	_sleep_256s_counter+1	;volatile
  5193  0259  28AA               	goto	l2908
  5194  025A                     __ccov254_end_blk93:
  5195  025A                     __ccov255_start_blk97:
  5196  025A                     l3032:
  5197  025A  17A2               	bsf	__ccovbit97_59/(0+8),__ccovbit97_59& (0+7)	;volatile
  5198                           
  5199                           ;statemachine.c: 280:                 printf("STATE_DOOR_CHANGED\r\n");
  5200  025B  300A               	movlw	low (STR_16| (0+32768))
  5201  025C  00DE               	movwf	printf@fmt
  5202  025D  3091               	movlw	high (STR_16| (0+32768))
  5203  025E  00DF               	movwf	printf@fmt+1
  5204  025F  318F  2798  3180   	fcall	_printf
  5205                           
  5206                           ;statemachine.c: 282:             break;
  5207  0262  2AAA               	goto	l376
  5208  0263                     __ccov255_end_blk97:
  5209  0263                     __ccov256_start_blk99:
  5210  0263                     l3034:
  5211  0263  1722               	bsf	__ccovbit99_60/(0+8),__ccovbit99_60& (0+7)	;volatile
  5212                           
  5213                           ;statemachine.c: 285:                 printf("STATE_MEASURE_BATTERY\r\n");
  5214  0264  30C4               	movlw	low (STR_17| (0+32768))
  5215  0265  00DE               	movwf	printf@fmt
  5216  0266  3090               	movlw	high (STR_17| (0+32768))
  5217  0267  00DF               	movwf	printf@fmt+1
  5218  0268  318F  2798  3180   	fcall	_printf
  5219                           
  5220                           ;statemachine.c: 287:             break;
  5221  026B  2AAA               	goto	l376
  5222  026C                     __ccov256_end_blk99:
  5223  026C                     __ccov257_start_blk101:
  5224  026C                     l3036:
  5225  026C  16A2               	bsf	__ccovbit101_61/(0+8),__ccovbit101_61& (0+7)	;volatile
  5226                           
  5227                           ;statemachine.c: 290:                 printf("STATE_SLEEPING\r\n");
  5228  026D  307E               	movlw	low (STR_18| (0+32768))
  5229  026E  00DE               	movwf	printf@fmt
  5230  026F  3091               	movlw	high (STR_18| (0+32768))
  5231  0270  00DF               	movwf	printf@fmt+1
  5232  0271  318F  2798  3180   	fcall	_printf
  5233                           
  5234                           ;statemachine.c: 292:             break;
  5235  0274  2AAA               	goto	l376
  5236  0275                     __ccov257_end_blk101:
  5237  0275                     __ccov258_start_blk103:
  5238  0275                     l3038:
  5239  0275  1622               	bsf	__ccovbit103_62/(0+8),__ccovbit103_62& (0+7)	;volatile
  5240                           
  5241                           ;statemachine.c: 295:                 printf("STATE_default\r\n");
  5242  0276  308F               	movlw	low (STR_19| (0+32768))
  5243  0277  00DE               	movwf	printf@fmt
  5244  0278  3091               	movlw	high (STR_19| (0+32768))
  5245  0279  00DF               	movwf	printf@fmt+1
  5246  027A  318F  2798  3180   	fcall	_printf
  5247                           
  5248                           ;statemachine.c: 297:             break;
  5249  027D  2AAA               	goto	l376
  5250  027E                     __ccov258_end_blk103:
  5251  027E                     __ccov259_start_blk106:
  5252  027E                     l3042:
  5253  027E  0020               	movlb	0	; select bank0
  5254  027F  0848               	movf	_state_machine,w
  5255  0280  00E2               	movwf	??_checkState1
  5256  0281  01E3               	clrf	??_checkState1+1
  5257                           
  5258                           ; Switch on 2 bytes has been partitioned into a top level switch of size 1, and 1 sub-sw
      +                          itches
  5259                           ; Switch size 1, requested type "simple"
  5260                           ; Number of cases is 1, Range of values is 0 to 0
  5261                           ; switch strategies available:
  5262                           ; Name         Instructions Cycles
  5263                           ; simple_byte            4     3 (average)
  5264                           ; direct_byte            8     6 (fixed)
  5265                           ; jumptable            260     6 (fixed)
  5266                           ;	Chosen strategy is simple_byte
  5267  0282  0863               	movf	??_checkState1+1,w
  5268  0283  3A00               	xorlw	0	; case 0
  5269  0284  1903               	skipnz
  5270  0285  2A87               	goto	l3490
  5271  0286  2A75               	goto	l3038
  5272  0287                     l3490:
  5273                           
  5274                           ; Switch size 1, requested type "simple"
  5275                           ; Number of cases is 11, Range of values is 0 to 10
  5276                           ; switch strategies available:
  5277                           ; Name         Instructions Cycles
  5278                           ; direct_byte           28     6 (fixed)
  5279                           ; simple_byte           34    18 (average)
  5280                           ; jumptable            260     6 (fixed)
  5281                           ;	Chosen strategy is simple_byte
  5282  0287  0862               	movf	??_checkState1,w
  5283  0288  3A00               	xorlw	0	; case 0
  5284  0289  1903               	skipnz
  5285  028A  2897               	goto	l2902
  5286  028B  3A01               	xorlw	1	; case 1
  5287  028C  1903               	skipnz
  5288  028D  28B1               	goto	l2910
  5289  028E  3A03               	xorlw	3	; case 2
  5290  028F  1903               	skipnz
  5291  0290  28CE               	goto	l2920
  5292  0291  3A01               	xorlw	1	; case 3
  5293  0292  1903               	skipnz
  5294  0293  2A5A               	goto	l3032
  5295  0294  3A07               	xorlw	7	; case 4
  5296  0295  1903               	skipnz
  5297  0296  2904               	goto	l2938
  5298  0297  3A01               	xorlw	1	; case 5
  5299  0298  1903               	skipnz
  5300  0299  2927               	goto	l2946
  5301  029A  3A03               	xorlw	3	; case 6
  5302  029B  1903               	skipnz
  5303  029C  2986               	goto	l2972
  5304  029D  3A01               	xorlw	1	; case 7
  5305  029E  1903               	skipnz
  5306  029F  29A1               	goto	l363
  5307  02A0  3A0F               	xorlw	15	; case 8
  5308  02A1  1903               	skipnz
  5309  02A2  2A63               	goto	l3034
  5310  02A3  3A01               	xorlw	1	; case 9
  5311  02A4  1903               	skipnz
  5312  02A5  29BF               	goto	l2986
  5313  02A6  3A03               	xorlw	3	; case 10
  5314  02A7  1903               	skipnz
  5315  02A8  2A6C               	goto	l3036
  5316  02A9  2A75               	goto	l3038
  5317  02AA                     __ccov259_end_blk106:
  5318  02AA                     __ccov260_start_blk108:
  5319  02AA                     l376:
  5320  02AA  0020               	movlb	0	; select bank0
  5321  02AB  15A2               	bsf	__ccovbit108_63/(0+8),__ccovbit108_63& (0+7)	;volatile
  5322  02AC  0008               	return
  5323  02AD                     __end_of_checkState1:
  5324  02AD                     
  5325                           	psect	text8
  5326  04A2                     __ptext8:	
  5327 ;; *************** function _watch_dog_incrementing_timer *****************
  5328 ;; Defined at:
  5329 ;;		line 453 in file "main.c"
  5330 ;; Parameters:    Size  Location     Type
  5331 ;;		None
  5332 ;; Auto vars:     Size  Location     Type
  5333 ;;		None
  5334 ;; Return value:  Size  Location     Type
  5335 ;;                  1    wreg      void 
  5336 ;; Registers used:
  5337 ;;		wreg, fsr0l, fsr0h, fsr1l, fsr1h, status,2, status,0, pclath, cstack
  5338 ;; Tracked objects:
  5339 ;;		On entry : 0/0
  5340 ;;		On exit  : 0/0
  5341 ;;		Unchanged: 0/0
  5342 ;; Data sizes:     COMMON   BANK0   BANK1   BANK2   BANK3   BANK4   BANK5   BANK6   BANK7   BANK8   BANK9  BANK10  BANK1
      +1  BANK12
  5343 ;;      Params:         0       0       0       0       0       0       0       0       0       0       0       0       
      +0       0
  5344 ;;      Locals:         0       0       0       0       0       0       0       0       0       0       0       0       
      +0       0
  5345 ;;      Temps:          0       1       0       0       0       0       0       0       0       0       0       0       
      +0       0
  5346 ;;      Totals:         0       1       0       0       0       0       0       0       0       0       0       0       
      +0       0
  5347 ;;Total ram usage:        1 bytes
  5348 ;; Hardware stack levels used: 1
  5349 ;; Hardware stack levels required when called: 7
  5350 ;; This function calls:
  5351 ;;		_set_watchdog_timer_128ms
  5352 ;;		_set_watchdog_timer_1s
  5353 ;;		_set_watchdog_timer_256ms
  5354 ;;		_set_watchdog_timer_256s
  5355 ;;		_set_watchdog_timer_4s
  5356 ;; This function is called by:
  5357 ;;		_checkState1
  5358 ;; This function uses a non-reentrant model
  5359 ;;
  5360                           
  5361                           
  5362                           ;psect for function _watch_dog_incrementing_timer
  5363  04A2                     _watch_dog_incrementing_timer:
  5364                           
  5365                           ;incstack = 0
  5366                           ; Regs used in _watch_dog_incrementing_timer: [wreg-fsr1h+status,2+status,0+pclath+cstac
      +                          k]
  5367  04A2                     l2816:
  5368                           
  5369                           ;main.c: 455:     if (sleep_128ms_counter < 8) {
  5370  04A2  0020               	movlb	0	; select bank0
  5371  04A3  083B               	movf	_sleep_128ms_counter+1,w	;volatile
  5372  04A4  3A80               	xorlw	128
  5373  04A5  00E1               	movwf	??_watch_dog_incrementing_timer
  5374  04A6  3080               	movlw	128
  5375  04A7  0261               	subwf	??_watch_dog_incrementing_timer,w
  5376  04A8  1D03               	skipz
  5377  04A9  2CAC               	goto	u1225
  5378  04AA  3008               	movlw	8
  5379  04AB  023A               	subwf	_sleep_128ms_counter,w	;volatile
  5380  04AC                     u1225:
  5381  04AC  1803               	skipnc
  5382  04AD  2CAF               	goto	u1221
  5383  04AE  2CB0               	goto	u1220
  5384  04AF                     u1221:
  5385  04AF  2CBA               	goto	l2822
  5386  04B0                     __ccov151_end_blk0:
  5387  04B0                     u1220:
  5388  04B0                     __ccov152_start_blk1:
  5389  04B0                     l2818:
  5390                           
  5391                           ;main.c: 457:         sleep_128ms_counter++;
  5392  04B0  3001               	movlw	1
  5393  04B1  0020               	movlb	0	; select bank0
  5394  04B2  07BA               	addwf	_sleep_128ms_counter,f	;volatile
  5395  04B3  3000               	movlw	0
  5396  04B4  3DBB               	addwfc	_sleep_128ms_counter+1,f	;volatile
  5397  04B5                     __ccov152_end_blk1:
  5398  04B5                     __ccov153_start_blk2:
  5399  04B5                     l2820:
  5400  04B5  1470               	bsf	__ccovbit2_20/(0+8),__ccovbit2_20& (0+7)	;volatile
  5401                           
  5402                           ;main.c: 458:         set_watchdog_timer_128ms(); }
  5403  04B6  318F  272E  3184   	fcall	_set_watchdog_timer_128ms
  5404  04B9  2D1C               	goto	l243
  5405  04BA                     __ccov153_end_blk2:
  5406  04BA                     __ccov154_start_blk4:
  5407  04BA                     l2822:
  5408  04BA  0020               	movlb	0	; select bank0
  5409  04BB  0839               	movf	_sleep_256ms_counter+1,w	;volatile
  5410  04BC  3A80               	xorlw	128
  5411  04BD  00E1               	movwf	??_watch_dog_incrementing_timer
  5412  04BE  3080               	movlw	128
  5413  04BF  0261               	subwf	??_watch_dog_incrementing_timer,w
  5414  04C0  1D03               	skipz
  5415  04C1  2CC4               	goto	u1235
  5416  04C2  3014               	movlw	20
  5417  04C3  0238               	subwf	_sleep_256ms_counter,w	;volatile
  5418  04C4                     u1235:
  5419  04C4  1803               	skipnc
  5420  04C5  2CC7               	goto	u1231
  5421  04C6  2CC8               	goto	u1230
  5422  04C7                     u1231:
  5423  04C7  2CD2               	goto	l2828
  5424  04C8                     __ccov154_end_blk4:
  5425  04C8                     u1230:
  5426  04C8                     __ccov155_start_blk5:
  5427  04C8                     l2824:
  5428                           
  5429                           ;main.c: 461:         sleep_256ms_counter++;
  5430  04C8  3001               	movlw	1
  5431  04C9  0020               	movlb	0	; select bank0
  5432  04CA  07B8               	addwf	_sleep_256ms_counter,f	;volatile
  5433  04CB  3000               	movlw	0
  5434  04CC  3DB9               	addwfc	_sleep_256ms_counter+1,f	;volatile
  5435  04CD                     __ccov155_end_blk5:
  5436  04CD                     __ccov156_start_blk6:
  5437  04CD                     l2826:
  5438  04CD  16A7               	bsf	__ccovbit6_21/(0+8),__ccovbit6_21& (0+7)	;volatile
  5439                           
  5440                           ;main.c: 462:         set_watchdog_timer_256ms(); }
  5441  04CE  318F  2736  3184   	fcall	_set_watchdog_timer_256ms
  5442  04D1  2D1C               	goto	l243
  5443  04D2                     __ccov156_end_blk6:
  5444  04D2                     __ccov157_start_blk8:
  5445  04D2                     l2828:
  5446  04D2  0020               	movlb	0	; select bank0
  5447  04D3  0837               	movf	_sleep_1s_counter+1,w	;volatile
  5448  04D4  3A80               	xorlw	128
  5449  04D5  00E1               	movwf	??_watch_dog_incrementing_timer
  5450  04D6  3080               	movlw	128
  5451  04D7  0261               	subwf	??_watch_dog_incrementing_timer,w
  5452  04D8  1D03               	skipz
  5453  04D9  2CDC               	goto	u1245
  5454  04DA  300A               	movlw	10
  5455  04DB  0236               	subwf	_sleep_1s_counter,w	;volatile
  5456  04DC                     u1245:
  5457  04DC  1803               	skipnc
  5458  04DD  2CDF               	goto	u1241
  5459  04DE  2CE0               	goto	u1240
  5460  04DF                     u1241:
  5461  04DF  2CEA               	goto	l2834
  5462  04E0                     __ccov157_end_blk8:
  5463  04E0                     u1240:
  5464  04E0                     __ccov158_start_blk9:
  5465  04E0                     l2830:
  5466                           
  5467                           ;main.c: 465:         sleep_1s_counter++;
  5468  04E0  3001               	movlw	1
  5469  04E1  0020               	movlb	0	; select bank0
  5470  04E2  07B6               	addwf	_sleep_1s_counter,f	;volatile
  5471  04E3  3000               	movlw	0
  5472  04E4  3DB7               	addwfc	_sleep_1s_counter+1,f	;volatile
  5473  04E5                     __ccov158_end_blk9:
  5474  04E5                     __ccov159_start_blk10:
  5475  04E5                     l2832:
  5476  04E5  1627               	bsf	__ccovbit10_22/(0+8),__ccovbit10_22& (0+7)	;volatile
  5477                           
  5478                           ;main.c: 466:         set_watchdog_timer_1s(); }
  5479  04E6  318F  2768  3184   	fcall	_set_watchdog_timer_1s
  5480  04E9  2D1C               	goto	l243
  5481  04EA                     __ccov159_end_blk10:
  5482  04EA                     __ccov160_start_blk12:
  5483  04EA                     l2834:
  5484  04EA  0020               	movlb	0	; select bank0
  5485  04EB  0835               	movf	_sleep_4s_counter+1,w	;volatile
  5486  04EC  3A80               	xorlw	128
  5487  04ED  00E1               	movwf	??_watch_dog_incrementing_timer
  5488  04EE  3080               	movlw	128
  5489  04EF  0261               	subwf	??_watch_dog_incrementing_timer,w
  5490  04F0  1D03               	skipz
  5491  04F1  2CF4               	goto	u1255
  5492  04F2  3096               	movlw	150
  5493  04F3  0234               	subwf	_sleep_4s_counter,w	;volatile
  5494  04F4                     u1255:
  5495  04F4  1803               	skipnc
  5496  04F5  2CF7               	goto	u1251
  5497  04F6  2CF8               	goto	u1250
  5498  04F7                     u1251:
  5499  04F7  2D02               	goto	l2840
  5500  04F8                     __ccov160_end_blk12:
  5501  04F8                     u1250:
  5502  04F8                     __ccov161_start_blk13:
  5503  04F8                     l2836:
  5504                           
  5505                           ;main.c: 469:         sleep_4s_counter++;
  5506  04F8  3001               	movlw	1
  5507  04F9  0020               	movlb	0	; select bank0
  5508  04FA  07B4               	addwf	_sleep_4s_counter,f	;volatile
  5509  04FB  3000               	movlw	0
  5510  04FC  3DB5               	addwfc	_sleep_4s_counter+1,f	;volatile
  5511  04FD                     __ccov161_end_blk13:
  5512  04FD                     __ccov162_start_blk14:
  5513  04FD                     l2838:
  5514  04FD  15A7               	bsf	__ccovbit14_23/(0+8),__ccovbit14_23& (0+7)	;volatile
  5515                           
  5516                           ;main.c: 470:         set_watchdog_timer_4s(); }
  5517  04FE  318F  2788  3184   	fcall	_set_watchdog_timer_4s
  5518  0501  2D1C               	goto	l243
  5519  0502                     __ccov162_end_blk14:
  5520  0502                     __ccov163_start_blk16:
  5521  0502                     l2840:
  5522  0502  0020               	movlb	0	; select bank0
  5523  0503  0833               	movf	_sleep_256s_counter+1,w	;volatile
  5524  0504  3A80               	xorlw	128
  5525  0505  00E1               	movwf	??_watch_dog_incrementing_timer
  5526  0506  3081               	movlw	129
  5527  0507  0261               	subwf	??_watch_dog_incrementing_timer,w
  5528  0508  1D03               	skipz
  5529  0509  2D0C               	goto	u1265
  5530  050A  3051               	movlw	81
  5531  050B  0232               	subwf	_sleep_256s_counter,w	;volatile
  5532  050C                     u1265:
  5533  050C  1803               	skipnc
  5534  050D  2D0F               	goto	u1261
  5535  050E  2D10               	goto	u1260
  5536  050F                     u1261:
  5537  050F  2D1A               	goto	l237
  5538  0510                     __ccov163_end_blk16:
  5539  0510                     u1260:
  5540  0510                     __ccov164_start_blk17:
  5541  0510                     l2842:
  5542                           
  5543                           ;main.c: 472:         sleep_256s_counter++;
  5544  0510  3001               	movlw	1
  5545  0511  0020               	movlb	0	; select bank0
  5546  0512  07B2               	addwf	_sleep_256s_counter,f	;volatile
  5547  0513  3000               	movlw	0
  5548  0514  3DB3               	addwfc	_sleep_256s_counter+1,f	;volatile
  5549  0515                     __ccov164_end_blk17:
  5550  0515                     __ccov165_start_blk18:
  5551  0515                     l2844:
  5552  0515  1527               	bsf	__ccovbit18_24/(0+8),__ccovbit18_24& (0+7)	;volatile
  5553                           
  5554                           ;main.c: 473:         set_watchdog_timer_256s(); }
  5555  0516  318F  2778  3184   	fcall	_set_watchdog_timer_256s
  5556  0519  2D1C               	goto	l243
  5557  051A                     __ccov165_end_blk18:
  5558  051A                     __ccov166_start_blk22:
  5559  051A                     l237:
  5560  051A  0020               	movlb	0	; select bank0
  5561  051B  14A7               	bsf	__ccovbit22_25/(0+8),__ccovbit22_25& (0+7)	;volatile
  5562  051C                     __ccov166_end_blk22:
  5563  051C                     __ccov167_start_blk24:
  5564  051C                     l243:
  5565  051C  0020               	movlb	0	; select bank0
  5566  051D  1427               	bsf	__ccovbit24_26/(0+8),__ccovbit24_26& (0+7)	;volatile
  5567  051E  0008               	return
  5568  051F                     __end_of_watch_dog_incrementing_timer:
  5569  051F                     
  5570                           	psect	text9
  5571  0F88                     __ptext9:	
  5572 ;; *************** function _set_watchdog_timer_4s *****************
  5573 ;; Defined at:
  5574 ;;		line 32 in file "watchdog.c"
  5575 ;; Parameters:    Size  Location     Type
  5576 ;;		None
  5577 ;; Auto vars:     Size  Location     Type
  5578 ;;		None
  5579 ;; Return value:  Size  Location     Type
  5580 ;;                  1    wreg      void 
  5581 ;; Registers used:
  5582 ;;		wreg, fsr0l, fsr0h, fsr1l, fsr1h, status,2, status,0, pclath, cstack
  5583 ;; Tracked objects:
  5584 ;;		On entry : 0/0
  5585 ;;		On exit  : 0/0
  5586 ;;		Unchanged: 0/0
  5587 ;; Data sizes:     COMMON   BANK0   BANK1   BANK2   BANK3   BANK4   BANK5   BANK6   BANK7   BANK8   BANK9  BANK10  BANK1
      +1  BANK12
  5588 ;;      Params:         0       0       0       0       0       0       0       0       0       0       0       0       
      +0       0
  5589 ;;      Locals:         0       0       0       0       0       0       0       0       0       0       0       0       
      +0       0
  5590 ;;      Temps:          0       0       0       0       0       0       0       0       0       0       0       0       
      +0       0
  5591 ;;      Totals:         0       0       0       0       0       0       0       0       0       0       0       0       
      +0       0
  5592 ;;Total ram usage:        0 bytes
  5593 ;; Hardware stack levels used: 1
  5594 ;; Hardware stack levels required when called: 6
  5595 ;; This function calls:
  5596 ;;		_printf
  5597 ;; This function is called by:
  5598 ;;		_watch_dog_incrementing_timer
  5599 ;; This function uses a non-reentrant model
  5600 ;;
  5601                           
  5602                           
  5603                           ;psect for function _set_watchdog_timer_4s
  5604  0F88                     _set_watchdog_timer_4s:
  5605                           
  5606                           ;incstack = 0
  5607                           ; Regs used in _set_watchdog_timer_4s: [wreg-fsr1h+status,2+status,0+pclath+cstack]
  5608  0F88                     l2808:
  5609                           
  5610                           ;watchdog.c: 33:     WDTCONbits.WDTPS = 0b01100;
  5611  0F88  0021               	movlb	1	; select bank1
  5612  0F89  0817               	movf	23,w	;volatile
  5613  0F8A  39C1               	andlw	-63
  5614  0F8B  3818               	iorlw	24
  5615  0F8C  0097               	movwf	23	;volatile
  5616  0F8D                     __ccov309_end_blk0:
  5617  0F8D                     __ccov310_start_blk1:
  5618  0F8D                     l2810:
  5619                           
  5620                           ;watchdog.c: 35:     printf("set_watchdog_timer_4s\r\n");
  5621  0F8D  30AC               	movlw	low (STR_21| (0+32768))
  5622  0F8E  0020               	movlb	0	; select bank0
  5623  0F8F  00DE               	movwf	printf@fmt
  5624  0F90  3090               	movlw	high (STR_21| (0+32768))
  5625  0F91  00DF               	movwf	printf@fmt+1
  5626  0F92  318F  2798  318F   	fcall	_printf
  5627  0F95                     __ccov310_end_blk1:
  5628  0F95                     __ccov311_start_blk2:
  5629  0F95                     l465:
  5630  0F95  0020               	movlb	0	; select bank0
  5631  0F96  15A1               	bsf	__ccovbit2_71/(0+8),__ccovbit2_71& (0+7)	;volatile
  5632  0F97  0008               	return
  5633  0F98                     __end_of_set_watchdog_timer_4s:
  5634  0F98                     
  5635                           	psect	text10
  5636  0F78                     __ptext10:	
  5637 ;; *************** function _set_watchdog_timer_256s *****************
  5638 ;; Defined at:
  5639 ;;		line 39 in file "watchdog.c"
  5640 ;; Parameters:    Size  Location     Type
  5641 ;;		None
  5642 ;; Auto vars:     Size  Location     Type
  5643 ;;		None
  5644 ;; Return value:  Size  Location     Type
  5645 ;;                  1    wreg      void 
  5646 ;; Registers used:
  5647 ;;		wreg, fsr0l, fsr0h, fsr1l, fsr1h, status,2, status,0, pclath, cstack
  5648 ;; Tracked objects:
  5649 ;;		On entry : 0/0
  5650 ;;		On exit  : 0/0
  5651 ;;		Unchanged: 0/0
  5652 ;; Data sizes:     COMMON   BANK0   BANK1   BANK2   BANK3   BANK4   BANK5   BANK6   BANK7   BANK8   BANK9  BANK10  BANK1
      +1  BANK12
  5653 ;;      Params:         0       0       0       0       0       0       0       0       0       0       0       0       
      +0       0
  5654 ;;      Locals:         0       0       0       0       0       0       0       0       0       0       0       0       
      +0       0
  5655 ;;      Temps:          0       0       0       0       0       0       0       0       0       0       0       0       
      +0       0
  5656 ;;      Totals:         0       0       0       0       0       0       0       0       0       0       0       0       
      +0       0
  5657 ;;Total ram usage:        0 bytes
  5658 ;; Hardware stack levels used: 1
  5659 ;; Hardware stack levels required when called: 6
  5660 ;; This function calls:
  5661 ;;		_printf
  5662 ;; This function is called by:
  5663 ;;		_watch_dog_incrementing_timer
  5664 ;; This function uses a non-reentrant model
  5665 ;;
  5666                           
  5667                           
  5668                           ;psect for function _set_watchdog_timer_256s
  5669  0F78                     _set_watchdog_timer_256s:
  5670                           
  5671                           ;incstack = 0
  5672                           ; Regs used in _set_watchdog_timer_256s: [wreg-fsr1h+status,2+status,0+pclath+cstack]
  5673  0F78                     l2812:
  5674                           
  5675                           ;watchdog.c: 40:     WDTCONbits.WDTPS = 0b10010;
  5676  0F78  0021               	movlb	1	; select bank1
  5677  0F79  0817               	movf	23,w	;volatile
  5678  0F7A  39C1               	andlw	-63
  5679  0F7B  3824               	iorlw	36
  5680  0F7C  0097               	movwf	23	;volatile
  5681  0F7D                     __ccov312_end_blk0:
  5682  0F7D                     __ccov313_start_blk1:
  5683  0F7D                     l2814:
  5684                           
  5685                           ;watchdog.c: 42:     printf("set_watchdog_timer_256s\r\n");
  5686  0F7D  307A               	movlw	low (STR_22| (0+32768))
  5687  0F7E  0020               	movlb	0	; select bank0
  5688  0F7F  00DE               	movwf	printf@fmt
  5689  0F80  3090               	movlw	high (STR_22| (0+32768))
  5690  0F81  00DF               	movwf	printf@fmt+1
  5691  0F82  318F  2798  318F   	fcall	_printf
  5692  0F85                     __ccov313_end_blk1:
  5693  0F85                     __ccov314_start_blk2:
  5694  0F85                     l468:
  5695  0F85  0020               	movlb	0	; select bank0
  5696  0F86  1521               	bsf	__ccovbit2_72/(0+8),__ccovbit2_72& (0+7)	;volatile
  5697  0F87  0008               	return
  5698  0F88                     __end_of_set_watchdog_timer_256s:
  5699  0F88                     
  5700                           	psect	text11
  5701  0F36                     __ptext11:	
  5702 ;; *************** function _set_watchdog_timer_256ms *****************
  5703 ;; Defined at:
  5704 ;;		line 23 in file "watchdog.c"
  5705 ;; Parameters:    Size  Location     Type
  5706 ;;		None
  5707 ;; Auto vars:     Size  Location     Type
  5708 ;;		None
  5709 ;; Return value:  Size  Location     Type
  5710 ;;                  1    wreg      void 
  5711 ;; Registers used:
  5712 ;;		wreg, status,2, status,0
  5713 ;; Tracked objects:
  5714 ;;		On entry : 0/0
  5715 ;;		On exit  : 0/0
  5716 ;;		Unchanged: 0/0
  5717 ;; Data sizes:     COMMON   BANK0   BANK1   BANK2   BANK3   BANK4   BANK5   BANK6   BANK7   BANK8   BANK9  BANK10  BANK1
      +1  BANK12
  5718 ;;      Params:         0       0       0       0       0       0       0       0       0       0       0       0       
      +0       0
  5719 ;;      Locals:         0       0       0       0       0       0       0       0       0       0       0       0       
      +0       0
  5720 ;;      Temps:          0       0       0       0       0       0       0       0       0       0       0       0       
      +0       0
  5721 ;;      Totals:         0       0       0       0       0       0       0       0       0       0       0       0       
      +0       0
  5722 ;;Total ram usage:        0 bytes
  5723 ;; Hardware stack levels used: 1
  5724 ;; Hardware stack levels required when called: 1
  5725 ;; This function calls:
  5726 ;;		Nothing
  5727 ;; This function is called by:
  5728 ;;		_watch_dog_incrementing_timer
  5729 ;; This function uses a non-reentrant model
  5730 ;;
  5731                           
  5732                           
  5733                           ;psect for function _set_watchdog_timer_256ms
  5734  0F36                     _set_watchdog_timer_256ms:
  5735                           
  5736                           ;incstack = 0
  5737                           ; Regs used in _set_watchdog_timer_256ms: [wreg+status,2+status,0]
  5738  0F36                     l1976:
  5739                           
  5740                           ;watchdog.c: 24:     WDTCONbits.WDTPS = 0b01000;
  5741  0F36  0021               	movlb	1	; select bank1
  5742  0F37  0817               	movf	23,w	;volatile
  5743  0F38  39C1               	andlw	-63
  5744  0F39  3810               	iorlw	16
  5745  0F3A  0097               	movwf	23	;volatile
  5746  0F3B                     __ccov304_end_blk0:
  5747  0F3B                     __ccov305_start_blk1:
  5748  0F3B                     l459:
  5749  0F3B  0020               	movlb	0	; select bank0
  5750  0F3C  16A1               	bsf	__ccovbit1_69/(0+8),__ccovbit1_69& (0+7)	;volatile
  5751  0F3D  0008               	return
  5752  0F3E                     __end_of_set_watchdog_timer_256ms:
  5753  0F3E                     
  5754                           	psect	text12
  5755  0F68                     __ptext12:	
  5756 ;; *************** function _set_watchdog_timer_1s *****************
  5757 ;; Defined at:
  5758 ;;		line 26 in file "watchdog.c"
  5759 ;; Parameters:    Size  Location     Type
  5760 ;;		None
  5761 ;; Auto vars:     Size  Location     Type
  5762 ;;		None
  5763 ;; Return value:  Size  Location     Type
  5764 ;;                  1    wreg      void 
  5765 ;; Registers used:
  5766 ;;		wreg, fsr0l, fsr0h, fsr1l, fsr1h, status,2, status,0, pclath, cstack
  5767 ;; Tracked objects:
  5768 ;;		On entry : 0/0
  5769 ;;		On exit  : 0/0
  5770 ;;		Unchanged: 0/0
  5771 ;; Data sizes:     COMMON   BANK0   BANK1   BANK2   BANK3   BANK4   BANK5   BANK6   BANK7   BANK8   BANK9  BANK10  BANK1
      +1  BANK12
  5772 ;;      Params:         0       0       0       0       0       0       0       0       0       0       0       0       
      +0       0
  5773 ;;      Locals:         0       0       0       0       0       0       0       0       0       0       0       0       
      +0       0
  5774 ;;      Temps:          0       0       0       0       0       0       0       0       0       0       0       0       
      +0       0
  5775 ;;      Totals:         0       0       0       0       0       0       0       0       0       0       0       0       
      +0       0
  5776 ;;Total ram usage:        0 bytes
  5777 ;; Hardware stack levels used: 1
  5778 ;; Hardware stack levels required when called: 6
  5779 ;; This function calls:
  5780 ;;		_printf
  5781 ;; This function is called by:
  5782 ;;		_watch_dog_incrementing_timer
  5783 ;;		_checkState1
  5784 ;; This function uses a non-reentrant model
  5785 ;;
  5786                           
  5787                           
  5788                           ;psect for function _set_watchdog_timer_1s
  5789  0F68                     _set_watchdog_timer_1s:
  5790                           
  5791                           ;incstack = 0
  5792                           ; Regs used in _set_watchdog_timer_1s: [wreg-fsr1h+status,2+status,0+pclath+cstack]
  5793  0F68                     l2804:
  5794                           
  5795                           ;watchdog.c: 27:     WDTCONbits.WDTPS = 0b01010;
  5796  0F68  0021               	movlb	1	; select bank1
  5797  0F69  0817               	movf	23,w	;volatile
  5798  0F6A  39C1               	andlw	-63
  5799  0F6B  3814               	iorlw	20
  5800  0F6C  0097               	movwf	23	;volatile
  5801  0F6D                     __ccov306_end_blk0:
  5802  0F6D                     __ccov307_start_blk1:
  5803  0F6D                     l2806:
  5804                           
  5805                           ;watchdog.c: 29:     printf("set_watchdog_timer_1s\r\n");
  5806  0F6D  3094               	movlw	low (STR_20| (0+32768))
  5807  0F6E  0020               	movlb	0	; select bank0
  5808  0F6F  00DE               	movwf	printf@fmt
  5809  0F70  3090               	movlw	high (STR_20| (0+32768))
  5810  0F71  00DF               	movwf	printf@fmt+1
  5811  0F72  318F  2798  318F   	fcall	_printf
  5812  0F75                     __ccov307_end_blk1:
  5813  0F75                     __ccov308_start_blk2:
  5814  0F75                     l462:
  5815  0F75  0020               	movlb	0	; select bank0
  5816  0F76  1621               	bsf	__ccovbit2_70/(0+8),__ccovbit2_70& (0+7)	;volatile
  5817  0F77  0008               	return
  5818  0F78                     __end_of_set_watchdog_timer_1s:
  5819  0F78                     
  5820                           	psect	text13
  5821  0F98                     __ptext13:	
  5822 ;; *************** function _printf *****************
  5823 ;; Defined at:
  5824 ;;		line 5 in file "C:\Program Files\Microchip\xc8\v2.32\pic\sources\c99\common\printf.c"
  5825 ;; Parameters:    Size  Location     Type
  5826 ;;  fmt             2   18[BANK0 ] PTR const unsigned char 
  5827 ;;		 -> STR_22(26), STR_21(24), STR_20(24), STR_19(16), 
  5828 ;;		 -> STR_18(17), STR_17(24), STR_16(21), STR_15(18), 
  5829 ;;		 -> STR_14(37), STR_13(23), STR_12(31), STR_11(20), 
  5830 ;;		 -> STR_10(18), STR_9(30), STR_8(31), STR_7(52), 
  5831 ;;		 -> STR_6(30), STR_5(19), STR_4(23), STR_3(20), 
  5832 ;;		 -> STR_2(36), STR_1(41), 
  5833 ;; Auto vars:     Size  Location     Type
  5834 ;;  ret             2    0        int 
  5835 ;;  ap              1   20[BANK0 ] PTR void [1]
  5836 ;;		 -> ?_printf(2), 
  5837 ;; Return value:  Size  Location     Type
  5838 ;;                  2   18[BANK0 ] int 
  5839 ;; Registers used:
  5840 ;;		wreg, fsr0l, fsr0h, fsr1l, fsr1h, status,2, status,0, pclath, cstack
  5841 ;; Tracked objects:
  5842 ;;		On entry : 0/0
  5843 ;;		On exit  : 0/0
  5844 ;;		Unchanged: 0/0
  5845 ;; Data sizes:     COMMON   BANK0   BANK1   BANK2   BANK3   BANK4   BANK5   BANK6   BANK7   BANK8   BANK9  BANK10  BANK1
      +1  BANK12
  5846 ;;      Params:         0       2       0       0       0       0       0       0       0       0       0       0       
      +0       0
  5847 ;;      Locals:         0       1       0       0       0       0       0       0       0       0       0       0       
      +0       0
  5848 ;;      Temps:          1       0       0       0       0       0       0       0       0       0       0       0       
      +0       0
  5849 ;;      Totals:         1       3       0       0       0       0       0       0       0       0       0       0       
      +0       0
  5850 ;;Total ram usage:        4 bytes
  5851 ;; Hardware stack levels used: 1
  5852 ;; Hardware stack levels required when called: 5
  5853 ;; This function calls:
  5854 ;;		_vfprintf
  5855 ;; This function is called by:
  5856 ;;		_main
  5857 ;;		_checkState1
  5858 ;;		_set_watchdog_timer_1s
  5859 ;;		_set_watchdog_timer_4s
  5860 ;;		_set_watchdog_timer_256s
  5861 ;; This function uses a non-reentrant model
  5862 ;;
  5863                           
  5864                           
  5865                           ;psect for function _printf
  5866  0F98                     _printf:
  5867  0F98                     l2798:	
  5868                           ;incstack = 0
  5869                           ; Regs used in _printf: [wreg-fsr1h+status,2+status,0+pclath+cstack]
  5870                           
  5871  0F98  3060               	movlw	(low ((?_printf| 0+2)))& (0+255)
  5872  0F99  00FC               	movwf	??_printf
  5873  0F9A  087C               	movf	??_printf,w
  5874  0F9B  0020               	movlb	0	; select bank0
  5875  0F9C  00E0               	movwf	printf@ap
  5876  0F9D                     l2800:
  5877  0F9D  085F               	movf	printf@fmt+1,w
  5878  0F9E  00D9               	movwf	vfprintf@fmt+1
  5879  0F9F  085E               	movf	printf@fmt,w
  5880  0FA0  00D8               	movwf	vfprintf@fmt
  5881  0FA1  3060               	movlw	(low (printf@ap| 0))& (0+255)
  5882  0FA2  00FC               	movwf	??_printf
  5883  0FA3  087C               	movf	??_printf,w
  5884  0FA4  00DA               	movwf	vfprintf@ap
  5885  0FA5  3000               	movlw	0
  5886  0FA6  3187  279C  318F   	fcall	_vfprintf
  5887  0FA9                     l1087:
  5888  0FA9  0008               	return
  5889  0FAA                     __end_of_printf:
  5890                           
  5891                           	psect	text14
  5892  079C                     __ptext14:	
  5893 ;; *************** function _vfprintf *****************
  5894 ;; Defined at:
  5895 ;;		line 1390 in file "C:\Program Files\Microchip\xc8\v2.32\pic\sources\c99\common\doprnt.c"
  5896 ;; Parameters:    Size  Location     Type
  5897 ;;  fp              1    wreg     PTR struct _IO_FILE
  5898 ;;		 -> NULL(0), 
  5899 ;;  fmt             2   12[BANK0 ] PTR const unsigned char 
  5900 ;;		 -> STR_22(26), STR_21(24), STR_20(24), STR_19(16), 
  5901 ;;		 -> STR_18(17), STR_17(24), STR_16(21), STR_15(18), 
  5902 ;;		 -> STR_14(37), STR_13(23), STR_12(31), STR_11(20), 
  5903 ;;		 -> STR_10(18), STR_9(30), STR_8(31), STR_7(52), 
  5904 ;;		 -> STR_6(30), STR_5(19), STR_4(23), STR_3(20), 
  5905 ;;		 -> STR_2(36), STR_1(41), 
  5906 ;;  ap              1   14[BANK0 ] PTR PTR void 
  5907 ;;		 -> printf@ap(1), 
  5908 ;; Auto vars:     Size  Location     Type
  5909 ;;  fp              1   15[BANK0 ] PTR struct _IO_FILE
  5910 ;;		 -> NULL(0), 
  5911 ;;  cfmt            2   16[BANK0 ] PTR unsigned char 
  5912 ;;		 -> STR_22(26), STR_21(24), STR_20(24), STR_19(16), 
  5913 ;;		 -> STR_18(17), STR_17(24), STR_16(21), STR_15(18), 
  5914 ;;		 -> STR_14(37), STR_13(23), STR_12(31), STR_11(20), 
  5915 ;;		 -> STR_10(18), STR_9(30), STR_8(31), STR_7(52), 
  5916 ;;		 -> STR_6(30), STR_5(19), STR_4(23), STR_3(20), 
  5917 ;;		 -> STR_2(36), STR_1(41), 
  5918 ;; Return value:  Size  Location     Type
  5919 ;;                  2   12[BANK0 ] int 
  5920 ;; Registers used:
  5921 ;;		wreg, fsr0l, fsr0h, fsr1l, fsr1h, status,2, status,0, pclath, cstack
  5922 ;; Tracked objects:
  5923 ;;		On entry : 0/0
  5924 ;;		On exit  : 0/0
  5925 ;;		Unchanged: 0/0
  5926 ;; Data sizes:     COMMON   BANK0   BANK1   BANK2   BANK3   BANK4   BANK5   BANK6   BANK7   BANK8   BANK9  BANK10  BANK1
      +1  BANK12
  5927 ;;      Params:         0       3       0       0       0       0       0       0       0       0       0       0       
      +0       0
  5928 ;;      Locals:         0       3       0       0       0       0       0       0       0       0       0       0       
      +0       0
  5929 ;;      Temps:          2       0       0       0       0       0       0       0       0       0       0       0       
      +0       0
  5930 ;;      Totals:         2       6       0       0       0       0       0       0       0       0       0       0       
      +0       0
  5931 ;;Total ram usage:        8 bytes
  5932 ;; Hardware stack levels used: 1
  5933 ;; Hardware stack levels required when called: 4
  5934 ;; This function calls:
  5935 ;;		_vfpfcnvrt
  5936 ;; This function is called by:
  5937 ;;		_printf
  5938 ;; This function uses a non-reentrant model
  5939 ;;
  5940                           
  5941                           
  5942                           ;psect for function _vfprintf
  5943  079C                     _vfprintf:
  5944                           
  5945                           ;incstack = 0
  5946                           ; Regs used in _vfprintf: [wreg-fsr1h+status,2+status,0+pclath+cstack]
  5947                           ;vfprintf@fp stored from wreg
  5948  079C  0020               	movlb	0	; select bank0
  5949  079D  00DB               	movwf	vfprintf@fp
  5950  079E                     l2786:
  5951                           
  5952                           ;C:\Program Files\Microchip\xc8\v2.32\pic\sources\c99\common\doprnt.c: 1390: int vfprint
      +                          f(FILE *fp, const char *fmt, va_list ap);C:\Program Files\Microchip\xc8\v2.32\pic\source
      +                          s\c99\common\doprnt.c: 1391: {;C:\Program Files\Microchip\xc8\v2.32\pic\sources\c99\comm
      +                          on\doprnt.c: 1393:     char *cfmt;;C:\Program Files\Microchip\xc8\v2.32\pic\sources\c99\
      +                          common\doprnt.c: 1395:     cfmt = (char *)fmt;
  5953  079E  0859               	movf	vfprintf@fmt+1,w
  5954  079F  00DD               	movwf	vfprintf@cfmt+1
  5955  07A0  0858               	movf	vfprintf@fmt,w
  5956  07A1  00DC               	movwf	vfprintf@cfmt
  5957  07A2                     l2788:
  5958                           
  5959                           ;C:\Program Files\Microchip\xc8\v2.32\pic\sources\c99\common\doprnt.c: 1396:     nout = 
      +                          0;
  5960  07A2  01A8               	clrf	_nout
  5961  07A3  01A9               	clrf	_nout+1
  5962                           
  5963                           ;C:\Program Files\Microchip\xc8\v2.32\pic\sources\c99\common\doprnt.c: 1397:     while (
      +                          *cfmt) {
  5964  07A4  2FB6               	goto	l2792
  5965  07A5                     l2790:
  5966                           
  5967                           ;C:\Program Files\Microchip\xc8\v2.32\pic\sources\c99\common\doprnt.c: 1398:         nou
      +                          t += vfpfcnvrt(fp, &cfmt, ap);
  5968  07A5  305C               	movlw	(low (vfprintf@cfmt| 0))& (0+255)
  5969  07A6  00FA               	movwf	??_vfprintf
  5970  07A7  087A               	movf	??_vfprintf,w
  5971  07A8  00D1               	movwf	vfpfcnvrt@fmt
  5972  07A9  085A               	movf	vfprintf@ap,w
  5973  07AA  00FB               	movwf	??_vfprintf+1
  5974  07AB  087B               	movf	??_vfprintf+1,w
  5975  07AC  00D2               	movwf	vfpfcnvrt@ap
  5976  07AD  085B               	movf	vfprintf@fp,w
  5977  07AE  3185  251F  3187   	fcall	_vfpfcnvrt
  5978  07B1  0020               	movlb	0	; select bank0
  5979  07B2  0851               	movf	?_vfpfcnvrt,w
  5980  07B3  07A8               	addwf	_nout,f
  5981  07B4  0852               	movf	?_vfpfcnvrt+1,w
  5982  07B5  3DA9               	addwfc	_nout+1,f
  5983  07B6                     l2792:
  5984                           
  5985                           ;C:\Program Files\Microchip\xc8\v2.32\pic\sources\c99\common\doprnt.c: 1397:     while (
      +                          *cfmt) {
  5986  07B6  085C               	movf	vfprintf@cfmt,w
  5987  07B7  0084               	movwf	4
  5988  07B8  085D               	movf	vfprintf@cfmt+1,w
  5989  07B9  0085               	movwf	5
  5990  07BA  0012               	moviw fsr0++
  5991  07BB  1D03               	btfss	3,2
  5992  07BC  2FBE               	goto	u1211
  5993  07BD  2FBF               	goto	u1210
  5994  07BE                     u1211:
  5995  07BE  2FA5               	goto	l2790
  5996  07BF                     u1210:
  5997  07BF                     l2794:
  5998                           
  5999                           ;C:\Program Files\Microchip\xc8\v2.32\pic\sources\c99\common\doprnt.c: 1400:     return 
      +                          nout;
  6000  07BF  0829               	movf	_nout+1,w
  6001  07C0  00D9               	movwf	?_vfprintf+1
  6002  07C1  0828               	movf	_nout,w
  6003  07C2  00D8               	movwf	?_vfprintf
  6004  07C3                     l1126:
  6005  07C3  0008               	return
  6006  07C4                     __end_of_vfprintf:
  6007                           
  6008                           	psect	text15
  6009  051F                     __ptext15:	
  6010 ;; *************** function _vfpfcnvrt *****************
  6011 ;; Defined at:
  6012 ;;		line 692 in file "C:\Program Files\Microchip\xc8\v2.32\pic\sources\c99\common\doprnt.c"
  6013 ;; Parameters:    Size  Location     Type
  6014 ;;  fp              1    wreg     PTR struct _IO_FILE
  6015 ;;		 -> NULL(0), 
  6016 ;;  fmt             1    5[BANK0 ] PTR PTR unsigned char 
  6017 ;;		 -> vfprintf@cfmt(2), 
  6018 ;;  ap              1    6[BANK0 ] PTR PTR void 
  6019 ;;		 -> printf@ap(1), 
  6020 ;; Auto vars:     Size  Location     Type
  6021 ;;  fp              1    6[COMMON] PTR struct _IO_FILE
  6022 ;;		 -> NULL(0), 
  6023 ;;  llu             8    0        unsigned long long 
  6024 ;;  ll              8    0        long long 
  6025 ;;  f               4    0        long long 
  6026 ;;  ct              3    0        unsigned char [3]
  6027 ;;  vp              2    0        PTR void 
  6028 ;;  i               2    0        int 
  6029 ;;  done            2    0        int 
  6030 ;;  cp              2    0        PTR unsigned char 
  6031 ;;  c               1    0        unsigned char 
  6032 ;; Return value:  Size  Location     Type
  6033 ;;                  2    5[BANK0 ] int 
  6034 ;; Registers used:
  6035 ;;		wreg, fsr0l, fsr0h, fsr1l, fsr1h, status,2, status,0, pclath, cstack
  6036 ;; Tracked objects:
  6037 ;;		On entry : 0/0
  6038 ;;		On exit  : 0/0
  6039 ;;		Unchanged: 0/0
  6040 ;; Data sizes:     COMMON   BANK0   BANK1   BANK2   BANK3   BANK4   BANK5   BANK6   BANK7   BANK8   BANK9  BANK10  BANK1
      +1  BANK12
  6041 ;;      Params:         0       2       0       0       0       0       0       0       0       0       0       0       
      +0       0
  6042 ;;      Locals:         1       0       0       0       0       0       0       0       0       0       0       0       
      +0       0
  6043 ;;      Temps:          0       5       0       0       0       0       0       0       0       0       0       0       
      +0       0
  6044 ;;      Totals:         1       7       0       0       0       0       0       0       0       0       0       0       
      +0       0
  6045 ;;Total ram usage:        8 bytes
  6046 ;; Hardware stack levels used: 1
  6047 ;; Hardware stack levels required when called: 3
  6048 ;; This function calls:
  6049 ;;		_fputc
  6050 ;; This function is called by:
  6051 ;;		_vfprintf
  6052 ;; This function uses a non-reentrant model
  6053 ;;
  6054                           
  6055                           
  6056                           ;psect for function _vfpfcnvrt
  6057  051F                     _vfpfcnvrt:
  6058                           
  6059                           ;incstack = 0
  6060                           ; Regs used in _vfpfcnvrt: [wreg-fsr1h+status,2+status,0+pclath+cstack]
  6061                           ;vfpfcnvrt@fp stored from wreg
  6062  051F  00F9               	movwf	vfpfcnvrt@fp
  6063  0520                     l2754:
  6064                           
  6065                           ;C:\Program Files\Microchip\xc8\v2.32\pic\sources\c99\common\doprnt.c: 692: static int v
      +                          fpfcnvrt(FILE *fp, char *fmt[], va_list ap);C:\Program Files\Microchip\xc8\v2.32\pic\sou
      +                          rces\c99\common\doprnt.c: 693: {;C:\Program Files\Microchip\xc8\v2.32\pic\sources\c99\co
      +                          mmon\doprnt.c: 694:     char c, *cp, ct[3];;C:\Program Files\Microchip\xc8\v2.32\pic\sou
      +                          rces\c99\common\doprnt.c: 695:     int done, i;;C:\Program Files\Microchip\xc8\v2.32\pic
      +                          \sources\c99\common\doprnt.c: 696:     long long ll;;C:\Program Files\Microchip\xc8\v2.3
      +                          2\pic\sources\c99\common\doprnt.c: 697:     unsigned long long llu;
  6066  0520  0020               	movlb	0	; select bank0
  6067  0521  0851               	movf	vfpfcnvrt@fmt,w
  6068  0522  0086               	movwf	6
  6069  0523  0187               	clrf	7
  6070  0524  3F40               	moviw [0]fsr1
  6071  0525  00D3               	movwf	??_vfpfcnvrt
  6072  0526  3F41               	moviw [1]fsr1
  6073  0527  00D4               	movwf	??_vfpfcnvrt+1
  6074  0528  0853               	movf	??_vfpfcnvrt,w
  6075  0529  0084               	movwf	4
  6076  052A  0854               	movf	??_vfpfcnvrt+1,w
  6077  052B  0085               	movwf	5
  6078  052C  0012               	moviw fsr0++
  6079  052D  3A25               	xorlw	37
  6080  052E  1D03               	btfss	3,2
  6081  052F  2D31               	goto	u1191
  6082  0530  2D32               	goto	u1190
  6083  0531                     u1191:
  6084  0531  2D77               	goto	l2778
  6085  0532                     u1190:
  6086  0532                     l2756:
  6087                           
  6088                           ;C:\Program Files\Microchip\xc8\v2.32\pic\sources\c99\common\doprnt.c: 703:         ++*f
      +                          mt;
  6089  0532  0851               	movf	vfpfcnvrt@fmt,w
  6090  0533  0086               	movwf	6
  6091  0534  0187               	clrf	7
  6092  0535  3001               	movlw	1
  6093  0536  0781               	addwf	1,f
  6094  0537  3141               	addfsr 1,1
  6095  0538  1803               	skipnc
  6096  0539  0A81               	incf	1,f
  6097  053A                     l2758:
  6098                           
  6099                           ;C:\Program Files\Microchip\xc8\v2.32\pic\sources\c99\common\doprnt.c: 705:         flag
      +                          s = width = 0;
  6100  053A  01AA               	clrf	_width
  6101  053B  01AB               	clrf	_width+1
  6102  053C  01AE               	clrf	_flags
  6103  053D  01AF               	clrf	_flags+1
  6104  053E                     l2760:
  6105                           
  6106                           ;C:\Program Files\Microchip\xc8\v2.32\pic\sources\c99\common\doprnt.c: 706:         prec
      +                           = -1;
  6107  053E  30FF               	movlw	255
  6108  053F  00AC               	movwf	_prec
  6109  0540  30FF               	movlw	255
  6110  0541  00AD               	movwf	_prec+1
  6111  0542                     l2762:
  6112                           
  6113                           ;C:\Program Files\Microchip\xc8\v2.32\pic\sources\c99\common\doprnt.c: 1372:         if 
      +                          ((*fmt)[0] == '%') {
  6114  0542  0851               	movf	vfpfcnvrt@fmt,w
  6115  0543  0086               	movwf	6
  6116  0544  0187               	clrf	7
  6117  0545  3F40               	moviw [0]fsr1
  6118  0546  00D3               	movwf	??_vfpfcnvrt
  6119  0547  3F41               	moviw [1]fsr1
  6120  0548  00D4               	movwf	??_vfpfcnvrt+1
  6121  0549  0853               	movf	??_vfpfcnvrt,w
  6122  054A  0084               	movwf	4
  6123  054B  0854               	movf	??_vfpfcnvrt+1,w
  6124  054C  0085               	movwf	5
  6125  054D  0012               	moviw fsr0++
  6126  054E  3A25               	xorlw	37
  6127  054F  1D03               	btfss	3,2
  6128  0550  2D52               	goto	u1201
  6129  0551  2D53               	goto	u1200
  6130  0552                     u1201:
  6131  0552  2D6C               	goto	l2772
  6132  0553                     u1200:
  6133  0553                     l2764:
  6134                           
  6135                           ;C:\Program Files\Microchip\xc8\v2.32\pic\sources\c99\common\doprnt.c: 1373:            
      +                           ++*fmt;
  6136  0553  0851               	movf	vfpfcnvrt@fmt,w
  6137  0554  0086               	movwf	6
  6138  0555  0187               	clrf	7
  6139  0556  3001               	movlw	1
  6140  0557  0781               	addwf	1,f
  6141  0558  3141               	addfsr 1,1
  6142  0559  1803               	skipnc
  6143  055A  0A81               	incf	1,f
  6144  055B                     l2766:
  6145                           
  6146                           ;C:\Program Files\Microchip\xc8\v2.32\pic\sources\c99\common\doprnt.c: 1374:            
      +                           fputc((int)'%', fp);
  6147  055B  3025               	movlw	37
  6148  055C  00F6               	movwf	fputc@c
  6149  055D  3000               	movlw	0
  6150  055E  00F7               	movwf	fputc@c+1
  6151  055F  0879               	movf	vfpfcnvrt@fp,w
  6152  0560  00D3               	movwf	??_vfpfcnvrt
  6153  0561  0853               	movf	??_vfpfcnvrt,w
  6154  0562  00F8               	movwf	fputc@fp
  6155  0563  3186  2694  3185   	fcall	_fputc
  6156  0566                     l2768:
  6157                           
  6158                           ;C:\Program Files\Microchip\xc8\v2.32\pic\sources\c99\common\doprnt.c: 1375:            
      +                           return 1;
  6159  0566  3001               	movlw	1
  6160  0567  0020               	movlb	0	; select bank0
  6161  0568  00D1               	movwf	?_vfpfcnvrt
  6162  0569  3000               	movlw	0
  6163  056A  00D2               	movwf	?_vfpfcnvrt+1
  6164  056B  2D9A               	goto	l1120
  6165  056C                     l2772:
  6166                           
  6167                           ;C:\Program Files\Microchip\xc8\v2.32\pic\sources\c99\common\doprnt.c: 1379:         ++*
      +                          fmt;
  6168  056C  0851               	movf	vfpfcnvrt@fmt,w
  6169  056D  0086               	movwf	6
  6170  056E  0187               	clrf	7
  6171  056F  3001               	movlw	1
  6172  0570  0781               	addwf	1,f
  6173  0571  3141               	addfsr 1,1
  6174  0572  1803               	skipnc
  6175  0573  0A81               	incf	1,f
  6176  0574                     l2774:
  6177                           
  6178                           ;C:\Program Files\Microchip\xc8\v2.32\pic\sources\c99\common\doprnt.c: 1380:         ret
      +                          urn 0;
  6179  0574  01D1               	clrf	?_vfpfcnvrt
  6180  0575  01D2               	clrf	?_vfpfcnvrt+1
  6181  0576  2D9A               	goto	l1120
  6182  0577                     l2778:
  6183                           
  6184                           ;C:\Program Files\Microchip\xc8\v2.32\pic\sources\c99\common\doprnt.c: 1384:     fputc((
      +                          int)(*fmt)[0], fp);
  6185  0577  0851               	movf	vfpfcnvrt@fmt,w
  6186  0578  0086               	movwf	6
  6187  0579  0187               	clrf	7
  6188  057A  3F40               	moviw [0]fsr1
  6189  057B  00D3               	movwf	??_vfpfcnvrt
  6190  057C  3F41               	moviw [1]fsr1
  6191  057D  00D4               	movwf	??_vfpfcnvrt+1
  6192  057E  0853               	movf	??_vfpfcnvrt,w
  6193  057F  0084               	movwf	4
  6194  0580  0854               	movf	??_vfpfcnvrt+1,w
  6195  0581  0085               	movwf	5
  6196  0582  0800               	movf	0,w	;code access
  6197  0583  00D5               	movwf	??_vfpfcnvrt+2
  6198  0584  01D6               	clrf	??_vfpfcnvrt+3
  6199  0585  0855               	movf	??_vfpfcnvrt+2,w
  6200  0586  00F6               	movwf	fputc@c
  6201  0587  0856               	movf	??_vfpfcnvrt+3,w
  6202  0588  00F7               	movwf	fputc@c+1
  6203  0589  0879               	movf	vfpfcnvrt@fp,w
  6204  058A  00D7               	movwf	??_vfpfcnvrt+4
  6205  058B  0857               	movf	??_vfpfcnvrt+4,w
  6206  058C  00F8               	movwf	fputc@fp
  6207  058D  3186  2694  3185   	fcall	_fputc
  6208  0590                     l2780:
  6209                           
  6210                           ;C:\Program Files\Microchip\xc8\v2.32\pic\sources\c99\common\doprnt.c: 1385:     ++*fmt;
  6211  0590  0020               	movlb	0	; select bank0
  6212  0591  0851               	movf	vfpfcnvrt@fmt,w
  6213  0592  0086               	movwf	6
  6214  0593  0187               	clrf	7
  6215  0594  3001               	movlw	1
  6216  0595  0781               	addwf	1,f
  6217  0596  3141               	addfsr 1,1
  6218  0597  1803               	skipnc
  6219  0598  0A81               	incf	1,f
  6220  0599  2D66               	goto	l2768
  6221  059A                     l1120:
  6222  059A  0008               	return
  6223  059B                     __end_of_vfpfcnvrt:
  6224                           
  6225                           	psect	text16
  6226  0694                     __ptext16:	
  6227 ;; *************** function _fputc *****************
  6228 ;; Defined at:
  6229 ;;		line 8 in file "C:\Program Files\Microchip\xc8\v2.32\pic\sources\c99\common\nf_fputc.c"
  6230 ;; Parameters:    Size  Location     Type
  6231 ;;  c               2    3[COMMON] int 
  6232 ;;  fp              1    5[COMMON] PTR struct _IO_FILE
  6233 ;;		 -> NULL(0), 
  6234 ;; Auto vars:     Size  Location     Type
  6235 ;;		None
  6236 ;; Return value:  Size  Location     Type
  6237 ;;                  2    3[COMMON] int 
  6238 ;; Registers used:
  6239 ;;		wreg, fsr1l, fsr1h, status,2, status,0, pclath, cstack
  6240 ;; Tracked objects:
  6241 ;;		On entry : 0/0
  6242 ;;		On exit  : 0/0
  6243 ;;		Unchanged: 0/0
  6244 ;; Data sizes:     COMMON   BANK0   BANK1   BANK2   BANK3   BANK4   BANK5   BANK6   BANK7   BANK8   BANK9  BANK10  BANK1
      +1  BANK12
  6245 ;;      Params:         3       0       0       0       0       0       0       0       0       0       0       0       
      +0       0
  6246 ;;      Locals:         0       0       0       0       0       0       0       0       0       0       0       0       
      +0       0
  6247 ;;      Temps:          0       5       0       0       0       0       0       0       0       0       0       0       
      +0       0
  6248 ;;      Totals:         3       5       0       0       0       0       0       0       0       0       0       0       
      +0       0
  6249 ;;Total ram usage:        8 bytes
  6250 ;; Hardware stack levels used: 1
  6251 ;; Hardware stack levels required when called: 2
  6252 ;; This function calls:
  6253 ;;		_putch
  6254 ;; This function is called by:
  6255 ;;		_vfpfcnvrt
  6256 ;; This function uses a non-reentrant model
  6257 ;;
  6258                           
  6259                           
  6260                           ;psect for function _fputc
  6261  0694                     _fputc:
  6262  0694                     l2740:	
  6263                           ;incstack = 0
  6264                           ; Regs used in _fputc: [wreg+fsr1l+fsr1h+status,2+status,0+pclath+cstack]
  6265                           
  6266  0694  0878               	movf	fputc@fp,w
  6267  0695  1903               	btfsc	3,2
  6268  0696  2E98               	goto	u1151
  6269  0697  2E99               	goto	u1150
  6270  0698                     u1151:
  6271  0698  2E9E               	goto	l2744
  6272  0699                     u1150:
  6273  0699                     l2742:
  6274  0699  0878               	movf	fputc@fp,w
  6275  069A  1D03               	btfss	3,2
  6276  069B  2E9D               	goto	u1161
  6277  069C  2E9E               	goto	u1160
  6278  069D                     u1161:
  6279  069D  2EA3               	goto	l2746
  6280  069E                     u1160:
  6281  069E                     l2744:
  6282  069E  0876               	movf	fputc@c,w
  6283  069F  318F  273E  3186   	fcall	_putch
  6284  06A2  2ED3               	goto	l1138
  6285  06A3                     l2746:
  6286  06A3  0878               	movf	fputc@fp,w
  6287  06A4  3E03               	addlw	3
  6288  06A5  0086               	movwf	6
  6289  06A6  0187               	clrf	7
  6290  06A7  0016               	moviw fsr1++
  6291  06A8  0401               	iorwf	1,w
  6292  06A9  1903               	btfsc	3,2
  6293  06AA  2EAC               	goto	u1171
  6294  06AB  2EAD               	goto	u1170
  6295  06AC                     u1171:
  6296  06AC  2ECB               	goto	l2750
  6297  06AD                     u1170:
  6298  06AD                     l2748:
  6299  06AD  0878               	movf	fputc@fp,w
  6300  06AE  3E03               	addlw	3
  6301  06AF  0086               	movwf	6
  6302  06B0  0187               	clrf	7
  6303  06B1  3F40               	moviw [0]fsr1
  6304  06B2  0020               	movlb	0	; select bank0
  6305  06B3  00CC               	movwf	??_fputc
  6306  06B4  3F41               	moviw [1]fsr1
  6307  06B5  00CD               	movwf	??_fputc+1
  6308  06B6  0A78               	incf	fputc@fp,w
  6309  06B7  0086               	movwf	6
  6310  06B8  0187               	clrf	7
  6311  06B9  3F40               	moviw [0]fsr1
  6312  06BA  00CE               	movwf	??_fputc+2
  6313  06BB  3F41               	moviw [1]fsr1
  6314  06BC  00CF               	movwf	??_fputc+3
  6315  06BD  084F               	movf	??_fputc+3,w
  6316  06BE  3A80               	xorlw	128
  6317  06BF  00D0               	movwf	??_fputc+4
  6318  06C0  084D               	movf	??_fputc+1,w
  6319  06C1  3A80               	xorlw	128
  6320  06C2  0250               	subwf	??_fputc+4,w
  6321  06C3  1D03               	skipz
  6322  06C4  2EC7               	goto	u1185
  6323  06C5  084C               	movf	??_fputc,w
  6324  06C6  024E               	subwf	??_fputc+2,w
  6325  06C7                     u1185:
  6326  06C7  1803               	skipnc
  6327  06C8  2ECA               	goto	u1181
  6328  06C9  2ECB               	goto	u1180
  6329  06CA                     u1181:
  6330  06CA  2ED3               	goto	l1138
  6331  06CB                     u1180:
  6332  06CB                     l2750:
  6333  06CB  0A78               	incf	fputc@fp,w
  6334  06CC  0086               	movwf	6
  6335  06CD  0187               	clrf	7
  6336  06CE  3001               	movlw	1
  6337  06CF  0781               	addwf	1,f
  6338  06D0  3141               	addfsr 1,1
  6339  06D1  1803               	skipnc
  6340  06D2  0A81               	incf	1,f
  6341  06D3                     l1138:
  6342  06D3  0008               	return
  6343  06D4                     __end_of_fputc:
  6344                           
  6345                           	psect	text17
  6346  0F3E                     __ptext17:	
  6347 ;; *************** function _putch *****************
  6348 ;; Defined at:
  6349 ;;		line 39 in file "usart.c"
  6350 ;; Parameters:    Size  Location     Type
  6351 ;;  data            1    wreg     unsigned char 
  6352 ;; Auto vars:     Size  Location     Type
  6353 ;;  data            1    2[COMMON] unsigned char 
  6354 ;; Return value:  Size  Location     Type
  6355 ;;                  1    wreg      void 
  6356 ;; Registers used:
  6357 ;;		wreg
  6358 ;; Tracked objects:
  6359 ;;		On entry : 0/0
  6360 ;;		On exit  : 0/0
  6361 ;;		Unchanged: 0/0
  6362 ;; Data sizes:     COMMON   BANK0   BANK1   BANK2   BANK3   BANK4   BANK5   BANK6   BANK7   BANK8   BANK9  BANK10  BANK1
      +1  BANK12
  6363 ;;      Params:         0       0       0       0       0       0       0       0       0       0       0       0       
      +0       0
  6364 ;;      Locals:         1       0       0       0       0       0       0       0       0       0       0       0       
      +0       0
  6365 ;;      Temps:          0       0       0       0       0       0       0       0       0       0       0       0       
      +0       0
  6366 ;;      Totals:         1       0       0       0       0       0       0       0       0       0       0       0       
      +0       0
  6367 ;;Total ram usage:        1 bytes
  6368 ;; Hardware stack levels used: 1
  6369 ;; Hardware stack levels required when called: 1
  6370 ;; This function calls:
  6371 ;;		Nothing
  6372 ;; This function is called by:
  6373 ;;		_fputc
  6374 ;; This function uses a non-reentrant model
  6375 ;;
  6376                           
  6377                           
  6378                           ;psect for function _putch
  6379  0F3E                     _putch:
  6380                           
  6381                           ;incstack = 0
  6382                           ; Regs used in _putch: [wreg]
  6383                           ;putch@data stored from wreg
  6384  0F3E  00F5               	movwf	putch@data
  6385  0F3F                     l1904:
  6386  0F3F                     l431:	
  6387                           ;usart.c: 39: void putch(char data);usart.c: 40: {;usart.c: 41:     while(!TXIF);
  6388                           
  6389  0F3F  0020               	movlb	0	; select bank0
  6390  0F40  1E11               	btfss	17,4	;volatile
  6391  0F41  2F43               	goto	u531
  6392  0F42  2F44               	goto	u530
  6393  0F43                     u531:
  6394  0F43  2F3F               	goto	l431
  6395  0F44                     __ccov288_end_blk2:
  6396  0F44                     u530:
  6397  0F44                     __ccov289_start_blk4:
  6398  0F44                     l1906:
  6399                           
  6400                           ;usart.c: 42:     TXREG = data;
  6401  0F44  0875               	movf	putch@data,w
  6402  0F45  0023               	movlb	3	; select bank3
  6403  0F46  009A               	movwf	26	;volatile
  6404  0F47                     __ccov289_end_blk4:
  6405  0F47                     __ccov290_start_blk5:
  6406  0F47                     l434:
  6407  0F47  0020               	movlb	0	; select bank0
  6408  0F48  17A1               	bsf	__ccovbit5_67/(0+8),__ccovbit5_67& (0+7)	;volatile
  6409  0F49  0008               	return
  6410  0F4A                     __end_of_putch:
  6411  0F4A                     
  6412                           	psect	text18
  6413  0F2E                     __ptext18:	
  6414 ;; *************** function _set_watchdog_timer_128ms *****************
  6415 ;; Defined at:
  6416 ;;		line 20 in file "watchdog.c"
  6417 ;; Parameters:    Size  Location     Type
  6418 ;;		None
  6419 ;; Auto vars:     Size  Location     Type
  6420 ;;		None
  6421 ;; Return value:  Size  Location     Type
  6422 ;;                  1    wreg      void 
  6423 ;; Registers used:
  6424 ;;		wreg, status,2, status,0
  6425 ;; Tracked objects:
  6426 ;;		On entry : 0/0
  6427 ;;		On exit  : 0/0
  6428 ;;		Unchanged: 0/0
  6429 ;; Data sizes:     COMMON   BANK0   BANK1   BANK2   BANK3   BANK4   BANK5   BANK6   BANK7   BANK8   BANK9  BANK10  BANK1
      +1  BANK12
  6430 ;;      Params:         0       0       0       0       0       0       0       0       0       0       0       0       
      +0       0
  6431 ;;      Locals:         0       0       0       0       0       0       0       0       0       0       0       0       
      +0       0
  6432 ;;      Temps:          0       0       0       0       0       0       0       0       0       0       0       0       
      +0       0
  6433 ;;      Totals:         0       0       0       0       0       0       0       0       0       0       0       0       
      +0       0
  6434 ;;Total ram usage:        0 bytes
  6435 ;; Hardware stack levels used: 1
  6436 ;; Hardware stack levels required when called: 1
  6437 ;; This function calls:
  6438 ;;		Nothing
  6439 ;; This function is called by:
  6440 ;;		_main
  6441 ;;		_watch_dog_incrementing_timer
  6442 ;;		_checkState1
  6443 ;; This function uses a non-reentrant model
  6444 ;;
  6445                           
  6446                           
  6447                           ;psect for function _set_watchdog_timer_128ms
  6448  0F2E                     _set_watchdog_timer_128ms:
  6449                           
  6450                           ;incstack = 0
  6451                           ; Regs used in _set_watchdog_timer_128ms: [wreg+status,2+status,0]
  6452  0F2E                     l1974:
  6453                           
  6454                           ;watchdog.c: 21:     WDTCONbits.WDTPS = 0b00111;
  6455  0F2E  0021               	movlb	1	; select bank1
  6456  0F2F  0817               	movf	23,w	;volatile
  6457  0F30  39C1               	andlw	-63
  6458  0F31  380E               	iorlw	14
  6459  0F32  0097               	movwf	23	;volatile
  6460  0F33                     __ccov302_end_blk0:
  6461  0F33                     __ccov303_start_blk1:
  6462  0F33                     l456:
  6463  0F33  0020               	movlb	0	; select bank0
  6464  0F34  1721               	bsf	__ccovbit1_68/(0+8),__ccovbit1_68& (0+7)	;volatile
  6465  0F35  0008               	return
  6466  0F36                     __end_of_set_watchdog_timer_128ms:
  6467  0F36                     
  6468                           	psect	text19
  6469  06D4                     __ptext19:	
  6470 ;; *************** function _getBatteryVoltage *****************
  6471 ;; Defined at:
  6472 ;;		line 418 in file "main.c"
  6473 ;; Parameters:    Size  Location     Type
  6474 ;;		None
  6475 ;; Auto vars:     Size  Location     Type
  6476 ;;  adc_val         2    7[COMMON] int 
  6477 ;; Return value:  Size  Location     Type
  6478 ;;                  2    2[COMMON] int 
  6479 ;; Registers used:
  6480 ;;		wreg, status,2, status,0
  6481 ;; Tracked objects:
  6482 ;;		On entry : 0/0
  6483 ;;		On exit  : 0/0
  6484 ;;		Unchanged: 0/0
  6485 ;; Data sizes:     COMMON   BANK0   BANK1   BANK2   BANK3   BANK4   BANK5   BANK6   BANK7   BANK8   BANK9  BANK10  BANK1
      +1  BANK12
  6486 ;;      Params:         2       0       0       0       0       0       0       0       0       0       0       0       
      +0       0
  6487 ;;      Locals:         2       0       0       0       0       0       0       0       0       0       0       0       
      +0       0
  6488 ;;      Temps:          3       0       0       0       0       0       0       0       0       0       0       0       
      +0       0
  6489 ;;      Totals:         7       0       0       0       0       0       0       0       0       0       0       0       
      +0       0
  6490 ;;Total ram usage:        7 bytes
  6491 ;; Hardware stack levels used: 1
  6492 ;; Hardware stack levels required when called: 1
  6493 ;; This function calls:
  6494 ;;		Nothing
  6495 ;; This function is called by:
  6496 ;;		_main
  6497 ;;		_checkState1
  6498 ;; This function uses a non-reentrant model
  6499 ;;
  6500                           
  6501                           
  6502                           ;psect for function _getBatteryVoltage
  6503  06D4                     _getBatteryVoltage:
  6504                           
  6505                           ;incstack = 0
  6506                           ; Regs used in _getBatteryVoltage: [wreg+status,2+status,0]
  6507  06D4                     l2006:
  6508                           
  6509                           ;main.c: 424:     ADCON1bits.ADNREF = 0;
  6510  06D4  0021               	movlb	1	; select bank1
  6511  06D5  111E               	bcf	30,2	;volatile
  6512  06D6                     __ccov135_end_blk0:
  6513  06D6                     __ccov136_start_blk1:
  6514  06D6                     l2008:
  6515                           
  6516                           ;main.c: 427:     FVRCONbits.ADFVR = 0b01;
  6517  06D6  0022               	movlb	2	; select bank2
  6518  06D7  0817               	movf	23,w	;volatile
  6519  06D8  39FC               	andlw	-4
  6520  06D9  3801               	iorlw	1
  6521  06DA  0097               	movwf	23	;volatile
  6522  06DB                     __ccov136_end_blk1:
  6523  06DB                     __ccov137_start_blk2:
  6524  06DB                     l2010:
  6525                           
  6526                           ;main.c: 429:     FVRCONbits.FVREN = 1;
  6527  06DB  1797               	bsf	23,7	;volatile
  6528  06DC                     __ccov137_end_blk2:
  6529  06DC                     __ccov138_start_blk4:
  6530  06DC                     l225:	
  6531                           ;main.c: 430:     while (!FVRCONbits.FVRRDY);
  6532                           
  6533  06DC  1F17               	btfss	23,6	;volatile
  6534  06DD  2EDF               	goto	u621
  6535  06DE  2EE0               	goto	u620
  6536  06DF                     u621:
  6537  06DF  2EDC               	goto	l225
  6538  06E0                     __ccov138_end_blk4:
  6539  06E0                     u620:
  6540  06E0                     __ccov139_start_blk5:
  6541  06E0                     l227:
  6542                           
  6543                           ;main.c: 432:     ADCON1bits.ADFM = 1;
  6544  06E0  0021               	movlb	1	; select bank1
  6545  06E1  179E               	bsf	30,7	;volatile
  6546  06E2                     __ccov139_end_blk5:
  6547  06E2                     __ccov140_start_blk6:
  6548  06E2                     l2012:
  6549                           
  6550                           ;main.c: 433:     ADCON0bits.CHS = 0b11111;
  6551  06E2  307C               	movlw	124
  6552  06E3  049D               	iorwf	29,f	;volatile
  6553  06E4                     __ccov140_end_blk6:
  6554  06E4                     __ccov141_start_blk7:
  6555  06E4                     l2014:
  6556                           
  6557                           ;main.c: 434:     _delay((unsigned long)((200)*(16000000/4000000.0)));
  6558  06E4  30A0               	movlw	160
  6559  06E5                     u1577:
  6560  06E5  3200               	nop2
  6561  06E6  0B89               	decfsz	9,f
  6562  06E7  2EE5               	goto	u1577
  6563  06E8                     __ccov141_end_blk7:
  6564  06E8                     __ccov142_start_blk8:
  6565  06E8                     l2016:
  6566                           
  6567                           ;main.c: 436:     ADCON1bits.ADPREF = 0b00;
  6568  06E8  30FC               	movlw	-4
  6569  06E9  0021               	movlb	1	; select bank1
  6570  06EA  059E               	andwf	30,f	;volatile
  6571  06EB                     __ccov142_end_blk8:
  6572  06EB                     __ccov143_start_blk9:
  6573  06EB                     l2018:
  6574                           
  6575                           ;main.c: 438:     ADCON0bits.ADON = 1;
  6576  06EB  141D               	bsf	29,0	;volatile
  6577  06EC                     __ccov143_end_blk9:
  6578  06EC                     l2020:
  6579  06EC                     __ccov145_start_blk11:
  6580  06EC                     l2022:
  6581                           
  6582                           ;main.c: 443:     ADCON0bits.GO = 1;
  6583  06EC  149D               	bsf	29,1	;volatile
  6584  06ED                     __ccov145_end_blk11:
  6585  06ED                     __ccov146_start_blk13:
  6586  06ED                     l228:	
  6587                           ;main.c: 444:     while (!ADCON0bits.GO_nDONE);
  6588                           
  6589  06ED  1C9D               	btfss	29,1	;volatile
  6590  06EE  2EF0               	goto	u631
  6591  06EF  2EF1               	goto	u630
  6592  06F0                     u631:
  6593  06F0  2EED               	goto	l228
  6594  06F1                     __ccov146_end_blk13:
  6595  06F1                     u630:
  6596  06F1                     __ccov147_start_blk15:
  6597  06F1                     l2024:
  6598                           
  6599                           ;main.c: 446:     adc_val = (ADRESH << 8);
  6600  06F1  081C               	movf	28,w	;volatile
  6601  06F2  00F7               	movwf	??_getBatteryVoltage
  6602  06F3  01F8               	clrf	??_getBatteryVoltage+1
  6603  06F4  0877               	movf	??_getBatteryVoltage,w
  6604  06F5  00F8               	movwf	??_getBatteryVoltage+1
  6605  06F6  01F7               	clrf	??_getBatteryVoltage
  6606  06F7  0877               	movf	??_getBatteryVoltage,w
  6607  06F8  00FA               	movwf	getBatteryVoltage@adc_val
  6608  06F9  0878               	movf	??_getBatteryVoltage+1,w
  6609  06FA  00FB               	movwf	getBatteryVoltage@adc_val+1
  6610                           
  6611                           ;main.c: 447:     adc_val |= ADRESL;
  6612  06FB  081B               	movf	27,w	;volatile
  6613  06FC  00F7               	movwf	??_getBatteryVoltage
  6614  06FD  01F8               	clrf	??_getBatteryVoltage+1
  6615  06FE  0877               	movf	??_getBatteryVoltage,w
  6616  06FF  04FA               	iorwf	getBatteryVoltage@adc_val,f
  6617  0700  0878               	movf	??_getBatteryVoltage+1,w
  6618  0701  04FB               	iorwf	getBatteryVoltage@adc_val+1,f
  6619  0702                     __ccov147_end_blk15:
  6620  0702                     __ccov148_start_blk16:
  6621  0702                     l2026:
  6622                           
  6623                           ;main.c: 449:     FVRCONbits.FVREN = 0;
  6624  0702  0022               	movlb	2	; select bank2
  6625  0703  1397               	bcf	23,7	;volatile
  6626  0704                     __ccov148_end_blk16:
  6627  0704                     __ccov149_start_blk17:
  6628  0704                     l2028:
  6629                           
  6630                           ;main.c: 450:     ADCON0bits.ADON = 0;
  6631  0704  0021               	movlb	1	; select bank1
  6632  0705  101D               	bcf	29,0	;volatile
  6633                           
  6634                           ;main.c: 451:     return adc_val;
  6635  0706  087B               	movf	getBatteryVoltage@adc_val+1,w
  6636  0707  00F6               	movwf	?_getBatteryVoltage+1
  6637  0708  087A               	movf	getBatteryVoltage@adc_val,w
  6638  0709  00F5               	movwf	?_getBatteryVoltage
  6639  070A                     __ccov149_end_blk17:
  6640  070A                     __ccov150_start_blk19:
  6641  070A                     l231:
  6642  070A  14F0               	bsf	__ccovbit19_19/(0+8),__ccovbit19_19& (0+7)	;volatile
  6643  070B  0008               	return
  6644  070C                     __end_of_getBatteryVoltage:
  6645  070C                     
  6646                           	psect	text20
  6647  0F1E                     __ptext20:	
  6648 ;; *************** function _enable_watchdog_timer *****************
  6649 ;; Defined at:
  6650 ;;		line 45 in file "watchdog.c"
  6651 ;; Parameters:    Size  Location     Type
  6652 ;;		None
  6653 ;; Auto vars:     Size  Location     Type
  6654 ;;		None
  6655 ;; Return value:  Size  Location     Type
  6656 ;;                  1    wreg      void 
  6657 ;; Registers used:
  6658 ;;		None
  6659 ;; Tracked objects:
  6660 ;;		On entry : 0/0
  6661 ;;		On exit  : 0/0
  6662 ;;		Unchanged: 0/0
  6663 ;; Data sizes:     COMMON   BANK0   BANK1   BANK2   BANK3   BANK4   BANK5   BANK6   BANK7   BANK8   BANK9  BANK10  BANK1
      +1  BANK12
  6664 ;;      Params:         0       0       0       0       0       0       0       0       0       0       0       0       
      +0       0
  6665 ;;      Locals:         0       0       0       0       0       0       0       0       0       0       0       0       
      +0       0
  6666 ;;      Temps:          0       0       0       0       0       0       0       0       0       0       0       0       
      +0       0
  6667 ;;      Totals:         0       0       0       0       0       0       0       0       0       0       0       0       
      +0       0
  6668 ;;Total ram usage:        0 bytes
  6669 ;; Hardware stack levels used: 1
  6670 ;; Hardware stack levels required when called: 1
  6671 ;; This function calls:
  6672 ;;		Nothing
  6673 ;; This function is called by:
  6674 ;;		_checkState1
  6675 ;; This function uses a non-reentrant model
  6676 ;;
  6677                           
  6678                           
  6679                           ;psect for function _enable_watchdog_timer
  6680  0F1E                     _enable_watchdog_timer:
  6681                           
  6682                           ;incstack = 0
  6683                           ; Regs used in _enable_watchdog_timer: []
  6684  0F1E                     l2066:
  6685                           
  6686                           ;watchdog.c: 46:     WDTCONbits.SWDTEN = 1;
  6687  0F1E  0021               	movlb	1	; select bank1
  6688  0F1F  1417               	bsf	23,0	;volatile
  6689  0F20                     __ccov315_end_blk0:
  6690  0F20                     __ccov316_start_blk1:
  6691  0F20                     l471:
  6692  0F20  0020               	movlb	0	; select bank0
  6693  0F21  14A1               	bsf	__ccovbit1_73/(0+8),__ccovbit1_73& (0+7)	;volatile
  6694  0F22  0008               	return
  6695  0F23                     __end_of_enable_watchdog_timer:
  6696  0F23                     
  6697                           	psect	text21
  6698  0F10                     __ptext21:	
  6699 ;; *************** function _enable_external_interrupt *****************
  6700 ;; Defined at:
  6701 ;;		line 475 in file "main.c"
  6702 ;; Parameters:    Size  Location     Type
  6703 ;;		None
  6704 ;; Auto vars:     Size  Location     Type
  6705 ;;		None
  6706 ;; Return value:  Size  Location     Type
  6707 ;;                  1    wreg      void 
  6708 ;; Registers used:
  6709 ;;		None
  6710 ;; Tracked objects:
  6711 ;;		On entry : 0/0
  6712 ;;		On exit  : 0/0
  6713 ;;		Unchanged: 0/0
  6714 ;; Data sizes:     COMMON   BANK0   BANK1   BANK2   BANK3   BANK4   BANK5   BANK6   BANK7   BANK8   BANK9  BANK10  BANK1
      +1  BANK12
  6715 ;;      Params:         0       0       0       0       0       0       0       0       0       0       0       0       
      +0       0
  6716 ;;      Locals:         0       0       0       0       0       0       0       0       0       0       0       0       
      +0       0
  6717 ;;      Temps:          0       0       0       0       0       0       0       0       0       0       0       0       
      +0       0
  6718 ;;      Totals:         0       0       0       0       0       0       0       0       0       0       0       0       
      +0       0
  6719 ;;Total ram usage:        0 bytes
  6720 ;; Hardware stack levels used: 1
  6721 ;; Hardware stack levels required when called: 1
  6722 ;; This function calls:
  6723 ;;		Nothing
  6724 ;; This function is called by:
  6725 ;;		_main
  6726 ;;		_checkState1
  6727 ;; This function uses a non-reentrant model
  6728 ;;
  6729                           
  6730                           
  6731                           ;psect for function _enable_external_interrupt
  6732  0F10                     _enable_external_interrupt:
  6733                           
  6734                           ;incstack = 0
  6735                           ; Regs used in _enable_external_interrupt: []
  6736  0F10                     l2032:
  6737                           
  6738                           ;main.c: 476:     INTCONbits.INTE = 1;
  6739  0F10  160B               	bsf	11,4	;volatile
  6740  0F11                     __ccov168_end_blk0:
  6741  0F11                     __ccov169_start_blk1:
  6742  0F11                     l246:
  6743  0F11  0020               	movlb	0	; select bank0
  6744  0F12  17A6               	bsf	__ccovbit1_27/(0+8),__ccovbit1_27& (0+7)	;volatile
  6745  0F13  0008               	return
  6746  0F14                     __end_of_enable_external_interrupt:
  6747  0F14                     
  6748                           	psect	text22
  6749  0F19                     __ptext22:	
  6750 ;; *************** function _disable_watchdog_timer *****************
  6751 ;; Defined at:
  6752 ;;		line 48 in file "watchdog.c"
  6753 ;; Parameters:    Size  Location     Type
  6754 ;;		None
  6755 ;; Auto vars:     Size  Location     Type
  6756 ;;		None
  6757 ;; Return value:  Size  Location     Type
  6758 ;;                  1    wreg      void 
  6759 ;; Registers used:
  6760 ;;		None
  6761 ;; Tracked objects:
  6762 ;;		On entry : 0/0
  6763 ;;		On exit  : 0/0
  6764 ;;		Unchanged: 0/0
  6765 ;; Data sizes:     COMMON   BANK0   BANK1   BANK2   BANK3   BANK4   BANK5   BANK6   BANK7   BANK8   BANK9  BANK10  BANK1
      +1  BANK12
  6766 ;;      Params:         0       0       0       0       0       0       0       0       0       0       0       0       
      +0       0
  6767 ;;      Locals:         0       0       0       0       0       0       0       0       0       0       0       0       
      +0       0
  6768 ;;      Temps:          0       0       0       0       0       0       0       0       0       0       0       0       
      +0       0
  6769 ;;      Totals:         0       0       0       0       0       0       0       0       0       0       0       0       
      +0       0
  6770 ;;Total ram usage:        0 bytes
  6771 ;; Hardware stack levels used: 1
  6772 ;; Hardware stack levels required when called: 1
  6773 ;; This function calls:
  6774 ;;		Nothing
  6775 ;; This function is called by:
  6776 ;;		_main
  6777 ;;		_checkState1
  6778 ;; This function uses a non-reentrant model
  6779 ;;
  6780                           
  6781                           
  6782                           ;psect for function _disable_watchdog_timer
  6783  0F19                     _disable_watchdog_timer:
  6784                           
  6785                           ;incstack = 0
  6786                           ; Regs used in _disable_watchdog_timer: []
  6787  0F19                     l2004:
  6788                           
  6789                           ;watchdog.c: 49:     WDTCONbits.SWDTEN = 0;
  6790  0F19  0021               	movlb	1	; select bank1
  6791  0F1A  1017               	bcf	23,0	;volatile
  6792  0F1B                     __ccov317_end_blk0:
  6793  0F1B                     __ccov318_start_blk1:
  6794  0F1B                     l474:
  6795  0F1B  0020               	movlb	0	; select bank0
  6796  0F1C  1421               	bsf	__ccovbit1_74/(0+8),__ccovbit1_74& (0+7)	;volatile
  6797  0F1D  0008               	return
  6798  0F1E                     __end_of_disable_watchdog_timer:
  6799  0F1E                     
  6800                           	psect	text23
  6801  0F0C                     __ptext23:	
  6802 ;; *************** function _disable_external_interrupt *****************
  6803 ;; Defined at:
  6804 ;;		line 478 in file "main.c"
  6805 ;; Parameters:    Size  Location     Type
  6806 ;;		None
  6807 ;; Auto vars:     Size  Location     Type
  6808 ;;		None
  6809 ;; Return value:  Size  Location     Type
  6810 ;;                  1    wreg      void 
  6811 ;; Registers used:
  6812 ;;		None
  6813 ;; Tracked objects:
  6814 ;;		On entry : 0/0
  6815 ;;		On exit  : 0/0
  6816 ;;		Unchanged: 0/0
  6817 ;; Data sizes:     COMMON   BANK0   BANK1   BANK2   BANK3   BANK4   BANK5   BANK6   BANK7   BANK8   BANK9  BANK10  BANK1
      +1  BANK12
  6818 ;;      Params:         0       0       0       0       0       0       0       0       0       0       0       0       
      +0       0
  6819 ;;      Locals:         0       0       0       0       0       0       0       0       0       0       0       0       
      +0       0
  6820 ;;      Temps:          0       0       0       0       0       0       0       0       0       0       0       0       
      +0       0
  6821 ;;      Totals:         0       0       0       0       0       0       0       0       0       0       0       0       
      +0       0
  6822 ;;Total ram usage:        0 bytes
  6823 ;; Hardware stack levels used: 1
  6824 ;; Hardware stack levels required when called: 1
  6825 ;; This function calls:
  6826 ;;		Nothing
  6827 ;; This function is called by:
  6828 ;;		_checkState1
  6829 ;; This function uses a non-reentrant model
  6830 ;;
  6831                           
  6832                           
  6833                           ;psect for function _disable_external_interrupt
  6834  0F0C                     _disable_external_interrupt:
  6835                           
  6836                           ;incstack = 0
  6837                           ; Regs used in _disable_external_interrupt: []
  6838  0F0C                     l2064:
  6839                           
  6840                           ;main.c: 479:     INTCONbits.INTE = 0;
  6841  0F0C  120B               	bcf	11,4	;volatile
  6842  0F0D                     __ccov170_end_blk0:
  6843  0F0D                     __ccov171_start_blk1:
  6844  0F0D                     l249:
  6845  0F0D  0020               	movlb	0	; select bank0
  6846  0F0E  1726               	bsf	__ccovbit1_28/(0+8),__ccovbit1_28& (0+7)	;volatile
  6847  0F0F  0008               	return
  6848  0F10                     __end_of_disable_external_interrupt:
  6849  0F10                     
  6850                           	psect	text24
  6851  059B                     __ptext24:	
  6852 ;; *************** function ___awdiv *****************
  6853 ;; Defined at:
  6854 ;;		line 5 in file "C:\Program Files\Microchip\xc8\v2.32\pic\sources\c99\common\awdiv.c"
  6855 ;; Parameters:    Size  Location     Type
  6856 ;;  divisor         2    2[COMMON] int 
  6857 ;;  dividend        2    4[COMMON] int 
  6858 ;; Auto vars:     Size  Location     Type
  6859 ;;  quotient        2    2[BANK0 ] int 
  6860 ;;  sign            1    1[BANK0 ] unsigned char 
  6861 ;;  counter         1    0[BANK0 ] unsigned char 
  6862 ;; Return value:  Size  Location     Type
  6863 ;;                  2    2[COMMON] int 
  6864 ;; Registers used:
  6865 ;;		wreg, status,2, status,0
  6866 ;; Tracked objects:
  6867 ;;		On entry : 0/0
  6868 ;;		On exit  : 0/0
  6869 ;;		Unchanged: 0/0
  6870 ;; Data sizes:     COMMON   BANK0   BANK1   BANK2   BANK3   BANK4   BANK5   BANK6   BANK7   BANK8   BANK9  BANK10  BANK1
      +1  BANK12
  6871 ;;      Params:         4       0       0       0       0       0       0       0       0       0       0       0       
      +0       0
  6872 ;;      Locals:         0       4       0       0       0       0       0       0       0       0       0       0       
      +0       0
  6873 ;;      Temps:          1       0       0       0       0       0       0       0       0       0       0       0       
      +0       0
  6874 ;;      Totals:         5       4       0       0       0       0       0       0       0       0       0       0       
      +0       0
  6875 ;;Total ram usage:        9 bytes
  6876 ;; Hardware stack levels used: 1
  6877 ;; Hardware stack levels required when called: 1
  6878 ;; This function calls:
  6879 ;;		Nothing
  6880 ;; This function is called by:
  6881 ;;		_int2bcd
  6882 ;;		_main
  6883 ;;		_checkState1
  6884 ;; This function uses a non-reentrant model
  6885 ;;
  6886                           
  6887                           
  6888                           ;psect for function ___awdiv
  6889  059B                     ___awdiv:
  6890  059B                     l2846:	
  6891                           ;incstack = 0
  6892                           ; Regs used in ___awdiv: [wreg+status,2+status,0]
  6893                           
  6894  059B  0020               	movlb	0	; select bank0
  6895  059C  01CD               	clrf	___awdiv@sign
  6896  059D                     l2848:
  6897  059D  1FF6               	btfss	___awdiv@divisor+1,7
  6898  059E  2DA0               	goto	u1271
  6899  059F  2DA1               	goto	u1270
  6900  05A0                     u1271:
  6901  05A0  2DA8               	goto	l2854
  6902  05A1                     u1270:
  6903  05A1                     l2850:
  6904  05A1  09F5               	comf	___awdiv@divisor,f
  6905  05A2  09F6               	comf	___awdiv@divisor+1,f
  6906  05A3  0AF5               	incf	___awdiv@divisor,f
  6907  05A4  1903               	skipnz
  6908  05A5  0AF6               	incf	___awdiv@divisor+1,f
  6909  05A6                     l2852:
  6910  05A6  01CD               	clrf	___awdiv@sign
  6911  05A7  0ACD               	incf	___awdiv@sign,f
  6912  05A8                     l2854:
  6913  05A8  1FF8               	btfss	___awdiv@dividend+1,7
  6914  05A9  2DAB               	goto	u1281
  6915  05AA  2DAC               	goto	u1280
  6916  05AB                     u1281:
  6917  05AB  2DB5               	goto	l2860
  6918  05AC                     u1280:
  6919  05AC                     l2856:
  6920  05AC  09F7               	comf	___awdiv@dividend,f
  6921  05AD  09F8               	comf	___awdiv@dividend+1,f
  6922  05AE  0AF7               	incf	___awdiv@dividend,f
  6923  05AF  1903               	skipnz
  6924  05B0  0AF8               	incf	___awdiv@dividend+1,f
  6925  05B1                     l2858:
  6926  05B1  3001               	movlw	1
  6927  05B2  00F9               	movwf	??___awdiv
  6928  05B3  0879               	movf	??___awdiv,w
  6929  05B4  06CD               	xorwf	___awdiv@sign,f
  6930  05B5                     l2860:
  6931  05B5  01CE               	clrf	___awdiv@quotient
  6932  05B6  01CF               	clrf	___awdiv@quotient+1
  6933  05B7                     l2862:
  6934  05B7  0875               	movf	___awdiv@divisor,w
  6935  05B8  0476               	iorwf	___awdiv@divisor+1,w
  6936  05B9  1903               	btfsc	3,2
  6937  05BA  2DBC               	goto	u1291
  6938  05BB  2DBD               	goto	u1290
  6939  05BC                     u1291:
  6940  05BC  2DEC               	goto	l2882
  6941  05BD                     u1290:
  6942  05BD                     l2864:
  6943  05BD  01CC               	clrf	___awdiv@counter
  6944  05BE  0ACC               	incf	___awdiv@counter,f
  6945  05BF  2DC9               	goto	l2870
  6946  05C0                     l2866:
  6947  05C0  3001               	movlw	1
  6948  05C1                     u1305:
  6949  05C1  35F5               	lslf	___awdiv@divisor,f
  6950  05C2  0DF6               	rlf	___awdiv@divisor+1,f
  6951  05C3  0B89               	decfsz	9,f
  6952  05C4  2DC1               	goto	u1305
  6953  05C5                     l2868:
  6954  05C5  3001               	movlw	1
  6955  05C6  00F9               	movwf	??___awdiv
  6956  05C7  0879               	movf	??___awdiv,w
  6957  05C8  07CC               	addwf	___awdiv@counter,f
  6958  05C9                     l2870:
  6959  05C9  1FF6               	btfss	___awdiv@divisor+1,7
  6960  05CA  2DCC               	goto	u1311
  6961  05CB  2DCD               	goto	u1310
  6962  05CC                     u1311:
  6963  05CC  2DC0               	goto	l2866
  6964  05CD                     u1310:
  6965  05CD                     l2872:
  6966  05CD  3001               	movlw	1
  6967  05CE                     u1325:
  6968  05CE  35CE               	lslf	___awdiv@quotient,f
  6969  05CF  0DCF               	rlf	___awdiv@quotient+1,f
  6970  05D0  0B89               	decfsz	9,f
  6971  05D1  2DCE               	goto	u1325
  6972  05D2  0876               	movf	___awdiv@divisor+1,w
  6973  05D3  0278               	subwf	___awdiv@dividend+1,w
  6974  05D4  1D03               	skipz
  6975  05D5  2DD8               	goto	u1335
  6976  05D6  0875               	movf	___awdiv@divisor,w
  6977  05D7  0277               	subwf	___awdiv@dividend,w
  6978  05D8                     u1335:
  6979  05D8  1C03               	skipc
  6980  05D9  2DDB               	goto	u1331
  6981  05DA  2DDC               	goto	u1330
  6982  05DB                     u1331:
  6983  05DB  2DE1               	goto	l2878
  6984  05DC                     u1330:
  6985  05DC                     l2874:
  6986  05DC  0875               	movf	___awdiv@divisor,w
  6987  05DD  02F7               	subwf	___awdiv@dividend,f
  6988  05DE  0876               	movf	___awdiv@divisor+1,w
  6989  05DF  3BF8               	subwfb	___awdiv@dividend+1,f
  6990  05E0                     l2876:
  6991  05E0  144E               	bsf	___awdiv@quotient,0
  6992  05E1                     l2878:
  6993  05E1  3001               	movlw	1
  6994  05E2                     u1345:
  6995  05E2  36F6               	lsrf	___awdiv@divisor+1,f
  6996  05E3  0CF5               	rrf	___awdiv@divisor,f
  6997  05E4  0B89               	decfsz	9,f
  6998  05E5  2DE2               	goto	u1345
  6999  05E6                     l2880:
  7000  05E6  3001               	movlw	1
  7001  05E7  02CC               	subwf	___awdiv@counter,f
  7002  05E8  1D03               	btfss	3,2
  7003  05E9  2DEB               	goto	u1351
  7004  05EA  2DEC               	goto	u1350
  7005  05EB                     u1351:
  7006  05EB  2DCD               	goto	l2872
  7007  05EC                     u1350:
  7008  05EC                     l2882:
  7009  05EC  084D               	movf	___awdiv@sign,w
  7010  05ED  1903               	btfsc	3,2
  7011  05EE  2DF0               	goto	u1361
  7012  05EF  2DF1               	goto	u1360
  7013  05F0                     u1361:
  7014  05F0  2DF6               	goto	l2886
  7015  05F1                     u1360:
  7016  05F1                     l2884:
  7017  05F1  09CE               	comf	___awdiv@quotient,f
  7018  05F2  09CF               	comf	___awdiv@quotient+1,f
  7019  05F3  0ACE               	incf	___awdiv@quotient,f
  7020  05F4  1903               	skipnz
  7021  05F5  0ACF               	incf	___awdiv@quotient+1,f
  7022  05F6                     l2886:
  7023  05F6  084F               	movf	___awdiv@quotient+1,w
  7024  05F7  00F6               	movwf	?___awdiv+1
  7025  05F8  084E               	movf	___awdiv@quotient,w
  7026  05F9  00F5               	movwf	?___awdiv
  7027  05FA                     l777:
  7028  05FA  0008               	return
  7029  05FB                     __end_of___awdiv:
  7030                           
  7031                           	psect	text25
  7032  0F4A                     __ptext25:	
  7033 ;; *************** function _UART_init *****************
  7034 ;; Defined at:
  7035 ;;		line 13 in file "usart.c"
  7036 ;; Parameters:    Size  Location     Type
  7037 ;;		None
  7038 ;; Auto vars:     Size  Location     Type
  7039 ;;		None
  7040 ;; Return value:  Size  Location     Type
  7041 ;;                  1    wreg      void 
  7042 ;; Registers used:
  7043 ;;		wreg
  7044 ;; Tracked objects:
  7045 ;;		On entry : 0/0
  7046 ;;		On exit  : 0/0
  7047 ;;		Unchanged: 0/0
  7048 ;; Data sizes:     COMMON   BANK0   BANK1   BANK2   BANK3   BANK4   BANK5   BANK6   BANK7   BANK8   BANK9  BANK10  BANK1
      +1  BANK12
  7049 ;;      Params:         0       0       0       0       0       0       0       0       0       0       0       0       
      +0       0
  7050 ;;      Locals:         0       0       0       0       0       0       0       0       0       0       0       0       
      +0       0
  7051 ;;      Temps:          0       0       0       0       0       0       0       0       0       0       0       0       
      +0       0
  7052 ;;      Totals:         0       0       0       0       0       0       0       0       0       0       0       0       
      +0       0
  7053 ;;Total ram usage:        0 bytes
  7054 ;; Hardware stack levels used: 1
  7055 ;; Hardware stack levels required when called: 1
  7056 ;; This function calls:
  7057 ;;		Nothing
  7058 ;; This function is called by:
  7059 ;;		_main
  7060 ;; This function uses a non-reentrant model
  7061 ;;
  7062                           
  7063                           
  7064                           ;psect for function _UART_init
  7065  0F4A                     _UART_init:
  7066                           
  7067                           ;incstack = 0
  7068                           ; Regs used in _UART_init: [wreg]
  7069  0F4A                     l2216:
  7070                           
  7071                           ;usart.c: 18:     APFCON0bits.RXDTSEL = 0;
  7072  0F4A  0022               	movlb	2	; select bank2
  7073  0F4B  139D               	bcf	29,7	;volatile
  7074                           
  7075                           ;usart.c: 19:     APFCON0bits.TXCKSEL = 0;
  7076  0F4C  111D               	bcf	29,2	;volatile
  7077  0F4D                     __ccov278_end_blk0:
  7078  0F4D                     __ccov279_start_blk1:
  7079  0F4D                     l2218:
  7080                           
  7081                           ;usart.c: 26:     SPBRG = ((16000000/64)/19200) - 1;
  7082  0F4D  300C               	movlw	12
  7083  0F4E  0023               	movlb	3	; select bank3
  7084  0F4F  009B               	movwf	27	;volatile
  7085  0F50                     __ccov279_end_blk1:
  7086  0F50                     __ccov280_start_blk2:
  7087  0F50                     l2220:
  7088                           
  7089                           ;usart.c: 29:     BRGH = 0;
  7090  0F50  111E               	bcf	30,2	;volatile
  7091  0F51                     __ccov280_end_blk2:
  7092  0F51                     __ccov281_start_blk3:
  7093  0F51                     l2222:
  7094                           
  7095                           ;usart.c: 30:     BRG16 = 0;
  7096  0F51  119F               	bcf	31,3	;volatile
  7097  0F52                     __ccov281_end_blk3:
  7098  0F52                     __ccov282_start_blk4:
  7099  0F52                     l2224:
  7100                           
  7101                           ;usart.c: 32:     SPEN = 1;
  7102  0F52  179D               	bsf	29,7	;volatile
  7103  0F53                     __ccov282_end_blk4:
  7104  0F53                     __ccov283_start_blk5:
  7105  0F53                     l2226:
  7106                           
  7107                           ;usart.c: 34:     SCKP = 0;
  7108  0F53  121F               	bcf	31,4	;volatile
  7109  0F54                     __ccov283_end_blk5:
  7110  0F54                     __ccov284_start_blk6:
  7111  0F54                     l2228:
  7112                           
  7113                           ;usart.c: 35:     SYNC = 0;
  7114  0F54  121E               	bcf	30,4	;volatile
  7115  0F55                     __ccov284_end_blk6:
  7116  0F55                     __ccov285_start_blk7:
  7117  0F55                     l2230:
  7118                           
  7119                           ;usart.c: 36:     TXEN = 1;
  7120  0F55  169E               	bsf	30,5	;volatile
  7121  0F56                     __ccov285_end_blk7:
  7122  0F56                     __ccov286_start_blk8:
  7123  0F56                     l428:
  7124  0F56  0020               	movlb	0	; select bank0
  7125  0F57  1422               	bsf	__ccovbit8_66/(0+8),__ccovbit8_66& (0+7)	;volatile
  7126  0F58  0008               	return
  7127  0F59                     __end_of_UART_init:
  7128  0F59                     
  7129                           	psect	text26
  7130  064E                     __ptext26:	
  7131 ;; *************** function _PWM_set *****************
  7132 ;; Defined at:
  7133 ;;		line 380 in file "main.c"
  7134 ;; Parameters:    Size  Location     Type
  7135 ;;  duty_cycle      1    wreg     unsigned char 
  7136 ;; Auto vars:     Size  Location     Type
  7137 ;;  duty_cycle      1    2[BANK0 ] unsigned char 
  7138 ;;  scaled_duty_    2    0[BANK0 ] unsigned int 
  7139 ;; Return value:  Size  Location     Type
  7140 ;;                  1    wreg      void 
  7141 ;; Registers used:
  7142 ;;		wreg, status,2, status,0, pclath, cstack
  7143 ;; Tracked objects:
  7144 ;;		On entry : 0/0
  7145 ;;		On exit  : 0/0
  7146 ;;		Unchanged: 0/0
  7147 ;; Data sizes:     COMMON   BANK0   BANK1   BANK2   BANK3   BANK4   BANK5   BANK6   BANK7   BANK8   BANK9  BANK10  BANK1
      +1  BANK12
  7148 ;;      Params:         0       0       0       0       0       0       0       0       0       0       0       0       
      +0       0
  7149 ;;      Locals:         0       3       0       0       0       0       0       0       0       0       0       0       
      +0       0
  7150 ;;      Temps:          2       0       0       0       0       0       0       0       0       0       0       0       
      +0       0
  7151 ;;      Totals:         2       3       0       0       0       0       0       0       0       0       0       0       
      +0       0
  7152 ;;Total ram usage:        5 bytes
  7153 ;; Hardware stack levels used: 1
  7154 ;; Hardware stack levels required when called: 2
  7155 ;; This function calls:
  7156 ;;		___wmul
  7157 ;; This function is called by:
  7158 ;;		_main
  7159 ;; This function uses a non-reentrant model
  7160 ;;
  7161                           
  7162                           
  7163                           ;psect for function _PWM_set
  7164  064E                     _PWM_set:
  7165                           
  7166                           ;incstack = 0
  7167                           ; Regs used in _PWM_set: [wreg+status,2+status,0+pclath+cstack]
  7168                           ;PWM_set@duty_cycle stored from wreg
  7169  064E  0020               	movlb	0	; select bank0
  7170  064F  00CE               	movwf	PWM_set@duty_cycle
  7171  0650                     l2196:
  7172                           
  7173                           ;main.c: 382:     unsigned int scaled_duty_cycle;;main.c: 391:     if (duty_cycle == 0) 
      +                          {
  7174  0650  084E               	movf	PWM_set@duty_cycle,w
  7175  0651  1D03               	btfss	3,2
  7176  0652  2E54               	goto	u941
  7177  0653  2E55               	goto	u940
  7178  0654                     u941:
  7179  0654  2E5B               	goto	l2202
  7180  0655                     __ccov121_end_blk0:
  7181  0655                     u940:
  7182  0655                     __ccov122_start_blk1:
  7183  0655                     l2198:
  7184                           
  7185                           ;main.c: 392:         CCPR1L = 0;
  7186  0655  0025               	movlb	5	; select bank5
  7187  0656  0191               	clrf	17	;volatile
  7188  0657                     __ccov122_end_blk1:
  7189  0657                     __ccov123_start_blk2:
  7190  0657                     l2200:
  7191  0657  1770               	bsf	__ccovbit2_14/(0+8),__ccovbit2_14& (0+7)	;volatile
  7192                           
  7193                           ;main.c: 393:         CCP1CONbits.DC1B = 0x03;
  7194  0658  3030               	movlw	48
  7195  0659  0493               	iorwf	19,f	;volatile
  7196                           
  7197                           ;main.c: 394:     }
  7198  065A  2E92               	goto	l219
  7199  065B                     __ccov123_end_blk2:
  7200  065B                     __ccov124_start_blk4:
  7201  065B                     l2202:
  7202  065B  3065               	movlw	101
  7203  065C  024E               	subwf	PWM_set@duty_cycle,w
  7204  065D  1C03               	skipc
  7205  065E  2E60               	goto	u951
  7206  065F  2E61               	goto	u950
  7207  0660                     u951:
  7208  0660  2E68               	goto	l2208
  7209  0661                     __ccov124_end_blk4:
  7210  0661                     u950:
  7211  0661                     __ccov125_start_blk5:
  7212  0661                     l2204:
  7213                           
  7214                           ;main.c: 398:         CCPR1L = 0xFF;
  7215  0661  30FF               	movlw	255
  7216  0662  0025               	movlb	5	; select bank5
  7217  0663  0091               	movwf	17	;volatile
  7218  0664                     __ccov125_end_blk5:
  7219  0664                     __ccov126_start_blk6:
  7220  0664                     l2206:
  7221  0664  16F0               	bsf	__ccovbit6_15/(0+8),__ccovbit6_15& (0+7)	;volatile
  7222                           
  7223                           ;main.c: 399:         CCP1CONbits.DC1B = 0x03;
  7224  0665  3030               	movlw	48
  7225  0666  0493               	iorwf	19,f	;volatile
  7226                           
  7227                           ;main.c: 400:     } else {
  7228  0667  2E92               	goto	l219
  7229  0668                     __ccov126_end_blk6:
  7230  0668                     __ccov127_start_blk8:
  7231  0668                     l2208:
  7232                           
  7233                           ;main.c: 401:         scaled_duty_cycle = 1024 / 100 * duty_cycle;
  7234  0668  084E               	movf	PWM_set@duty_cycle,w
  7235  0669  00FB               	movwf	??_PWM_set
  7236  066A  01FC               	clrf	??_PWM_set+1
  7237  066B  087B               	movf	??_PWM_set,w
  7238  066C  00F5               	movwf	___wmul@multiplier
  7239  066D  087C               	movf	??_PWM_set+1,w
  7240  066E  00F6               	movwf	___wmul@multiplier+1
  7241  066F  300A               	movlw	10
  7242  0670  00F7               	movwf	___wmul@multiplicand
  7243  0671  3000               	movlw	0
  7244  0672  00F8               	movwf	___wmul@multiplicand+1
  7245  0673  318F  27BD  3186   	fcall	___wmul
  7246  0676  0876               	movf	?___wmul+1,w
  7247  0677  0020               	movlb	0	; select bank0
  7248  0678  00CD               	movwf	PWM_set@scaled_duty_cycle+1
  7249  0679  0875               	movf	?___wmul,w
  7250  067A  00CC               	movwf	PWM_set@scaled_duty_cycle
  7251  067B                     __ccov127_end_blk8:
  7252  067B                     __ccov128_start_blk9:
  7253  067B                     l2210:
  7254                           
  7255                           ;main.c: 402:         CCPR1L = (unsigned char) (scaled_duty_cycle >> 2);
  7256  067B  084D               	movf	PWM_set@scaled_duty_cycle+1,w
  7257  067C  00FC               	movwf	??_PWM_set+1
  7258  067D  084C               	movf	PWM_set@scaled_duty_cycle,w
  7259  067E  00FB               	movwf	??_PWM_set
  7260  067F  36FC               	lsrf	??_PWM_set+1,f
  7261  0680  0CFB               	rrf	??_PWM_set,f
  7262  0681  36FC               	lsrf	??_PWM_set+1,f
  7263  0682  0CFB               	rrf	??_PWM_set,f
  7264  0683  087B               	movf	??_PWM_set,w
  7265  0684  0025               	movlb	5	; select bank5
  7266  0685  0091               	movwf	17	;volatile
  7267  0686                     __ccov128_end_blk9:
  7268  0686                     __ccov129_start_blk10:
  7269  0686                     l2212:
  7270  0686  1670               	bsf	__ccovbit10_16/(0+8),__ccovbit10_16& (0+7)	;volatile
  7271                           
  7272                           ;main.c: 403:         CCP1CONbits.DC1B = (0x03 & scaled_duty_cycle);
  7273  0687  0020               	movlb	0	; select bank0
  7274  0688  084C               	movf	PWM_set@scaled_duty_cycle,w
  7275  0689  3903               	andlw	3
  7276  068A  00FB               	movwf	??_PWM_set
  7277  068B  0EFB               	swapf	??_PWM_set,f
  7278  068C  0025               	movlb	5	; select bank5
  7279  068D  0813               	movf	19,w	;volatile
  7280  068E  067B               	xorwf	??_PWM_set,w
  7281  068F  39CF               	andlw	-49
  7282  0690  067B               	xorwf	??_PWM_set,w
  7283  0691  0093               	movwf	19	;volatile
  7284  0692                     __ccov129_end_blk10:
  7285  0692                     __ccov130_start_blk14:
  7286  0692                     l219:
  7287  0692  15F0               	bsf	__ccovbit14_17/(0+8),__ccovbit14_17& (0+7)	;volatile
  7288  0693  0008               	return
  7289  0694                     __end_of_PWM_set:
  7290  0694                     
  7291                           	psect	text27
  7292  0FBD                     __ptext27:	
  7293 ;; *************** function ___wmul *****************
  7294 ;; Defined at:
  7295 ;;		line 15 in file "C:\Program Files\Microchip\xc8\v2.32\pic\sources\c99\common\Umul16.c"
  7296 ;; Parameters:    Size  Location     Type
  7297 ;;  multiplier      2    2[COMMON] unsigned int 
  7298 ;;  multiplicand    2    4[COMMON] unsigned int 
  7299 ;; Auto vars:     Size  Location     Type
  7300 ;;  product         2    6[COMMON] unsigned int 
  7301 ;; Return value:  Size  Location     Type
  7302 ;;                  2    2[COMMON] unsigned int 
  7303 ;; Registers used:
  7304 ;;		wreg, status,2, status,0
  7305 ;; Tracked objects:
  7306 ;;		On entry : 0/0
  7307 ;;		On exit  : 0/0
  7308 ;;		Unchanged: 0/0
  7309 ;; Data sizes:     COMMON   BANK0   BANK1   BANK2   BANK3   BANK4   BANK5   BANK6   BANK7   BANK8   BANK9  BANK10  BANK1
      +1  BANK12
  7310 ;;      Params:         4       0       0       0       0       0       0       0       0       0       0       0       
      +0       0
  7311 ;;      Locals:         2       0       0       0       0       0       0       0       0       0       0       0       
      +0       0
  7312 ;;      Temps:          0       0       0       0       0       0       0       0       0       0       0       0       
      +0       0
  7313 ;;      Totals:         6       0       0       0       0       0       0       0       0       0       0       0       
      +0       0
  7314 ;;Total ram usage:        6 bytes
  7315 ;; Hardware stack levels used: 1
  7316 ;; Hardware stack levels required when called: 1
  7317 ;; This function calls:
  7318 ;;		Nothing
  7319 ;; This function is called by:
  7320 ;;		_PWM_set
  7321 ;; This function uses a non-reentrant model
  7322 ;;
  7323                           
  7324                           
  7325                           ;psect for function ___wmul
  7326  0FBD                     ___wmul:
  7327  0FBD                     l2068:	
  7328                           ;incstack = 0
  7329                           ; Regs used in ___wmul: [wreg+status,2+status,0]
  7330                           
  7331  0FBD  01F9               	clrf	___wmul@product
  7332  0FBE  01FA               	clrf	___wmul@product+1
  7333  0FBF                     l2070:
  7334  0FBF  1C75               	btfss	___wmul@multiplier,0
  7335  0FC0  2FC2               	goto	u691
  7336  0FC1  2FC3               	goto	u690
  7337  0FC2                     u691:
  7338  0FC2  2FC7               	goto	l624
  7339  0FC3                     u690:
  7340  0FC3                     l2072:
  7341  0FC3  0877               	movf	___wmul@multiplicand,w
  7342  0FC4  07F9               	addwf	___wmul@product,f
  7343  0FC5  0878               	movf	___wmul@multiplicand+1,w
  7344  0FC6  3DFA               	addwfc	___wmul@product+1,f
  7345  0FC7                     l624:
  7346  0FC7  3001               	movlw	1
  7347  0FC8                     u705:
  7348  0FC8  35F7               	lslf	___wmul@multiplicand,f
  7349  0FC9  0DF8               	rlf	___wmul@multiplicand+1,f
  7350  0FCA  0B89               	decfsz	9,f
  7351  0FCB  2FC8               	goto	u705
  7352  0FCC                     l2074:
  7353  0FCC  3001               	movlw	1
  7354  0FCD                     u715:
  7355  0FCD  36F6               	lsrf	___wmul@multiplier+1,f
  7356  0FCE  0CF5               	rrf	___wmul@multiplier,f
  7357  0FCF  0B89               	decfsz	9,f
  7358  0FD0  2FCD               	goto	u715
  7359  0FD1                     l2076:
  7360  0FD1  0875               	movf	___wmul@multiplier,w
  7361  0FD2  0476               	iorwf	___wmul@multiplier+1,w
  7362  0FD3  1D03               	btfss	3,2
  7363  0FD4  2FD6               	goto	u721
  7364  0FD5  2FD7               	goto	u720
  7365  0FD6                     u721:
  7366  0FD6  2FBF               	goto	l2070
  7367  0FD7                     u720:
  7368  0FD7                     l2078:
  7369  0FD7  087A               	movf	___wmul@product+1,w
  7370  0FD8  00F6               	movwf	?___wmul+1
  7371  0FD9  0879               	movf	___wmul@product,w
  7372  0FDA  00F5               	movwf	?___wmul
  7373  0FDB                     l626:
  7374  0FDB  0008               	return
  7375  0FDC                     __end_of___wmul:
  7376                           
  7377                           	psect	text28
  7378  0F14                     __ptext28:	
  7379 ;; *************** function _Click_reset *****************
  7380 ;; Defined at:
  7381 ;;		line 33 in file "Click_7Seg.c"
  7382 ;; Parameters:    Size  Location     Type
  7383 ;;		None
  7384 ;; Auto vars:     Size  Location     Type
  7385 ;;		None
  7386 ;; Return value:  Size  Location     Type
  7387 ;;                  1    wreg      void 
  7388 ;; Registers used:
  7389 ;;		None
  7390 ;; Tracked objects:
  7391 ;;		On entry : 0/0
  7392 ;;		On exit  : 0/0
  7393 ;;		Unchanged: 0/0
  7394 ;; Data sizes:     COMMON   BANK0   BANK1   BANK2   BANK3   BANK4   BANK5   BANK6   BANK7   BANK8   BANK9  BANK10  BANK1
      +1  BANK12
  7395 ;;      Params:         0       0       0       0       0       0       0       0       0       0       0       0       
      +0       0
  7396 ;;      Locals:         0       0       0       0       0       0       0       0       0       0       0       0       
      +0       0
  7397 ;;      Temps:          0       0       0       0       0       0       0       0       0       0       0       0       
      +0       0
  7398 ;;      Totals:         0       0       0       0       0       0       0       0       0       0       0       0       
      +0       0
  7399 ;;Total ram usage:        0 bytes
  7400 ;; Hardware stack levels used: 1
  7401 ;; Hardware stack levels required when called: 1
  7402 ;; This function calls:
  7403 ;;		Nothing
  7404 ;; This function is called by:
  7405 ;;		_main
  7406 ;; This function uses a non-reentrant model
  7407 ;;
  7408                           
  7409                           
  7410                           ;psect for function _Click_reset
  7411  0F14                     _Click_reset:
  7412                           
  7413                           ;incstack = 0
  7414                           ; Regs used in _Click_reset: []
  7415  0F14                     l2174:
  7416                           
  7417                           ;Click_7Seg.c: 37:     LATAbits.LATA4 = 0;
  7418  0F14  0022               	movlb	2	; select bank2
  7419  0F15  120C               	bcf	12,4	;volatile
  7420                           
  7421                           ;Click_7Seg.c: 38:     LATAbits.LATA4 = 1;
  7422  0F16  160C               	bsf	12,4	;volatile
  7423  0F17                     __ccov7_end_blk0:
  7424  0F17                     __ccov8_start_blk1:
  7425  0F17                     l18:
  7426  0F17  17F1               	bsf	__ccovbit1_5/(0+8),__ccovbit1_5& (0+7)	;volatile
  7427  0F18  0008               	return
  7428  0F19                     __end_of_Click_reset:
  7429  0F19                     
  7430                           	psect	intentry
  7431  0004                     __pintentry:	
  7432 ;; *************** function _my_isr *****************
  7433 ;; Defined at:
  7434 ;;		line 484 in file "main.c"
  7435 ;; Parameters:    Size  Location     Type
  7436 ;;		None
  7437 ;; Auto vars:     Size  Location     Type
  7438 ;;		None
  7439 ;; Return value:  Size  Location     Type
  7440 ;;                  1    wreg      void 
  7441 ;; Registers used:
  7442 ;;		wreg, fsr0l, fsr0h, status,2, status,0
  7443 ;; Tracked objects:
  7444 ;;		On entry : 0/0
  7445 ;;		On exit  : 0/0
  7446 ;;		Unchanged: 0/0
  7447 ;; Data sizes:     COMMON   BANK0   BANK1   BANK2   BANK3   BANK4   BANK5   BANK6   BANK7   BANK8   BANK9  BANK10  BANK1
      +1  BANK12
  7448 ;;      Params:         0       0       0       0       0       0       0       0       0       0       0       0       
      +0       0
  7449 ;;      Locals:         0       0       0       0       0       0       0       0       0       0       0       0       
      +0       0
  7450 ;;      Temps:          2       0       0       0       0       0       0       0       0       0       0       0       
      +0       0
  7451 ;;      Totals:         2       0       0       0       0       0       0       0       0       0       0       0       
      +0       0
  7452 ;;Total ram usage:        2 bytes
  7453 ;; Hardware stack levels used: 1
  7454 ;; This function calls:
  7455 ;;		Nothing
  7456 ;; This function is called by:
  7457 ;;		Interrupt level 1
  7458 ;; This function uses a non-reentrant model
  7459 ;;
  7460                           
  7461  0004                     _my_isr:
  7462                           
  7463                           ;incstack = 0
  7464  0004  147E               	bsf	int$flags,0	;set compiler interrupt flag (level 1)
  7465                           
  7466                           ; Regs used in _my_isr: [wreg-fsr0h+status,2+status,0]
  7467  0005  3180               	pagesel	$
  7468  0006                     i1l2598:
  7469                           
  7470                           ;main.c: 487:     if (INTE && INTF) {
  7471  0006  1E0B               	btfss	11,4	;volatile
  7472  0007  2809               	goto	u109_21
  7473  0008  280A               	goto	u109_20
  7474  0009                     u109_21:
  7475  0009  2838               	goto	i1l257
  7476  000A                     u109_20:
  7477  000A                     __ccov174_end_blk0:
  7478  000A                     __ccov175_start_blk1:
  7479  000A                     i1l2600:
  7480  000A  0020               	movlb	0	; select bank0
  7481  000B  16A6               	bsf	__ccovbit1_29/(0+8),__ccovbit1_29& (0+7)	;volatile
  7482  000C  1C8B               	btfss	11,1	;volatile
  7483  000D  280F               	goto	u110_21
  7484  000E  2810               	goto	u110_20
  7485  000F                     u110_21:
  7486  000F  2838               	goto	i1l257
  7487  0010                     u110_20:
  7488  0010  2823               	goto	i1l2612
  7489  0011                     __ccov175_end_blk1:
  7490  0011                     __ccov176_start_blk3:
  7491  0011                     i1l259:	
  7492                           ;main.c: 490:             case 1:
  7493                           
  7494  0011  1626               	bsf	__ccovbit3_30/(0+8),__ccovbit3_30& (0+7)	;volatile
  7495                           
  7496                           ;main.c: 491:                 state_door = STATE_DOOR_OPEN;
  7497  0012  01C9               	clrf	_state_door
  7498  0013  0AC9               	incf	_state_door,f
  7499                           
  7500                           ;main.c: 492:                 OPTION_REGbits.INTEDG = !1;
  7501  0014  0021               	movlb	1	; select bank1
  7502  0015  1315               	bcf	21,6	;volatile
  7503                           
  7504                           ;main.c: 493:                 NewDoorPolarity = 1;
  7505  0016  16F2               	bsf	_NewDoorPolarity/(0+8),_NewDoorPolarity& (0+7)
  7506                           
  7507                           ;main.c: 494:                 DoorStateBeforePrel = 1;
  7508  0017  0020               	movlb	0	; select bank0
  7509  0018  01C7               	clrf	_DoorStateBeforePrel
  7510  0019  0AC7               	incf	_DoorStateBeforePrel,f
  7511                           
  7512                           ;main.c: 495:                 break;
  7513  001A  2835               	goto	i1l260
  7514  001B                     __ccov176_end_blk3:
  7515  001B                     __ccov177_start_blk5:
  7516  001B                     i1l2604:
  7517                           
  7518                           ;main.c: 497:                 state_door = STATE_DOOR_CLOSED;
  7519  001B  01C9               	clrf	_state_door
  7520  001C                     __ccov177_end_blk5:
  7521  001C                     __ccov178_start_blk6:
  7522  001C                     i1l2606:
  7523                           
  7524                           ;main.c: 498:                 OPTION_REGbits.INTEDG = !0;
  7525  001C  0021               	movlb	1	; select bank1
  7526  001D  1715               	bsf	21,6	;volatile
  7527  001E                     __ccov178_end_blk6:
  7528  001E                     __ccov179_start_blk7:
  7529  001E                     i1l2608:
  7530  001E  0020               	movlb	0	; select bank0
  7531  001F  15A6               	bsf	__ccovbit7_31/(0+8),__ccovbit7_31& (0+7)	;volatile
  7532                           
  7533                           ;main.c: 499:                 NewDoorPolarity = 0;
  7534  0020  12F2               	bcf	_NewDoorPolarity/(0+8),_NewDoorPolarity& (0+7)
  7535                           
  7536                           ;main.c: 500:                 DoorStateBeforePrel = 0;
  7537  0021  01C7               	clrf	_DoorStateBeforePrel
  7538                           
  7539                           ;main.c: 501:                 break;
  7540  0022  2835               	goto	i1l260
  7541  0023                     __ccov179_end_blk7:
  7542  0023                     __ccov180_start_blk10:
  7543  0023                     i1l2612:
  7544  0023  0C0C               	rrf	12,w	;volatile
  7545  0024  0C89               	rrf	9,f
  7546  0025  3901               	andlw	1
  7547  0026  00F3               	movwf	??_my_isr
  7548  0027  01F4               	clrf	??_my_isr+1
  7549                           
  7550                           ; Switch on 2 bytes has been partitioned into a top level switch of size 1, and 1 sub-sw
      +                          itches
  7551                           ; Switch size 1, requested type "simple"
  7552                           ; Number of cases is 1, Range of values is 0 to 0
  7553                           ; switch strategies available:
  7554                           ; Name         Instructions Cycles
  7555                           ; simple_byte            4     3 (average)
  7556                           ; direct_byte            8     6 (fixed)
  7557                           ; jumptable            260     6 (fixed)
  7558                           ;	Chosen strategy is simple_byte
  7559  0028  0874               	movf	??_my_isr+1,w
  7560  0029  3A00               	xorlw	0	; case 0
  7561  002A  1903               	skipnz
  7562  002B  282D               	goto	i1l3492
  7563  002C  2835               	goto	i1l260
  7564  002D                     i1l3492:
  7565                           
  7566                           ; Switch size 1, requested type "simple"
  7567                           ; Number of cases is 2, Range of values is 0 to 1
  7568                           ; switch strategies available:
  7569                           ; Name         Instructions Cycles
  7570                           ; simple_byte            7     4 (average)
  7571                           ; direct_byte           10     6 (fixed)
  7572                           ; jumptable            260     6 (fixed)
  7573                           ;	Chosen strategy is simple_byte
  7574  002D  0873               	movf	??_my_isr,w
  7575  002E  3A00               	xorlw	0	; case 0
  7576  002F  1903               	skipnz
  7577  0030  281B               	goto	i1l2604
  7578  0031  3A01               	xorlw	1	; case 1
  7579  0032  1903               	skipnz
  7580  0033  2811               	goto	i1l259
  7581  0034  2835               	goto	i1l260
  7582  0035                     __ccov180_end_blk10:
  7583  0035                     __ccov181_start_blk11:
  7584  0035                     i1l260:
  7585  0035  1526               	bsf	__ccovbit11_32/(0+8),__ccovbit11_32& (0+7)	;volatile
  7586                           
  7587                           ;main.c: 503:         NewStateChangeDetected = 1;
  7588  0036  1772               	bsf	_NewStateChangeDetected/(0+8),_NewStateChangeDetected& (0+7)
  7589                           
  7590                           ;main.c: 505:         INTF = 0;
  7591  0037  108B               	bcf	11,1	;volatile
  7592  0038                     __ccov181_end_blk11:
  7593  0038                     __ccov182_start_blk12:
  7594  0038                     i1l257:	
  7595                           ;main.c: 506:     }
  7596                           
  7597                           
  7598                           ;main.c: 509:     if (PIE1bits.TMR2IE && PIR1bits.TMR2IF) {
  7599  0038  0021               	movlb	1	; select bank1
  7600  0039  1C91               	btfss	17,1	;volatile
  7601  003A  283C               	goto	u111_21
  7602  003B  283D               	goto	u111_20
  7603  003C                     u111_21:
  7604  003C  286D               	goto	i1l265
  7605  003D                     u111_20:
  7606  003D                     __ccov182_end_blk12:
  7607  003D                     __ccov183_start_blk13:
  7608  003D                     i1l2614:
  7609  003D  0020               	movlb	0	; select bank0
  7610  003E  14A6               	bsf	__ccovbit13_33/(0+8),__ccovbit13_33& (0+7)	;volatile
  7611  003F  1C91               	btfss	17,1	;volatile
  7612  0040  2842               	goto	u112_21
  7613  0041  2843               	goto	u112_20
  7614  0042                     u112_21:
  7615  0042  286D               	goto	i1l265
  7616  0043                     u112_20:
  7617  0043                     __ccov183_end_blk13:
  7618  0043                     __ccov184_start_blk14:
  7619  0043                     i1l2616:
  7620                           
  7621                           ;main.c: 510:         if (prelCounter > 0)
  7622  0043  083F               	movf	_prelCounter+1,w	;volatile
  7623  0044  3A80               	xorlw	128
  7624  0045  00F3               	movwf	??_my_isr
  7625  0046  3080               	movlw	128
  7626  0047  0273               	subwf	??_my_isr,w
  7627  0048  1D03               	skipz
  7628  0049  284C               	goto	u113_25
  7629  004A  3001               	movlw	1
  7630  004B  023E               	subwf	_prelCounter,w	;volatile
  7631  004C                     u113_25:
  7632  004C  1C03               	skipc
  7633  004D  284F               	goto	u113_21
  7634  004E  2850               	goto	u113_20
  7635  004F                     u113_21:
  7636  004F  2856               	goto	i1l263
  7637  0050                     u113_20:
  7638  0050                     __ccov184_end_blk14:
  7639  0050                     __ccov185_start_blk15:
  7640  0050                     i1l2618:
  7641  0050  0020               	movlb	0	; select bank0
  7642  0051  1426               	bsf	__ccovbit15_34/(0+8),__ccovbit15_34& (0+7)	;volatile
  7643                           
  7644                           ;main.c: 511:             prelCounter--;
  7645  0052  30FF               	movlw	255
  7646  0053  07BE               	addwf	_prelCounter,f	;volatile
  7647  0054  30FF               	movlw	255
  7648  0055  3DBF               	addwfc	_prelCounter+1,f	;volatile
  7649  0056                     __ccov185_end_blk15:
  7650  0056                     __ccov186_start_blk16:
  7651  0056                     i1l263:
  7652                           
  7653                           ;main.c: 513:         if (ihcPulseTimer > 0)
  7654  0056  0020               	movlb	0	; select bank0
  7655  0057  083D               	movf	_ihcPulseTimer+1,w	;volatile
  7656  0058  3A80               	xorlw	128
  7657  0059  00F3               	movwf	??_my_isr
  7658  005A  3080               	movlw	128
  7659  005B  0273               	subwf	??_my_isr,w
  7660  005C  1D03               	skipz
  7661  005D  2860               	goto	u114_25
  7662  005E  3001               	movlw	1
  7663  005F  023C               	subwf	_ihcPulseTimer,w	;volatile
  7664  0060                     u114_25:
  7665  0060  1C03               	skipc
  7666  0061  2863               	goto	u114_21
  7667  0062  2864               	goto	u114_20
  7668  0063                     u114_21:
  7669  0063  286A               	goto	i1l2622
  7670  0064                     u114_20:
  7671  0064                     __ccov186_end_blk16:
  7672  0064                     __ccov187_start_blk17:
  7673  0064                     i1l2620:
  7674  0064  0020               	movlb	0	; select bank0
  7675  0065  17A5               	bsf	__ccovbit17_35/(0+8),__ccovbit17_35& (0+7)	;volatile
  7676                           
  7677                           ;main.c: 514:             ihcPulseTimer--;
  7678  0066  30FF               	movlw	255
  7679  0067  07BC               	addwf	_ihcPulseTimer,f	;volatile
  7680  0068  30FF               	movlw	255
  7681  0069  3DBD               	addwfc	_ihcPulseTimer+1,f	;volatile
  7682  006A                     __ccov187_end_blk17:
  7683  006A                     __ccov188_start_blk19:
  7684  006A                     i1l2622:
  7685  006A  0020               	movlb	0	; select bank0
  7686  006B  1725               	bsf	__ccovbit19_36/(0+8),__ccovbit19_36& (0+7)	;volatile
  7687                           
  7688                           ;main.c: 515:         PIR1bits.TMR2IF = 0;
  7689  006C  1091               	bcf	17,1	;volatile
  7690  006D                     __ccov188_end_blk19:
  7691  006D                     __ccov189_start_blk22:
  7692  006D                     i1l265:
  7693  006D  0020               	movlb	0	; select bank0
  7694  006E  16A5               	bsf	__ccovbit22_37/(0+8),__ccovbit22_37& (0+7)	;volatile
  7695  006F  107E               	bcf	int$flags,0	;clear compiler interrupt flag (level 1)
  7696  0070  0009               	retfie
  7697  0071                     __end_of_my_isr:
  7698  0071                     
  7699                           	psect	codecov_info_hdr
  7700  0000                     __pcodecov_info_hdr:	
  7701                           ;
  7702                           ; Code-coverage Info Header
  7703                           ;
  7704                           
  7705  0000  0010               	db	16	; SIZE
  7706  0001  00000001           	ddw	1	; VERSION
  7707  0005  0001               	db	1	; POINTSIZE
  7708  0006  0008               	db	8	; UNITSIZE
  7709  0007  0001               	db	1	; FLAGS=SET
  7710  0008  00000000           	ddw	0	; Reserved
  7711  000C  00000000           	ddw	0	; Reserved
  7712                           
  7713                           	psect	codecov_info
  7714  0000                     __pcodecov_info:	
  7715                           ;
  7716                           ; Code-coverage Info
  7717                           ;
  7718                           
  7719                           
  7720                           ; Function: int2bcd, coverage: 2,1,0
  7721  0000  00000000           	ddw	0	; CC_ADDR_SPACE=Data
  7722  0004  00000072           	ddw	__ccovbit2_1/(0+8)	; CC_ADDR
  7723  0008  00000001           	ddw	1	; NUM_POINTS
  7724  000C  00000003           	ddw	__ccovbit2_1& (0+7)	; OFFSET
  7725  0010  00000000           	ddw	0	; Reserved
  7726  0014  FFFFFFFF           	ddw	4294967295	; RANGE_SPACE=restricted
  7727  0018  00000003           	ddw	3	; NUM_RANGES
  7728  001C  0000042C           	ddw	__ccov3_start_blk2	; block 2 START_ADDR
  7729  0020  00000465           	ddw	__ccov3_end_blk2	; block 2 END_ADDR
  7730  0024  00000426           	ddw	__ccov2_start_blk1	; block 1 START_ADDR
  7731  0028  0000042C           	ddw	__ccov2_end_blk1	; block 1 END_ADDR
  7732  002C  00000418           	ddw	_int2bcd	; block 0 START_ADDR
  7733  0030  00000426           	ddw	__ccov1_end_blk0	; block 0 END_ADDR
  7734                           
  7735                           ; Function: int2bcd, coverage: 4,1,0
  7736  0034  00000000           	ddw	0	; CC_ADDR_SPACE=Data
  7737  0038  00000072           	ddw	__ccovbit4_2/(0+8)	; CC_ADDR
  7738  003C  00000001           	ddw	1	; NUM_POINTS
  7739  0040  00000002           	ddw	__ccovbit4_2& (0+7)	; OFFSET
  7740  0044  00000000           	ddw	0	; Reserved
  7741  0048  FFFFFFFF           	ddw	4294967295	; RANGE_SPACE=restricted
  7742  004C  00000003           	ddw	3	; NUM_RANGES
  7743  0050  00000465           	ddw	__ccov4_start_blk4	; block 4 START_ADDR
  7744  0054  00000496           	ddw	__ccov4_end_blk4	; block 4 END_ADDR
  7745  0058  00000426           	ddw	__ccov2_start_blk1	; block 1 START_ADDR
  7746  005C  0000042C           	ddw	__ccov2_end_blk1	; block 1 END_ADDR
  7747  0060  00000418           	ddw	_int2bcd	; block 0 START_ADDR
  7748  0064  00000426           	ddw	__ccov1_end_blk0	; block 0 END_ADDR
  7749                           
  7750                           ; Function: int2bcd, coverage: 7,0
  7751  0068  00000000           	ddw	0	; CC_ADDR_SPACE=Data
  7752  006C  00000072           	ddw	__ccovbit7_3/(0+8)	; CC_ADDR
  7753  0070  00000001           	ddw	1	; NUM_POINTS
  7754  0074  00000001           	ddw	__ccovbit7_3& (0+7)	; OFFSET
  7755  0078  00000000           	ddw	0	; Reserved
  7756  007C  FFFFFFFF           	ddw	4294967295	; RANGE_SPACE=restricted
  7757  0080  00000002           	ddw	2	; NUM_RANGES
  7758  0084  00000496           	ddw	__ccov5_start_blk7	; block 7 START_ADDR
  7759  0088  000004A0           	ddw	__ccov5_end_blk7	; block 7 END_ADDR
  7760  008C  00000418           	ddw	_int2bcd	; block 0 START_ADDR
  7761  0090  00000426           	ddw	__ccov1_end_blk0	; block 0 END_ADDR
  7762                           
  7763                           ; Function: int2bcd, coverage: 9,0
  7764  0094  00000000           	ddw	0	; CC_ADDR_SPACE=Data
  7765  0098  00000072           	ddw	__ccovbit9_4/(0+8)	; CC_ADDR
  7766  009C  00000001           	ddw	1	; NUM_POINTS
  7767  00A0  00000000           	ddw	__ccovbit9_4& (0+7)	; OFFSET
  7768  00A4  00000000           	ddw	0	; Reserved
  7769  00A8  FFFFFFFF           	ddw	4294967295	; RANGE_SPACE=restricted
  7770  00AC  00000002           	ddw	2	; NUM_RANGES
  7771  00B0  000004A0           	ddw	__ccov6_start_blk9	; block 9 START_ADDR
  7772  00B4  000004A2           	ddw	__end_of_int2bcd	; block 9 END_ADDR
  7773  00B8  00000418           	ddw	_int2bcd	; block 0 START_ADDR
  7774  00BC  00000426           	ddw	__ccov1_end_blk0	; block 0 END_ADDR
  7775                           
  7776                           ; Function: Click_reset, coverage: 1,0
  7777  00C0  00000000           	ddw	0	; CC_ADDR_SPACE=Data
  7778  00C4  00000071           	ddw	__ccovbit1_5/(0+8)	; CC_ADDR
  7779  00C8  00000001           	ddw	1	; NUM_POINTS
  7780  00CC  00000007           	ddw	__ccovbit1_5& (0+7)	; OFFSET
  7781  00D0  00000000           	ddw	0	; Reserved
  7782  00D4  FFFFFFFF           	ddw	4294967295	; RANGE_SPACE=restricted
  7783  00D8  00000002           	ddw	2	; NUM_RANGES
  7784  00DC  00000F17           	ddw	__ccov8_start_blk1	; block 1 START_ADDR
  7785  00E0  00000F19           	ddw	__end_of_Click_reset	; block 1 END_ADDR
  7786  00E4  00000F14           	ddw	_Click_reset	; block 0 START_ADDR
  7787  00E8  00000F17           	ddw	__ccov7_end_blk0	; block 0 END_ADDR
  7788                           
  7789                           ; Function: Click_latch_data, coverage: 1,0
  7790  00EC  00000000           	ddw	0	; CC_ADDR_SPACE=Data
  7791  00F0  00000071           	ddw	__ccovbit1_6/(0+8)	; CC_ADDR
  7792  00F4  00000001           	ddw	1	; NUM_POINTS
  7793  00F8  00000006           	ddw	__ccovbit1_6& (0+7)	; OFFSET
  7794  00FC  00000000           	ddw	0	; Reserved
  7795  0100  FFFFFFFF           	ddw	4294967295	; RANGE_SPACE=restricted
  7796  0104  00000002           	ddw	2	; NUM_RANGES
  7797  0108  00000F26           	ddw	__ccov10_start_blk1	; block 1 START_ADDR
  7798  010C  00000F28           	ddw	__end_of_Click_latch_data	; block 1 END_ADDR
  7799  0110  00000F23           	ddw	_Click_latch_data	; block 0 START_ADDR
  7800  0114  00000F26           	ddw	__ccov9_end_blk0	; block 0 END_ADDR
  7801                           
  7802                           ; Function: main, coverage: 79,78,77,76,75,74,73,72,71,70,69,68,67,66,65,64,63,62,61,60,
      +                          59,58,57,56,55,54,53,52,51,50,49,48,47,46,45,44,43,42,41,40,39,38,37,36,35,34,33,32,31,3
      +                          0,29,28,27,26,25,24,23,22,21,20,19,18,17,16,15,14,13,12,11,10,9,8,7,6,5,4,3,2,1,0
  7803  0118  00000000           	ddw	0	; CC_ADDR_SPACE=Data
  7804  011C  00000071           	ddw	__ccovbit79_7/(0+8)	; CC_ADDR
  7805  0120  00000001           	ddw	1	; NUM_POINTS
  7806  0124  00000005           	ddw	__ccovbit79_7& (0+7)	; OFFSET
  7807  0128  00000000           	ddw	0	; Reserved
  7808  012C  FFFFFFFF           	ddw	4294967295	; RANGE_SPACE=restricted
  7809  0130  00000050           	ddw	80	; NUM_RANGES
  7810  0134  000003A4           	ddw	__ccov90_start_blk79	; block 79 START_ADDR
  7811  0138  000003A7           	ddw	__ccov90_end_blk79	; block 79 END_ADDR
  7812  013C  0000039B           	ddw	__ccov89_start_blk78	; block 78 START_ADDR
  7813  0140  000003A4           	ddw	__ccov89_end_blk78	; block 78 END_ADDR
  7814  0144  00000399           	ddw	__ccov88_start_blk77	; block 77 START_ADDR
  7815  0148  0000039B           	ddw	__ccov88_end_blk77	; block 77 END_ADDR
  7816  014C  0000038C           	ddw	__ccov87_start_blk76	; block 76 START_ADDR
  7817  0150  00000399           	ddw	__ccov87_end_blk76	; block 76 END_ADDR
  7818  0154  0000037C           	ddw	__ccov86_start_blk75	; block 75 START_ADDR
  7819  0158  0000038C           	ddw	__ccov86_end_blk75	; block 75 END_ADDR
  7820  015C  00000363           	ddw	__ccov85_start_blk74	; block 74 START_ADDR
  7821  0160  0000037C           	ddw	__ccov85_end_blk74	; block 74 END_ADDR
  7822  0164  0000035B           	ddw	__ccov84_start_blk73	; block 73 START_ADDR
  7823  0168  00000363           	ddw	__ccov84_end_blk73	; block 73 END_ADDR
  7824  016C  0000035A           	ddw	__ccov83_start_blk72	; block 72 START_ADDR
  7825  0170  0000035B           	ddw	__ccov83_end_blk72	; block 72 END_ADDR
  7826  0174  00000355           	ddw	__ccov82_start_blk71	; block 71 START_ADDR
  7827  0178  0000035A           	ddw	__ccov82_end_blk71	; block 71 END_ADDR
  7828  017C  00000354           	ddw	__ccov81_start_blk70	; block 70 START_ADDR
  7829  0180  00000355           	ddw	__ccov81_end_blk70	; block 70 END_ADDR
  7830  0184  00000348           	ddw	__ccov80_start_blk69	; block 69 START_ADDR
  7831  0188  00000354           	ddw	__ccov80_end_blk69	; block 69 END_ADDR
  7832  018C  00000340           	ddw	__ccov79_start_blk68	; block 68 START_ADDR
  7833  0190  00000348           	ddw	__ccov79_end_blk68	; block 68 END_ADDR
  7834  0194  00000338           	ddw	__ccov78_start_blk67	; block 67 START_ADDR
  7835  0198  00000340           	ddw	__ccov78_end_blk67	; block 67 END_ADDR
  7836  019C  0000032E           	ddw	__ccov77_start_blk66	; block 66 START_ADDR
  7837  01A0  00000338           	ddw	__ccov77_end_blk66	; block 66 END_ADDR
  7838  01A4  0000032B           	ddw	__ccov76_start_blk65	; block 65 START_ADDR
  7839  01A8  0000032E           	ddw	__ccov76_end_blk65	; block 65 END_ADDR
  7840  01AC  00000328           	ddw	__ccov75_start_blk64	; block 64 START_ADDR
  7841  01B0  0000032B           	ddw	__ccov75_end_blk64	; block 64 END_ADDR
  7842  01B4  00000324           	ddw	__ccov74_start_blk63	; block 63 START_ADDR
  7843  01B8  00000328           	ddw	__ccov74_end_blk63	; block 63 END_ADDR
  7844  01BC  00000323           	ddw	__ccov73_start_blk62	; block 62 START_ADDR
  7845  01C0  00000324           	ddw	__ccov73_end_blk62	; block 62 END_ADDR
  7846  01C4  0000031A           	ddw	__ccov72_start_blk61	; block 61 START_ADDR
  7847  01C8  00000323           	ddw	__ccov72_end_blk61	; block 61 END_ADDR
  7848  01CC  00000317           	ddw	__ccov71_start_blk60	; block 60 START_ADDR
  7849  01D0  0000031A           	ddw	__ccov71_end_blk60	; block 60 END_ADDR
  7850  01D4  00000314           	ddw	__ccov70_start_blk59	; block 59 START_ADDR
  7851  01D8  00000317           	ddw	__ccov70_end_blk59	; block 59 END_ADDR
  7852  01DC  00000311           	ddw	__ccov69_start_blk58	; block 58 START_ADDR
  7853  01E0  00000314           	ddw	__ccov69_end_blk58	; block 58 END_ADDR
  7854  01E4  0000030F           	ddw	__ccov68_start_blk57	; block 57 START_ADDR
  7855  01E8  00000311           	ddw	__ccov68_end_blk57	; block 57 END_ADDR
  7856  01EC  0000030E           	ddw	__ccov67_start_blk56	; block 56 START_ADDR
  7857  01F0  0000030F           	ddw	__ccov67_end_blk56	; block 56 END_ADDR
  7858  01F4  0000030B           	ddw	__ccov66_start_blk55	; block 55 START_ADDR
  7859  01F8  0000030E           	ddw	__ccov66_end_blk55	; block 55 END_ADDR
  7860  01FC  0000030A           	ddw	__ccov65_start_blk54	; block 54 START_ADDR
  7861  0200  0000030B           	ddw	__ccov65_end_blk54	; block 54 END_ADDR
  7862  0204  00000308           	ddw	__ccov64_start_blk53	; block 53 START_ADDR
  7863  0208  0000030A           	ddw	__ccov64_end_blk53	; block 53 END_ADDR
  7864  020C  00000307           	ddw	__ccov63_start_blk52	; block 52 START_ADDR
  7865  0210  00000308           	ddw	__ccov63_end_blk52	; block 52 END_ADDR
  7866  0214  00000306           	ddw	__ccov62_start_blk51	; block 51 START_ADDR
  7867  0218  00000307           	ddw	__ccov62_end_blk51	; block 51 END_ADDR
  7868  021C  00000304           	ddw	__ccov61_start_blk50	; block 50 START_ADDR
  7869  0220  00000306           	ddw	__ccov61_end_blk50	; block 50 END_ADDR
  7870  0224  00000302           	ddw	__ccov60_start_blk49	; block 49 START_ADDR
  7871  0228  00000304           	ddw	__ccov60_end_blk49	; block 49 END_ADDR
  7872  022C  00000300           	ddw	__ccov59_start_blk48	; block 48 START_ADDR
  7873  0230  00000302           	ddw	__ccov59_end_blk48	; block 48 END_ADDR
  7874  0234  000002F1           	ddw	__ccov58_start_blk47	; block 47 START_ADDR
  7875  0238  00000300           	ddw	__ccov58_end_blk47	; block 47 END_ADDR
  7876  023C  000002F0           	ddw	__ccov57_start_blk46	; block 46 START_ADDR
  7877  0240  000002F1           	ddw	__ccov57_end_blk46	; block 46 END_ADDR
  7878  0244  000002EE           	ddw	__ccov56_start_blk45	; block 45 START_ADDR
  7879  0248  000002F0           	ddw	__ccov56_end_blk45	; block 45 END_ADDR
  7880  024C  000002ED           	ddw	__ccov55_start_blk44	; block 44 START_ADDR
  7881  0250  000002EE           	ddw	__ccov55_end_blk44	; block 44 END_ADDR
  7882  0254  000002EC           	ddw	__ccov54_start_blk43	; block 43 START_ADDR
  7883  0258  000002ED           	ddw	__ccov54_end_blk43	; block 43 END_ADDR
  7884  025C  000002EB           	ddw	__ccov53_start_blk42	; block 42 START_ADDR
  7885  0260  000002EC           	ddw	__ccov53_end_blk42	; block 42 END_ADDR
  7886  0264  000002E9           	ddw	__ccov52_start_blk41	; block 41 START_ADDR
  7887  0268  000002EB           	ddw	__ccov52_end_blk41	; block 41 END_ADDR
  7888  026C  000002E7           	ddw	__ccov51_start_blk40	; block 40 START_ADDR
  7889  0270  000002E9           	ddw	__ccov51_end_blk40	; block 40 END_ADDR
  7890  0274  000002E6           	ddw	__ccov50_start_blk39	; block 39 START_ADDR
  7891  0278  000002E7           	ddw	__ccov50_end_blk39	; block 39 END_ADDR
  7892  027C  000002E5           	ddw	__ccov49_start_blk38	; block 38 START_ADDR
  7893  0280  000002E6           	ddw	__ccov49_end_blk38	; block 38 END_ADDR
  7894  0284  000002E0           	ddw	__ccov48_start_blk37	; block 37 START_ADDR
  7895  0288  000002E5           	ddw	__ccov48_end_blk37	; block 37 END_ADDR
  7896  028C  000002DF           	ddw	__ccov47_start_blk36	; block 36 START_ADDR
  7897  0290  000002E0           	ddw	__ccov47_end_blk36	; block 36 END_ADDR
  7898  0294  000002DE           	ddw	__ccov46_start_blk35	; block 35 START_ADDR
  7899  0298  000002DF           	ddw	__ccov46_end_blk35	; block 35 END_ADDR
  7900  029C  000002DC           	ddw	__ccov45_start_blk34	; block 34 START_ADDR
  7901  02A0  000002DE           	ddw	__ccov45_end_blk34	; block 34 END_ADDR
  7902  02A4  000002DB           	ddw	__ccov44_start_blk33	; block 33 START_ADDR
  7903  02A8  000002DC           	ddw	__ccov44_end_blk33	; block 33 END_ADDR
  7904  02AC  000002DA           	ddw	__ccov43_start_blk32	; block 32 START_ADDR
  7905  02B0  000002DB           	ddw	__ccov43_end_blk32	; block 32 END_ADDR
  7906  02B4  000002D8           	ddw	__ccov42_start_blk31	; block 31 START_ADDR
  7907  02B8  000002DA           	ddw	__ccov42_end_blk31	; block 31 END_ADDR
  7908  02BC  000002D7           	ddw	__ccov41_start_blk30	; block 30 START_ADDR
  7909  02C0  000002D8           	ddw	__ccov41_end_blk30	; block 30 END_ADDR
  7910  02C4  000002D5           	ddw	__ccov40_start_blk29	; block 29 START_ADDR
  7911  02C8  000002D7           	ddw	__ccov40_end_blk29	; block 29 END_ADDR
  7912  02CC  000002D3           	ddw	__ccov39_start_blk28	; block 28 START_ADDR
  7913  02D0  000002D5           	ddw	__ccov39_end_blk28	; block 28 END_ADDR
  7914  02D4  000002D2           	ddw	__ccov38_start_blk27	; block 27 START_ADDR
  7915  02D8  000002D3           	ddw	__ccov38_end_blk27	; block 27 END_ADDR
  7916  02DC  000002D1           	ddw	__ccov37_start_blk26	; block 26 START_ADDR
  7917  02E0  000002D2           	ddw	__ccov37_end_blk26	; block 26 END_ADDR
  7918  02E4  000002D0           	ddw	__ccov36_start_blk25	; block 25 START_ADDR
  7919  02E8  000002D1           	ddw	__ccov36_end_blk25	; block 25 END_ADDR
  7920  02EC  000002CF           	ddw	__ccov35_start_blk24	; block 24 START_ADDR
  7921  02F0  000002D0           	ddw	__ccov35_end_blk24	; block 24 END_ADDR
  7922  02F4  000002CE           	ddw	__ccov34_start_blk23	; block 23 START_ADDR
  7923  02F8  000002CF           	ddw	__ccov34_end_blk23	; block 23 END_ADDR
  7924  02FC  000002CC           	ddw	__ccov33_start_blk22	; block 22 START_ADDR
  7925  0300  000002CE           	ddw	__ccov33_end_blk22	; block 22 END_ADDR
  7926  0304  000002CB           	ddw	__ccov32_start_blk21	; block 21 START_ADDR
  7927  0308  000002CC           	ddw	__ccov32_end_blk21	; block 21 END_ADDR
  7928  030C  000002CA           	ddw	__ccov31_start_blk20	; block 20 START_ADDR
  7929  0310  000002CB           	ddw	__ccov31_end_blk20	; block 20 END_ADDR
  7930  0314  000002C9           	ddw	__ccov30_start_blk19	; block 19 START_ADDR
  7931  0318  000002CA           	ddw	__ccov30_end_blk19	; block 19 END_ADDR
  7932  031C  000002C8           	ddw	__ccov29_start_blk18	; block 18 START_ADDR
  7933  0320  000002C9           	ddw	__ccov29_end_blk18	; block 18 END_ADDR
  7934  0324  000002C7           	ddw	__ccov28_start_blk17	; block 17 START_ADDR
  7935  0328  000002C8           	ddw	__ccov28_end_blk17	; block 17 END_ADDR
  7936  032C  000002C6           	ddw	__ccov27_start_blk16	; block 16 START_ADDR
  7937  0330  000002C7           	ddw	__ccov27_end_blk16	; block 16 END_ADDR
  7938  0334  000002C5           	ddw	__ccov26_start_blk15	; block 15 START_ADDR
  7939  0338  000002C6           	ddw	__ccov26_end_blk15	; block 15 END_ADDR
  7940  033C  000002C4           	ddw	__ccov25_start_blk14	; block 14 START_ADDR
  7941  0340  000002C5           	ddw	__ccov25_end_blk14	; block 14 END_ADDR
  7942  0344  000002C3           	ddw	__ccov24_start_blk13	; block 13 START_ADDR
  7943  0348  000002C4           	ddw	__ccov24_end_blk13	; block 13 END_ADDR
  7944  034C  000002C2           	ddw	__ccov23_start_blk12	; block 12 START_ADDR
  7945  0350  000002C3           	ddw	__ccov23_end_blk12	; block 12 END_ADDR
  7946  0354  000002C1           	ddw	__ccov22_start_blk11	; block 11 START_ADDR
  7947  0358  000002C2           	ddw	__ccov22_end_blk11	; block 11 END_ADDR
  7948  035C  000002C0           	ddw	__ccov21_start_blk10	; block 10 START_ADDR
  7949  0360  000002C1           	ddw	__ccov21_end_blk10	; block 10 END_ADDR
  7950  0364  000002BF           	ddw	__ccov20_start_blk9	; block 9 START_ADDR
  7951  0368  000002C0           	ddw	__ccov20_end_blk9	; block 9 END_ADDR
  7952  036C  000002BE           	ddw	__ccov19_start_blk8	; block 8 START_ADDR
  7953  0370  000002BF           	ddw	__ccov19_end_blk8	; block 8 END_ADDR
  7954  0374  000002BD           	ddw	__ccov18_start_blk7	; block 7 START_ADDR
  7955  0378  000002BE           	ddw	__ccov18_end_blk7	; block 7 END_ADDR
  7956  037C  000002BC           	ddw	__ccov17_start_blk6	; block 6 START_ADDR
  7957  0380  000002BD           	ddw	__ccov17_end_blk6	; block 6 END_ADDR
  7958  0384  000002BB           	ddw	__ccov16_start_blk5	; block 5 START_ADDR
  7959  0388  000002BC           	ddw	__ccov16_end_blk5	; block 5 END_ADDR
  7960  038C  000002BA           	ddw	__ccov15_start_blk4	; block 4 START_ADDR
  7961  0390  000002BB           	ddw	__ccov15_end_blk4	; block 4 END_ADDR
  7962  0394  000002B6           	ddw	__ccov14_start_blk3	; block 3 START_ADDR
  7963  0398  000002BA           	ddw	__ccov14_end_blk3	; block 3 END_ADDR
  7964  039C  000002B5           	ddw	__ccov13_start_blk2	; block 2 START_ADDR
  7965  03A0  000002B6           	ddw	__ccov13_end_blk2	; block 2 END_ADDR
  7966  03A4  000002B2           	ddw	__ccov12_start_blk1	; block 1 START_ADDR
  7967  03A8  000002B5           	ddw	__ccov12_end_blk1	; block 1 END_ADDR
  7968  03AC  000002AD           	ddw	_main	; block 0 START_ADDR
  7969  03B0  000002B2           	ddw	__ccov11_end_blk0	; block 0 END_ADDR
  7970                           
  7971                           ; Function: main, coverage: 92,99,91,90,89,88,87,86,85,84,83,82,81,76,75,74,73,72,71,70,
      +                          69,68,67,66,65,64,63,62,61,60,59,58,57,56,55,54,53,52,51,50,49,48,47,46,45,44,43,42,41,4
      +                          0,39,38,37,36,35,34,33,32,31,30,29,28,27,26,25,24,23,22,21,20,19,18,17,16,15,14,13,12,11
      +                          ,10,9,8,7,6,5,4,3,2,1,0
  7972  03B4  00000000           	ddw	0	; CC_ADDR_SPACE=Data
  7973  03B8  00000071           	ddw	__ccovbit92_8/(0+8)	; CC_ADDR
  7974  03BC  00000001           	ddw	1	; NUM_POINTS
  7975  03C0  00000004           	ddw	__ccovbit92_8& (0+7)	; OFFSET
  7976  03C4  00000000           	ddw	0	; Reserved
  7977  03C8  FFFFFFFF           	ddw	4294967295	; RANGE_SPACE=restricted
  7978  03CC  0000005A           	ddw	90	; NUM_RANGES
  7979  03D0  000003C4           	ddw	__ccov102_start_blk92	; block 92 START_ADDR
  7980  03D4  000003CE           	ddw	__ccov102_end_blk92	; block 92 END_ADDR
  7981  03D8  000003D6           	ddw	__ccov106_start_blk99	; block 99 START_ADDR
  7982  03DC  000003E9           	ddw	__ccov106_end_blk99	; block 99 END_ADDR
  7983  03E0  000003C0           	ddw	__ccov101_start_blk91	; block 91 START_ADDR
  7984  03E4  000003C4           	ddw	__ccov101_end_blk91	; block 91 END_ADDR
  7985  03E8  000003BE           	ddw	__ccov100_start_blk90	; block 90 START_ADDR
  7986  03EC  000003C0           	ddw	__ccov100_end_blk90	; block 90 END_ADDR
  7987  03F0  000003BC           	ddw	__ccov99_start_blk89	; block 89 START_ADDR
  7988  03F4  000003BE           	ddw	__ccov99_end_blk89	; block 89 END_ADDR
  7989  03F8  000003BA           	ddw	__ccov98_start_blk88	; block 88 START_ADDR
  7990  03FC  000003BC           	ddw	__ccov98_end_blk88	; block 88 END_ADDR
  7991  0400  000003B8           	ddw	__ccov97_start_blk87	; block 87 START_ADDR
  7992  0404  000003BA           	ddw	__ccov97_end_blk87	; block 87 END_ADDR
  7993  0408  000003B5           	ddw	__ccov96_start_blk86	; block 86 START_ADDR
  7994  040C  000003B8           	ddw	__ccov96_end_blk86	; block 86 END_ADDR
  7995  0410  000003B2           	ddw	__ccov95_start_blk85	; block 85 START_ADDR
  7996  0414  000003B5           	ddw	__ccov95_end_blk85	; block 85 END_ADDR
  7997  0418  000003B1           	ddw	__ccov94_start_blk84	; block 84 START_ADDR
  7998  041C  000003B2           	ddw	__ccov94_end_blk84	; block 84 END_ADDR
  7999  0420  000003B0           	ddw	__ccov93_start_blk83	; block 83 START_ADDR
  8000  0424  000003B1           	ddw	__ccov93_end_blk83	; block 83 END_ADDR
  8001  0428  000003AC           	ddw	__ccov92_start_blk82	; block 82 START_ADDR
  8002  042C  000003B0           	ddw	__ccov92_end_blk82	; block 82 END_ADDR
  8003  0430  000003A7           	ddw	__ccov91_start_blk81	; block 81 START_ADDR
  8004  0434  000003AC           	ddw	__ccov91_end_blk81	; block 81 END_ADDR
  8005  0438  0000038C           	ddw	__ccov87_start_blk76	; block 76 START_ADDR
  8006  043C  00000399           	ddw	__ccov87_end_blk76	; block 76 END_ADDR
  8007  0440  0000037C           	ddw	__ccov86_start_blk75	; block 75 START_ADDR
  8008  0444  0000038C           	ddw	__ccov86_end_blk75	; block 75 END_ADDR
  8009  0448  00000363           	ddw	__ccov85_start_blk74	; block 74 START_ADDR
  8010  044C  0000037C           	ddw	__ccov85_end_blk74	; block 74 END_ADDR
  8011  0450  0000035B           	ddw	__ccov84_start_blk73	; block 73 START_ADDR
  8012  0454  00000363           	ddw	__ccov84_end_blk73	; block 73 END_ADDR
  8013  0458  0000035A           	ddw	__ccov83_start_blk72	; block 72 START_ADDR
  8014  045C  0000035B           	ddw	__ccov83_end_blk72	; block 72 END_ADDR
  8015  0460  00000355           	ddw	__ccov82_start_blk71	; block 71 START_ADDR
  8016  0464  0000035A           	ddw	__ccov82_end_blk71	; block 71 END_ADDR
  8017  0468  00000354           	ddw	__ccov81_start_blk70	; block 70 START_ADDR
  8018  046C  00000355           	ddw	__ccov81_end_blk70	; block 70 END_ADDR
  8019  0470  00000348           	ddw	__ccov80_start_blk69	; block 69 START_ADDR
  8020  0474  00000354           	ddw	__ccov80_end_blk69	; block 69 END_ADDR
  8021  0478  00000340           	ddw	__ccov79_start_blk68	; block 68 START_ADDR
  8022  047C  00000348           	ddw	__ccov79_end_blk68	; block 68 END_ADDR
  8023  0480  00000338           	ddw	__ccov78_start_blk67	; block 67 START_ADDR
  8024  0484  00000340           	ddw	__ccov78_end_blk67	; block 67 END_ADDR
  8025  0488  0000032E           	ddw	__ccov77_start_blk66	; block 66 START_ADDR
  8026  048C  00000338           	ddw	__ccov77_end_blk66	; block 66 END_ADDR
  8027  0490  0000032B           	ddw	__ccov76_start_blk65	; block 65 START_ADDR
  8028  0494  0000032E           	ddw	__ccov76_end_blk65	; block 65 END_ADDR
  8029  0498  00000328           	ddw	__ccov75_start_blk64	; block 64 START_ADDR
  8030  049C  0000032B           	ddw	__ccov75_end_blk64	; block 64 END_ADDR
  8031  04A0  00000324           	ddw	__ccov74_start_blk63	; block 63 START_ADDR
  8032  04A4  00000328           	ddw	__ccov74_end_blk63	; block 63 END_ADDR
  8033  04A8  00000323           	ddw	__ccov73_start_blk62	; block 62 START_ADDR
  8034  04AC  00000324           	ddw	__ccov73_end_blk62	; block 62 END_ADDR
  8035  04B0  0000031A           	ddw	__ccov72_start_blk61	; block 61 START_ADDR
  8036  04B4  00000323           	ddw	__ccov72_end_blk61	; block 61 END_ADDR
  8037  04B8  00000317           	ddw	__ccov71_start_blk60	; block 60 START_ADDR
  8038  04BC  0000031A           	ddw	__ccov71_end_blk60	; block 60 END_ADDR
  8039  04C0  00000314           	ddw	__ccov70_start_blk59	; block 59 START_ADDR
  8040  04C4  00000317           	ddw	__ccov70_end_blk59	; block 59 END_ADDR
  8041  04C8  00000311           	ddw	__ccov69_start_blk58	; block 58 START_ADDR
  8042  04CC  00000314           	ddw	__ccov69_end_blk58	; block 58 END_ADDR
  8043  04D0  0000030F           	ddw	__ccov68_start_blk57	; block 57 START_ADDR
  8044  04D4  00000311           	ddw	__ccov68_end_blk57	; block 57 END_ADDR
  8045  04D8  0000030E           	ddw	__ccov67_start_blk56	; block 56 START_ADDR
  8046  04DC  0000030F           	ddw	__ccov67_end_blk56	; block 56 END_ADDR
  8047  04E0  0000030B           	ddw	__ccov66_start_blk55	; block 55 START_ADDR
  8048  04E4  0000030E           	ddw	__ccov66_end_blk55	; block 55 END_ADDR
  8049  04E8  0000030A           	ddw	__ccov65_start_blk54	; block 54 START_ADDR
  8050  04EC  0000030B           	ddw	__ccov65_end_blk54	; block 54 END_ADDR
  8051  04F0  00000308           	ddw	__ccov64_start_blk53	; block 53 START_ADDR
  8052  04F4  0000030A           	ddw	__ccov64_end_blk53	; block 53 END_ADDR
  8053  04F8  00000307           	ddw	__ccov63_start_blk52	; block 52 START_ADDR
  8054  04FC  00000308           	ddw	__ccov63_end_blk52	; block 52 END_ADDR
  8055  0500  00000306           	ddw	__ccov62_start_blk51	; block 51 START_ADDR
  8056  0504  00000307           	ddw	__ccov62_end_blk51	; block 51 END_ADDR
  8057  0508  00000304           	ddw	__ccov61_start_blk50	; block 50 START_ADDR
  8058  050C  00000306           	ddw	__ccov61_end_blk50	; block 50 END_ADDR
  8059  0510  00000302           	ddw	__ccov60_start_blk49	; block 49 START_ADDR
  8060  0514  00000304           	ddw	__ccov60_end_blk49	; block 49 END_ADDR
  8061  0518  00000300           	ddw	__ccov59_start_blk48	; block 48 START_ADDR
  8062  051C  00000302           	ddw	__ccov59_end_blk48	; block 48 END_ADDR
  8063  0520  000002F1           	ddw	__ccov58_start_blk47	; block 47 START_ADDR
  8064  0524  00000300           	ddw	__ccov58_end_blk47	; block 47 END_ADDR
  8065  0528  000002F0           	ddw	__ccov57_start_blk46	; block 46 START_ADDR
  8066  052C  000002F1           	ddw	__ccov57_end_blk46	; block 46 END_ADDR
  8067  0530  000002EE           	ddw	__ccov56_start_blk45	; block 45 START_ADDR
  8068  0534  000002F0           	ddw	__ccov56_end_blk45	; block 45 END_ADDR
  8069  0538  000002ED           	ddw	__ccov55_start_blk44	; block 44 START_ADDR
  8070  053C  000002EE           	ddw	__ccov55_end_blk44	; block 44 END_ADDR
  8071  0540  000002EC           	ddw	__ccov54_start_blk43	; block 43 START_ADDR
  8072  0544  000002ED           	ddw	__ccov54_end_blk43	; block 43 END_ADDR
  8073  0548  000002EB           	ddw	__ccov53_start_blk42	; block 42 START_ADDR
  8074  054C  000002EC           	ddw	__ccov53_end_blk42	; block 42 END_ADDR
  8075  0550  000002E9           	ddw	__ccov52_start_blk41	; block 41 START_ADDR
  8076  0554  000002EB           	ddw	__ccov52_end_blk41	; block 41 END_ADDR
  8077  0558  000002E7           	ddw	__ccov51_start_blk40	; block 40 START_ADDR
  8078  055C  000002E9           	ddw	__ccov51_end_blk40	; block 40 END_ADDR
  8079  0560  000002E6           	ddw	__ccov50_start_blk39	; block 39 START_ADDR
  8080  0564  000002E7           	ddw	__ccov50_end_blk39	; block 39 END_ADDR
  8081  0568  000002E5           	ddw	__ccov49_start_blk38	; block 38 START_ADDR
  8082  056C  000002E6           	ddw	__ccov49_end_blk38	; block 38 END_ADDR
  8083  0570  000002E0           	ddw	__ccov48_start_blk37	; block 37 START_ADDR
  8084  0574  000002E5           	ddw	__ccov48_end_blk37	; block 37 END_ADDR
  8085  0578  000002DF           	ddw	__ccov47_start_blk36	; block 36 START_ADDR
  8086  057C  000002E0           	ddw	__ccov47_end_blk36	; block 36 END_ADDR
  8087  0580  000002DE           	ddw	__ccov46_start_blk35	; block 35 START_ADDR
  8088  0584  000002DF           	ddw	__ccov46_end_blk35	; block 35 END_ADDR
  8089  0588  000002DC           	ddw	__ccov45_start_blk34	; block 34 START_ADDR
  8090  058C  000002DE           	ddw	__ccov45_end_blk34	; block 34 END_ADDR
  8091  0590  000002DB           	ddw	__ccov44_start_blk33	; block 33 START_ADDR
  8092  0594  000002DC           	ddw	__ccov44_end_blk33	; block 33 END_ADDR
  8093  0598  000002DA           	ddw	__ccov43_start_blk32	; block 32 START_ADDR
  8094  059C  000002DB           	ddw	__ccov43_end_blk32	; block 32 END_ADDR
  8095  05A0  000002D8           	ddw	__ccov42_start_blk31	; block 31 START_ADDR
  8096  05A4  000002DA           	ddw	__ccov42_end_blk31	; block 31 END_ADDR
  8097  05A8  000002D7           	ddw	__ccov41_start_blk30	; block 30 START_ADDR
  8098  05AC  000002D8           	ddw	__ccov41_end_blk30	; block 30 END_ADDR
  8099  05B0  000002D5           	ddw	__ccov40_start_blk29	; block 29 START_ADDR
  8100  05B4  000002D7           	ddw	__ccov40_end_blk29	; block 29 END_ADDR
  8101  05B8  000002D3           	ddw	__ccov39_start_blk28	; block 28 START_ADDR
  8102  05BC  000002D5           	ddw	__ccov39_end_blk28	; block 28 END_ADDR
  8103  05C0  000002D2           	ddw	__ccov38_start_blk27	; block 27 START_ADDR
  8104  05C4  000002D3           	ddw	__ccov38_end_blk27	; block 27 END_ADDR
  8105  05C8  000002D1           	ddw	__ccov37_start_blk26	; block 26 START_ADDR
  8106  05CC  000002D2           	ddw	__ccov37_end_blk26	; block 26 END_ADDR
  8107  05D0  000002D0           	ddw	__ccov36_start_blk25	; block 25 START_ADDR
  8108  05D4  000002D1           	ddw	__ccov36_end_blk25	; block 25 END_ADDR
  8109  05D8  000002CF           	ddw	__ccov35_start_blk24	; block 24 START_ADDR
  8110  05DC  000002D0           	ddw	__ccov35_end_blk24	; block 24 END_ADDR
  8111  05E0  000002CE           	ddw	__ccov34_start_blk23	; block 23 START_ADDR
  8112  05E4  000002CF           	ddw	__ccov34_end_blk23	; block 23 END_ADDR
  8113  05E8  000002CC           	ddw	__ccov33_start_blk22	; block 22 START_ADDR
  8114  05EC  000002CE           	ddw	__ccov33_end_blk22	; block 22 END_ADDR
  8115  05F0  000002CB           	ddw	__ccov32_start_blk21	; block 21 START_ADDR
  8116  05F4  000002CC           	ddw	__ccov32_end_blk21	; block 21 END_ADDR
  8117  05F8  000002CA           	ddw	__ccov31_start_blk20	; block 20 START_ADDR
  8118  05FC  000002CB           	ddw	__ccov31_end_blk20	; block 20 END_ADDR
  8119  0600  000002C9           	ddw	__ccov30_start_blk19	; block 19 START_ADDR
  8120  0604  000002CA           	ddw	__ccov30_end_blk19	; block 19 END_ADDR
  8121  0608  000002C8           	ddw	__ccov29_start_blk18	; block 18 START_ADDR
  8122  060C  000002C9           	ddw	__ccov29_end_blk18	; block 18 END_ADDR
  8123  0610  000002C7           	ddw	__ccov28_start_blk17	; block 17 START_ADDR
  8124  0614  000002C8           	ddw	__ccov28_end_blk17	; block 17 END_ADDR
  8125  0618  000002C6           	ddw	__ccov27_start_blk16	; block 16 START_ADDR
  8126  061C  000002C7           	ddw	__ccov27_end_blk16	; block 16 END_ADDR
  8127  0620  000002C5           	ddw	__ccov26_start_blk15	; block 15 START_ADDR
  8128  0624  000002C6           	ddw	__ccov26_end_blk15	; block 15 END_ADDR
  8129  0628  000002C4           	ddw	__ccov25_start_blk14	; block 14 START_ADDR
  8130  062C  000002C5           	ddw	__ccov25_end_blk14	; block 14 END_ADDR
  8131  0630  000002C3           	ddw	__ccov24_start_blk13	; block 13 START_ADDR
  8132  0634  000002C4           	ddw	__ccov24_end_blk13	; block 13 END_ADDR
  8133  0638  000002C2           	ddw	__ccov23_start_blk12	; block 12 START_ADDR
  8134  063C  000002C3           	ddw	__ccov23_end_blk12	; block 12 END_ADDR
  8135  0640  000002C1           	ddw	__ccov22_start_blk11	; block 11 START_ADDR
  8136  0644  000002C2           	ddw	__ccov22_end_blk11	; block 11 END_ADDR
  8137  0648  000002C0           	ddw	__ccov21_start_blk10	; block 10 START_ADDR
  8138  064C  000002C1           	ddw	__ccov21_end_blk10	; block 10 END_ADDR
  8139  0650  000002BF           	ddw	__ccov20_start_blk9	; block 9 START_ADDR
  8140  0654  000002C0           	ddw	__ccov20_end_blk9	; block 9 END_ADDR
  8141  0658  000002BE           	ddw	__ccov19_start_blk8	; block 8 START_ADDR
  8142  065C  000002BF           	ddw	__ccov19_end_blk8	; block 8 END_ADDR
  8143  0660  000002BD           	ddw	__ccov18_start_blk7	; block 7 START_ADDR
  8144  0664  000002BE           	ddw	__ccov18_end_blk7	; block 7 END_ADDR
  8145  0668  000002BC           	ddw	__ccov17_start_blk6	; block 6 START_ADDR
  8146  066C  000002BD           	ddw	__ccov17_end_blk6	; block 6 END_ADDR
  8147  0670  000002BB           	ddw	__ccov16_start_blk5	; block 5 START_ADDR
  8148  0674  000002BC           	ddw	__ccov16_end_blk5	; block 5 END_ADDR
  8149  0678  000002BA           	ddw	__ccov15_start_blk4	; block 4 START_ADDR
  8150  067C  000002BB           	ddw	__ccov15_end_blk4	; block 4 END_ADDR
  8151  0680  000002B6           	ddw	__ccov14_start_blk3	; block 3 START_ADDR
  8152  0684  000002BA           	ddw	__ccov14_end_blk3	; block 3 END_ADDR
  8153  0688  000002B5           	ddw	__ccov13_start_blk2	; block 2 START_ADDR
  8154  068C  000002B6           	ddw	__ccov13_end_blk2	; block 2 END_ADDR
  8155  0690  000002B2           	ddw	__ccov12_start_blk1	; block 1 START_ADDR
  8156  0694  000002B5           	ddw	__ccov12_end_blk1	; block 1 END_ADDR
  8157  0698  000002AD           	ddw	_main	; block 0 START_ADDR
  8158  069C  000002B2           	ddw	__ccov11_end_blk0	; block 0 END_ADDR
  8159                           
  8160                           ; Function: main, coverage: 96,95,94,99,91,90,89,88,87,86,85,84,83,82,81,76,75,74,73,72,
      +                          71,70,69,68,67,66,65,64,63,62,61,60,59,58,57,56,55,54,53,52,51,50,49,48,47,46,45,44,43,4
      +                          2,41,40,39,38,37,36,35,34,33,32,31,30,29,28,27,26,25,24,23,22,21,20,19,18,17,16,15,14,13
      +                          ,12,11,10,9,8,7,6,5,4,3,2,1,0
  8161  06A0  00000000           	ddw	0	; CC_ADDR_SPACE=Data
  8162  06A4  00000071           	ddw	__ccovbit96_9/(0+8)	; CC_ADDR
  8163  06A8  00000001           	ddw	1	; NUM_POINTS
  8164  06AC  00000003           	ddw	__ccovbit96_9& (0+7)	; OFFSET
  8165  06B0  00000000           	ddw	0	; Reserved
  8166  06B4  FFFFFFFF           	ddw	4294967295	; RANGE_SPACE=restricted
  8167  06B8  0000005C           	ddw	92	; NUM_RANGES
  8168  06BC  000003D1           	ddw	__ccov105_start_blk96	; block 96 START_ADDR
  8169  06C0  000003D6           	ddw	__ccov105_end_blk96	; block 96 END_ADDR
  8170  06C4  000003CF           	ddw	__ccov104_start_blk95	; block 95 START_ADDR
  8171  06C8  000003D1           	ddw	__ccov104_end_blk95	; block 95 END_ADDR
  8172  06CC  000003CE           	ddw	__ccov103_start_blk94	; block 94 START_ADDR
  8173  06D0  000003CF           	ddw	__ccov103_end_blk94	; block 94 END_ADDR
  8174  06D4  000003D6           	ddw	__ccov106_start_blk99	; block 99 START_ADDR
  8175  06D8  000003E9           	ddw	__ccov106_end_blk99	; block 99 END_ADDR
  8176  06DC  000003C0           	ddw	__ccov101_start_blk91	; block 91 START_ADDR
  8177  06E0  000003C4           	ddw	__ccov101_end_blk91	; block 91 END_ADDR
  8178  06E4  000003BE           	ddw	__ccov100_start_blk90	; block 90 START_ADDR
  8179  06E8  000003C0           	ddw	__ccov100_end_blk90	; block 90 END_ADDR
  8180  06EC  000003BC           	ddw	__ccov99_start_blk89	; block 89 START_ADDR
  8181  06F0  000003BE           	ddw	__ccov99_end_blk89	; block 89 END_ADDR
  8182  06F4  000003BA           	ddw	__ccov98_start_blk88	; block 88 START_ADDR
  8183  06F8  000003BC           	ddw	__ccov98_end_blk88	; block 88 END_ADDR
  8184  06FC  000003B8           	ddw	__ccov97_start_blk87	; block 87 START_ADDR
  8185  0700  000003BA           	ddw	__ccov97_end_blk87	; block 87 END_ADDR
  8186  0704  000003B5           	ddw	__ccov96_start_blk86	; block 86 START_ADDR
  8187  0708  000003B8           	ddw	__ccov96_end_blk86	; block 86 END_ADDR
  8188  070C  000003B2           	ddw	__ccov95_start_blk85	; block 85 START_ADDR
  8189  0710  000003B5           	ddw	__ccov95_end_blk85	; block 85 END_ADDR
  8190  0714  000003B1           	ddw	__ccov94_start_blk84	; block 84 START_ADDR
  8191  0718  000003B2           	ddw	__ccov94_end_blk84	; block 84 END_ADDR
  8192  071C  000003B0           	ddw	__ccov93_start_blk83	; block 83 START_ADDR
  8193  0720  000003B1           	ddw	__ccov93_end_blk83	; block 83 END_ADDR
  8194  0724  000003AC           	ddw	__ccov92_start_blk82	; block 82 START_ADDR
  8195  0728  000003B0           	ddw	__ccov92_end_blk82	; block 82 END_ADDR
  8196  072C  000003A7           	ddw	__ccov91_start_blk81	; block 81 START_ADDR
  8197  0730  000003AC           	ddw	__ccov91_end_blk81	; block 81 END_ADDR
  8198  0734  0000038C           	ddw	__ccov87_start_blk76	; block 76 START_ADDR
  8199  0738  00000399           	ddw	__ccov87_end_blk76	; block 76 END_ADDR
  8200  073C  0000037C           	ddw	__ccov86_start_blk75	; block 75 START_ADDR
  8201  0740  0000038C           	ddw	__ccov86_end_blk75	; block 75 END_ADDR
  8202  0744  00000363           	ddw	__ccov85_start_blk74	; block 74 START_ADDR
  8203  0748  0000037C           	ddw	__ccov85_end_blk74	; block 74 END_ADDR
  8204  074C  0000035B           	ddw	__ccov84_start_blk73	; block 73 START_ADDR
  8205  0750  00000363           	ddw	__ccov84_end_blk73	; block 73 END_ADDR
  8206  0754  0000035A           	ddw	__ccov83_start_blk72	; block 72 START_ADDR
  8207  0758  0000035B           	ddw	__ccov83_end_blk72	; block 72 END_ADDR
  8208  075C  00000355           	ddw	__ccov82_start_blk71	; block 71 START_ADDR
  8209  0760  0000035A           	ddw	__ccov82_end_blk71	; block 71 END_ADDR
  8210  0764  00000354           	ddw	__ccov81_start_blk70	; block 70 START_ADDR
  8211  0768  00000355           	ddw	__ccov81_end_blk70	; block 70 END_ADDR
  8212  076C  00000348           	ddw	__ccov80_start_blk69	; block 69 START_ADDR
  8213  0770  00000354           	ddw	__ccov80_end_blk69	; block 69 END_ADDR
  8214  0774  00000340           	ddw	__ccov79_start_blk68	; block 68 START_ADDR
  8215  0778  00000348           	ddw	__ccov79_end_blk68	; block 68 END_ADDR
  8216  077C  00000338           	ddw	__ccov78_start_blk67	; block 67 START_ADDR
  8217  0780  00000340           	ddw	__ccov78_end_blk67	; block 67 END_ADDR
  8218  0784  0000032E           	ddw	__ccov77_start_blk66	; block 66 START_ADDR
  8219  0788  00000338           	ddw	__ccov77_end_blk66	; block 66 END_ADDR
  8220  078C  0000032B           	ddw	__ccov76_start_blk65	; block 65 START_ADDR
  8221  0790  0000032E           	ddw	__ccov76_end_blk65	; block 65 END_ADDR
  8222  0794  00000328           	ddw	__ccov75_start_blk64	; block 64 START_ADDR
  8223  0798  0000032B           	ddw	__ccov75_end_blk64	; block 64 END_ADDR
  8224  079C  00000324           	ddw	__ccov74_start_blk63	; block 63 START_ADDR
  8225  07A0  00000328           	ddw	__ccov74_end_blk63	; block 63 END_ADDR
  8226  07A4  00000323           	ddw	__ccov73_start_blk62	; block 62 START_ADDR
  8227  07A8  00000324           	ddw	__ccov73_end_blk62	; block 62 END_ADDR
  8228  07AC  0000031A           	ddw	__ccov72_start_blk61	; block 61 START_ADDR
  8229  07B0  00000323           	ddw	__ccov72_end_blk61	; block 61 END_ADDR
  8230  07B4  00000317           	ddw	__ccov71_start_blk60	; block 60 START_ADDR
  8231  07B8  0000031A           	ddw	__ccov71_end_blk60	; block 60 END_ADDR
  8232  07BC  00000314           	ddw	__ccov70_start_blk59	; block 59 START_ADDR
  8233  07C0  00000317           	ddw	__ccov70_end_blk59	; block 59 END_ADDR
  8234  07C4  00000311           	ddw	__ccov69_start_blk58	; block 58 START_ADDR
  8235  07C8  00000314           	ddw	__ccov69_end_blk58	; block 58 END_ADDR
  8236  07CC  0000030F           	ddw	__ccov68_start_blk57	; block 57 START_ADDR
  8237  07D0  00000311           	ddw	__ccov68_end_blk57	; block 57 END_ADDR
  8238  07D4  0000030E           	ddw	__ccov67_start_blk56	; block 56 START_ADDR
  8239  07D8  0000030F           	ddw	__ccov67_end_blk56	; block 56 END_ADDR
  8240  07DC  0000030B           	ddw	__ccov66_start_blk55	; block 55 START_ADDR
  8241  07E0  0000030E           	ddw	__ccov66_end_blk55	; block 55 END_ADDR
  8242  07E4  0000030A           	ddw	__ccov65_start_blk54	; block 54 START_ADDR
  8243  07E8  0000030B           	ddw	__ccov65_end_blk54	; block 54 END_ADDR
  8244  07EC  00000308           	ddw	__ccov64_start_blk53	; block 53 START_ADDR
  8245  07F0  0000030A           	ddw	__ccov64_end_blk53	; block 53 END_ADDR
  8246  07F4  00000307           	ddw	__ccov63_start_blk52	; block 52 START_ADDR
  8247  07F8  00000308           	ddw	__ccov63_end_blk52	; block 52 END_ADDR
  8248  07FC  00000306           	ddw	__ccov62_start_blk51	; block 51 START_ADDR
  8249  0800  00000307           	ddw	__ccov62_end_blk51	; block 51 END_ADDR
  8250  0804  00000304           	ddw	__ccov61_start_blk50	; block 50 START_ADDR
  8251  0808  00000306           	ddw	__ccov61_end_blk50	; block 50 END_ADDR
  8252  080C  00000302           	ddw	__ccov60_start_blk49	; block 49 START_ADDR
  8253  0810  00000304           	ddw	__ccov60_end_blk49	; block 49 END_ADDR
  8254  0814  00000300           	ddw	__ccov59_start_blk48	; block 48 START_ADDR
  8255  0818  00000302           	ddw	__ccov59_end_blk48	; block 48 END_ADDR
  8256  081C  000002F1           	ddw	__ccov58_start_blk47	; block 47 START_ADDR
  8257  0820  00000300           	ddw	__ccov58_end_blk47	; block 47 END_ADDR
  8258  0824  000002F0           	ddw	__ccov57_start_blk46	; block 46 START_ADDR
  8259  0828  000002F1           	ddw	__ccov57_end_blk46	; block 46 END_ADDR
  8260  082C  000002EE           	ddw	__ccov56_start_blk45	; block 45 START_ADDR
  8261  0830  000002F0           	ddw	__ccov56_end_blk45	; block 45 END_ADDR
  8262  0834  000002ED           	ddw	__ccov55_start_blk44	; block 44 START_ADDR
  8263  0838  000002EE           	ddw	__ccov55_end_blk44	; block 44 END_ADDR
  8264  083C  000002EC           	ddw	__ccov54_start_blk43	; block 43 START_ADDR
  8265  0840  000002ED           	ddw	__ccov54_end_blk43	; block 43 END_ADDR
  8266  0844  000002EB           	ddw	__ccov53_start_blk42	; block 42 START_ADDR
  8267  0848  000002EC           	ddw	__ccov53_end_blk42	; block 42 END_ADDR
  8268  084C  000002E9           	ddw	__ccov52_start_blk41	; block 41 START_ADDR
  8269  0850  000002EB           	ddw	__ccov52_end_blk41	; block 41 END_ADDR
  8270  0854  000002E7           	ddw	__ccov51_start_blk40	; block 40 START_ADDR
  8271  0858  000002E9           	ddw	__ccov51_end_blk40	; block 40 END_ADDR
  8272  085C  000002E6           	ddw	__ccov50_start_blk39	; block 39 START_ADDR
  8273  0860  000002E7           	ddw	__ccov50_end_blk39	; block 39 END_ADDR
  8274  0864  000002E5           	ddw	__ccov49_start_blk38	; block 38 START_ADDR
  8275  0868  000002E6           	ddw	__ccov49_end_blk38	; block 38 END_ADDR
  8276  086C  000002E0           	ddw	__ccov48_start_blk37	; block 37 START_ADDR
  8277  0870  000002E5           	ddw	__ccov48_end_blk37	; block 37 END_ADDR
  8278  0874  000002DF           	ddw	__ccov47_start_blk36	; block 36 START_ADDR
  8279  0878  000002E0           	ddw	__ccov47_end_blk36	; block 36 END_ADDR
  8280  087C  000002DE           	ddw	__ccov46_start_blk35	; block 35 START_ADDR
  8281  0880  000002DF           	ddw	__ccov46_end_blk35	; block 35 END_ADDR
  8282  0884  000002DC           	ddw	__ccov45_start_blk34	; block 34 START_ADDR
  8283  0888  000002DE           	ddw	__ccov45_end_blk34	; block 34 END_ADDR
  8284  088C  000002DB           	ddw	__ccov44_start_blk33	; block 33 START_ADDR
  8285  0890  000002DC           	ddw	__ccov44_end_blk33	; block 33 END_ADDR
  8286  0894  000002DA           	ddw	__ccov43_start_blk32	; block 32 START_ADDR
  8287  0898  000002DB           	ddw	__ccov43_end_blk32	; block 32 END_ADDR
  8288  089C  000002D8           	ddw	__ccov42_start_blk31	; block 31 START_ADDR
  8289  08A0  000002DA           	ddw	__ccov42_end_blk31	; block 31 END_ADDR
  8290  08A4  000002D7           	ddw	__ccov41_start_blk30	; block 30 START_ADDR
  8291  08A8  000002D8           	ddw	__ccov41_end_blk30	; block 30 END_ADDR
  8292  08AC  000002D5           	ddw	__ccov40_start_blk29	; block 29 START_ADDR
  8293  08B0  000002D7           	ddw	__ccov40_end_blk29	; block 29 END_ADDR
  8294  08B4  000002D3           	ddw	__ccov39_start_blk28	; block 28 START_ADDR
  8295  08B8  000002D5           	ddw	__ccov39_end_blk28	; block 28 END_ADDR
  8296  08BC  000002D2           	ddw	__ccov38_start_blk27	; block 27 START_ADDR
  8297  08C0  000002D3           	ddw	__ccov38_end_blk27	; block 27 END_ADDR
  8298  08C4  000002D1           	ddw	__ccov37_start_blk26	; block 26 START_ADDR
  8299  08C8  000002D2           	ddw	__ccov37_end_blk26	; block 26 END_ADDR
  8300  08CC  000002D0           	ddw	__ccov36_start_blk25	; block 25 START_ADDR
  8301  08D0  000002D1           	ddw	__ccov36_end_blk25	; block 25 END_ADDR
  8302  08D4  000002CF           	ddw	__ccov35_start_blk24	; block 24 START_ADDR
  8303  08D8  000002D0           	ddw	__ccov35_end_blk24	; block 24 END_ADDR
  8304  08DC  000002CE           	ddw	__ccov34_start_blk23	; block 23 START_ADDR
  8305  08E0  000002CF           	ddw	__ccov34_end_blk23	; block 23 END_ADDR
  8306  08E4  000002CC           	ddw	__ccov33_start_blk22	; block 22 START_ADDR
  8307  08E8  000002CE           	ddw	__ccov33_end_blk22	; block 22 END_ADDR
  8308  08EC  000002CB           	ddw	__ccov32_start_blk21	; block 21 START_ADDR
  8309  08F0  000002CC           	ddw	__ccov32_end_blk21	; block 21 END_ADDR
  8310  08F4  000002CA           	ddw	__ccov31_start_blk20	; block 20 START_ADDR
  8311  08F8  000002CB           	ddw	__ccov31_end_blk20	; block 20 END_ADDR
  8312  08FC  000002C9           	ddw	__ccov30_start_blk19	; block 19 START_ADDR
  8313  0900  000002CA           	ddw	__ccov30_end_blk19	; block 19 END_ADDR
  8314  0904  000002C8           	ddw	__ccov29_start_blk18	; block 18 START_ADDR
  8315  0908  000002C9           	ddw	__ccov29_end_blk18	; block 18 END_ADDR
  8316  090C  000002C7           	ddw	__ccov28_start_blk17	; block 17 START_ADDR
  8317  0910  000002C8           	ddw	__ccov28_end_blk17	; block 17 END_ADDR
  8318  0914  000002C6           	ddw	__ccov27_start_blk16	; block 16 START_ADDR
  8319  0918  000002C7           	ddw	__ccov27_end_blk16	; block 16 END_ADDR
  8320  091C  000002C5           	ddw	__ccov26_start_blk15	; block 15 START_ADDR
  8321  0920  000002C6           	ddw	__ccov26_end_blk15	; block 15 END_ADDR
  8322  0924  000002C4           	ddw	__ccov25_start_blk14	; block 14 START_ADDR
  8323  0928  000002C5           	ddw	__ccov25_end_blk14	; block 14 END_ADDR
  8324  092C  000002C3           	ddw	__ccov24_start_blk13	; block 13 START_ADDR
  8325  0930  000002C4           	ddw	__ccov24_end_blk13	; block 13 END_ADDR
  8326  0934  000002C2           	ddw	__ccov23_start_blk12	; block 12 START_ADDR
  8327  0938  000002C3           	ddw	__ccov23_end_blk12	; block 12 END_ADDR
  8328  093C  000002C1           	ddw	__ccov22_start_blk11	; block 11 START_ADDR
  8329  0940  000002C2           	ddw	__ccov22_end_blk11	; block 11 END_ADDR
  8330  0944  000002C0           	ddw	__ccov21_start_blk10	; block 10 START_ADDR
  8331  0948  000002C1           	ddw	__ccov21_end_blk10	; block 10 END_ADDR
  8332  094C  000002BF           	ddw	__ccov20_start_blk9	; block 9 START_ADDR
  8333  0950  000002C0           	ddw	__ccov20_end_blk9	; block 9 END_ADDR
  8334  0954  000002BE           	ddw	__ccov19_start_blk8	; block 8 START_ADDR
  8335  0958  000002BF           	ddw	__ccov19_end_blk8	; block 8 END_ADDR
  8336  095C  000002BD           	ddw	__ccov18_start_blk7	; block 7 START_ADDR
  8337  0960  000002BE           	ddw	__ccov18_end_blk7	; block 7 END_ADDR
  8338  0964  000002BC           	ddw	__ccov17_start_blk6	; block 6 START_ADDR
  8339  0968  000002BD           	ddw	__ccov17_end_blk6	; block 6 END_ADDR
  8340  096C  000002BB           	ddw	__ccov16_start_blk5	; block 5 START_ADDR
  8341  0970  000002BC           	ddw	__ccov16_end_blk5	; block 5 END_ADDR
  8342  0974  000002BA           	ddw	__ccov15_start_blk4	; block 4 START_ADDR
  8343  0978  000002BB           	ddw	__ccov15_end_blk4	; block 4 END_ADDR
  8344  097C  000002B6           	ddw	__ccov14_start_blk3	; block 3 START_ADDR
  8345  0980  000002BA           	ddw	__ccov14_end_blk3	; block 3 END_ADDR
  8346  0984  000002B5           	ddw	__ccov13_start_blk2	; block 2 START_ADDR
  8347  0988  000002B6           	ddw	__ccov13_end_blk2	; block 2 END_ADDR
  8348  098C  000002B2           	ddw	__ccov12_start_blk1	; block 1 START_ADDR
  8349  0990  000002B5           	ddw	__ccov12_end_blk1	; block 1 END_ADDR
  8350  0994  000002AD           	ddw	_main	; block 0 START_ADDR
  8351  0998  000002B2           	ddw	__ccov11_end_blk0	; block 0 END_ADDR
  8352                           
  8353                           ; Function: main, coverage: 102,101,99,91,90,89,88,87,86,85,84,83,82,81,76,75,74,73,72,7
      +                          1,70,69,68,67,66,65,64,63,62,61,60,59,58,57,56,55,54,53,52,51,50,49,48,47,46,45,44,43,42
      +                          ,41,40,39,38,37,36,35,34,33,32,31,30,29,28,27,26,25,24,23,22,21,20,19,18,17,16,15,14,13,
      +                          12,11,10,9,8,7,6,5,4,3,2,1,0
  8354  099C  00000000           	ddw	0	; CC_ADDR_SPACE=Data
  8355  09A0  00000071           	ddw	__ccovbit102_10/(0+8)	; CC_ADDR
  8356  09A4  00000001           	ddw	1	; NUM_POINTS
  8357  09A8  00000002           	ddw	__ccovbit102_10& (0+7)	; OFFSET
  8358  09AC  00000000           	ddw	0	; Reserved
  8359  09B0  FFFFFFFF           	ddw	4294967295	; RANGE_SPACE=restricted
  8360  09B4  0000005B           	ddw	91	; NUM_RANGES
  8361  09B8  000003ED           	ddw	__ccov108_start_blk102	; block 102 START_ADDR
  8362  09BC  000003F2           	ddw	__ccov108_end_blk102	; block 102 END_ADDR
  8363  09C0  000003E9           	ddw	__ccov107_start_blk101	; block 101 START_ADDR
  8364  09C4  000003ED           	ddw	__ccov107_end_blk101	; block 101 END_ADDR
  8365  09C8  000003D6           	ddw	__ccov106_start_blk99	; block 99 START_ADDR
  8366  09CC  000003E9           	ddw	__ccov106_end_blk99	; block 99 END_ADDR
  8367  09D0  000003C0           	ddw	__ccov101_start_blk91	; block 91 START_ADDR
  8368  09D4  000003C4           	ddw	__ccov101_end_blk91	; block 91 END_ADDR
  8369  09D8  000003BE           	ddw	__ccov100_start_blk90	; block 90 START_ADDR
  8370  09DC  000003C0           	ddw	__ccov100_end_blk90	; block 90 END_ADDR
  8371  09E0  000003BC           	ddw	__ccov99_start_blk89	; block 89 START_ADDR
  8372  09E4  000003BE           	ddw	__ccov99_end_blk89	; block 89 END_ADDR
  8373  09E8  000003BA           	ddw	__ccov98_start_blk88	; block 88 START_ADDR
  8374  09EC  000003BC           	ddw	__ccov98_end_blk88	; block 88 END_ADDR
  8375  09F0  000003B8           	ddw	__ccov97_start_blk87	; block 87 START_ADDR
  8376  09F4  000003BA           	ddw	__ccov97_end_blk87	; block 87 END_ADDR
  8377  09F8  000003B5           	ddw	__ccov96_start_blk86	; block 86 START_ADDR
  8378  09FC  000003B8           	ddw	__ccov96_end_blk86	; block 86 END_ADDR
  8379  0A00  000003B2           	ddw	__ccov95_start_blk85	; block 85 START_ADDR
  8380  0A04  000003B5           	ddw	__ccov95_end_blk85	; block 85 END_ADDR
  8381  0A08  000003B1           	ddw	__ccov94_start_blk84	; block 84 START_ADDR
  8382  0A0C  000003B2           	ddw	__ccov94_end_blk84	; block 84 END_ADDR
  8383  0A10  000003B0           	ddw	__ccov93_start_blk83	; block 83 START_ADDR
  8384  0A14  000003B1           	ddw	__ccov93_end_blk83	; block 83 END_ADDR
  8385  0A18  000003AC           	ddw	__ccov92_start_blk82	; block 82 START_ADDR
  8386  0A1C  000003B0           	ddw	__ccov92_end_blk82	; block 82 END_ADDR
  8387  0A20  000003A7           	ddw	__ccov91_start_blk81	; block 81 START_ADDR
  8388  0A24  000003AC           	ddw	__ccov91_end_blk81	; block 81 END_ADDR
  8389  0A28  0000038C           	ddw	__ccov87_start_blk76	; block 76 START_ADDR
  8390  0A2C  00000399           	ddw	__ccov87_end_blk76	; block 76 END_ADDR
  8391  0A30  0000037C           	ddw	__ccov86_start_blk75	; block 75 START_ADDR
  8392  0A34  0000038C           	ddw	__ccov86_end_blk75	; block 75 END_ADDR
  8393  0A38  00000363           	ddw	__ccov85_start_blk74	; block 74 START_ADDR
  8394  0A3C  0000037C           	ddw	__ccov85_end_blk74	; block 74 END_ADDR
  8395  0A40  0000035B           	ddw	__ccov84_start_blk73	; block 73 START_ADDR
  8396  0A44  00000363           	ddw	__ccov84_end_blk73	; block 73 END_ADDR
  8397  0A48  0000035A           	ddw	__ccov83_start_blk72	; block 72 START_ADDR
  8398  0A4C  0000035B           	ddw	__ccov83_end_blk72	; block 72 END_ADDR
  8399  0A50  00000355           	ddw	__ccov82_start_blk71	; block 71 START_ADDR
  8400  0A54  0000035A           	ddw	__ccov82_end_blk71	; block 71 END_ADDR
  8401  0A58  00000354           	ddw	__ccov81_start_blk70	; block 70 START_ADDR
  8402  0A5C  00000355           	ddw	__ccov81_end_blk70	; block 70 END_ADDR
  8403  0A60  00000348           	ddw	__ccov80_start_blk69	; block 69 START_ADDR
  8404  0A64  00000354           	ddw	__ccov80_end_blk69	; block 69 END_ADDR
  8405  0A68  00000340           	ddw	__ccov79_start_blk68	; block 68 START_ADDR
  8406  0A6C  00000348           	ddw	__ccov79_end_blk68	; block 68 END_ADDR
  8407  0A70  00000338           	ddw	__ccov78_start_blk67	; block 67 START_ADDR
  8408  0A74  00000340           	ddw	__ccov78_end_blk67	; block 67 END_ADDR
  8409  0A78  0000032E           	ddw	__ccov77_start_blk66	; block 66 START_ADDR
  8410  0A7C  00000338           	ddw	__ccov77_end_blk66	; block 66 END_ADDR
  8411  0A80  0000032B           	ddw	__ccov76_start_blk65	; block 65 START_ADDR
  8412  0A84  0000032E           	ddw	__ccov76_end_blk65	; block 65 END_ADDR
  8413  0A88  00000328           	ddw	__ccov75_start_blk64	; block 64 START_ADDR
  8414  0A8C  0000032B           	ddw	__ccov75_end_blk64	; block 64 END_ADDR
  8415  0A90  00000324           	ddw	__ccov74_start_blk63	; block 63 START_ADDR
  8416  0A94  00000328           	ddw	__ccov74_end_blk63	; block 63 END_ADDR
  8417  0A98  00000323           	ddw	__ccov73_start_blk62	; block 62 START_ADDR
  8418  0A9C  00000324           	ddw	__ccov73_end_blk62	; block 62 END_ADDR
  8419  0AA0  0000031A           	ddw	__ccov72_start_blk61	; block 61 START_ADDR
  8420  0AA4  00000323           	ddw	__ccov72_end_blk61	; block 61 END_ADDR
  8421  0AA8  00000317           	ddw	__ccov71_start_blk60	; block 60 START_ADDR
  8422  0AAC  0000031A           	ddw	__ccov71_end_blk60	; block 60 END_ADDR
  8423  0AB0  00000314           	ddw	__ccov70_start_blk59	; block 59 START_ADDR
  8424  0AB4  00000317           	ddw	__ccov70_end_blk59	; block 59 END_ADDR
  8425  0AB8  00000311           	ddw	__ccov69_start_blk58	; block 58 START_ADDR
  8426  0ABC  00000314           	ddw	__ccov69_end_blk58	; block 58 END_ADDR
  8427  0AC0  0000030F           	ddw	__ccov68_start_blk57	; block 57 START_ADDR
  8428  0AC4  00000311           	ddw	__ccov68_end_blk57	; block 57 END_ADDR
  8429  0AC8  0000030E           	ddw	__ccov67_start_blk56	; block 56 START_ADDR
  8430  0ACC  0000030F           	ddw	__ccov67_end_blk56	; block 56 END_ADDR
  8431  0AD0  0000030B           	ddw	__ccov66_start_blk55	; block 55 START_ADDR
  8432  0AD4  0000030E           	ddw	__ccov66_end_blk55	; block 55 END_ADDR
  8433  0AD8  0000030A           	ddw	__ccov65_start_blk54	; block 54 START_ADDR
  8434  0ADC  0000030B           	ddw	__ccov65_end_blk54	; block 54 END_ADDR
  8435  0AE0  00000308           	ddw	__ccov64_start_blk53	; block 53 START_ADDR
  8436  0AE4  0000030A           	ddw	__ccov64_end_blk53	; block 53 END_ADDR
  8437  0AE8  00000307           	ddw	__ccov63_start_blk52	; block 52 START_ADDR
  8438  0AEC  00000308           	ddw	__ccov63_end_blk52	; block 52 END_ADDR
  8439  0AF0  00000306           	ddw	__ccov62_start_blk51	; block 51 START_ADDR
  8440  0AF4  00000307           	ddw	__ccov62_end_blk51	; block 51 END_ADDR
  8441  0AF8  00000304           	ddw	__ccov61_start_blk50	; block 50 START_ADDR
  8442  0AFC  00000306           	ddw	__ccov61_end_blk50	; block 50 END_ADDR
  8443  0B00  00000302           	ddw	__ccov60_start_blk49	; block 49 START_ADDR
  8444  0B04  00000304           	ddw	__ccov60_end_blk49	; block 49 END_ADDR
  8445  0B08  00000300           	ddw	__ccov59_start_blk48	; block 48 START_ADDR
  8446  0B0C  00000302           	ddw	__ccov59_end_blk48	; block 48 END_ADDR
  8447  0B10  000002F1           	ddw	__ccov58_start_blk47	; block 47 START_ADDR
  8448  0B14  00000300           	ddw	__ccov58_end_blk47	; block 47 END_ADDR
  8449  0B18  000002F0           	ddw	__ccov57_start_blk46	; block 46 START_ADDR
  8450  0B1C  000002F1           	ddw	__ccov57_end_blk46	; block 46 END_ADDR
  8451  0B20  000002EE           	ddw	__ccov56_start_blk45	; block 45 START_ADDR
  8452  0B24  000002F0           	ddw	__ccov56_end_blk45	; block 45 END_ADDR
  8453  0B28  000002ED           	ddw	__ccov55_start_blk44	; block 44 START_ADDR
  8454  0B2C  000002EE           	ddw	__ccov55_end_blk44	; block 44 END_ADDR
  8455  0B30  000002EC           	ddw	__ccov54_start_blk43	; block 43 START_ADDR
  8456  0B34  000002ED           	ddw	__ccov54_end_blk43	; block 43 END_ADDR
  8457  0B38  000002EB           	ddw	__ccov53_start_blk42	; block 42 START_ADDR
  8458  0B3C  000002EC           	ddw	__ccov53_end_blk42	; block 42 END_ADDR
  8459  0B40  000002E9           	ddw	__ccov52_start_blk41	; block 41 START_ADDR
  8460  0B44  000002EB           	ddw	__ccov52_end_blk41	; block 41 END_ADDR
  8461  0B48  000002E7           	ddw	__ccov51_start_blk40	; block 40 START_ADDR
  8462  0B4C  000002E9           	ddw	__ccov51_end_blk40	; block 40 END_ADDR
  8463  0B50  000002E6           	ddw	__ccov50_start_blk39	; block 39 START_ADDR
  8464  0B54  000002E7           	ddw	__ccov50_end_blk39	; block 39 END_ADDR
  8465  0B58  000002E5           	ddw	__ccov49_start_blk38	; block 38 START_ADDR
  8466  0B5C  000002E6           	ddw	__ccov49_end_blk38	; block 38 END_ADDR
  8467  0B60  000002E0           	ddw	__ccov48_start_blk37	; block 37 START_ADDR
  8468  0B64  000002E5           	ddw	__ccov48_end_blk37	; block 37 END_ADDR
  8469  0B68  000002DF           	ddw	__ccov47_start_blk36	; block 36 START_ADDR
  8470  0B6C  000002E0           	ddw	__ccov47_end_blk36	; block 36 END_ADDR
  8471  0B70  000002DE           	ddw	__ccov46_start_blk35	; block 35 START_ADDR
  8472  0B74  000002DF           	ddw	__ccov46_end_blk35	; block 35 END_ADDR
  8473  0B78  000002DC           	ddw	__ccov45_start_blk34	; block 34 START_ADDR
  8474  0B7C  000002DE           	ddw	__ccov45_end_blk34	; block 34 END_ADDR
  8475  0B80  000002DB           	ddw	__ccov44_start_blk33	; block 33 START_ADDR
  8476  0B84  000002DC           	ddw	__ccov44_end_blk33	; block 33 END_ADDR
  8477  0B88  000002DA           	ddw	__ccov43_start_blk32	; block 32 START_ADDR
  8478  0B8C  000002DB           	ddw	__ccov43_end_blk32	; block 32 END_ADDR
  8479  0B90  000002D8           	ddw	__ccov42_start_blk31	; block 31 START_ADDR
  8480  0B94  000002DA           	ddw	__ccov42_end_blk31	; block 31 END_ADDR
  8481  0B98  000002D7           	ddw	__ccov41_start_blk30	; block 30 START_ADDR
  8482  0B9C  000002D8           	ddw	__ccov41_end_blk30	; block 30 END_ADDR
  8483  0BA0  000002D5           	ddw	__ccov40_start_blk29	; block 29 START_ADDR
  8484  0BA4  000002D7           	ddw	__ccov40_end_blk29	; block 29 END_ADDR
  8485  0BA8  000002D3           	ddw	__ccov39_start_blk28	; block 28 START_ADDR
  8486  0BAC  000002D5           	ddw	__ccov39_end_blk28	; block 28 END_ADDR
  8487  0BB0  000002D2           	ddw	__ccov38_start_blk27	; block 27 START_ADDR
  8488  0BB4  000002D3           	ddw	__ccov38_end_blk27	; block 27 END_ADDR
  8489  0BB8  000002D1           	ddw	__ccov37_start_blk26	; block 26 START_ADDR
  8490  0BBC  000002D2           	ddw	__ccov37_end_blk26	; block 26 END_ADDR
  8491  0BC0  000002D0           	ddw	__ccov36_start_blk25	; block 25 START_ADDR
  8492  0BC4  000002D1           	ddw	__ccov36_end_blk25	; block 25 END_ADDR
  8493  0BC8  000002CF           	ddw	__ccov35_start_blk24	; block 24 START_ADDR
  8494  0BCC  000002D0           	ddw	__ccov35_end_blk24	; block 24 END_ADDR
  8495  0BD0  000002CE           	ddw	__ccov34_start_blk23	; block 23 START_ADDR
  8496  0BD4  000002CF           	ddw	__ccov34_end_blk23	; block 23 END_ADDR
  8497  0BD8  000002CC           	ddw	__ccov33_start_blk22	; block 22 START_ADDR
  8498  0BDC  000002CE           	ddw	__ccov33_end_blk22	; block 22 END_ADDR
  8499  0BE0  000002CB           	ddw	__ccov32_start_blk21	; block 21 START_ADDR
  8500  0BE4  000002CC           	ddw	__ccov32_end_blk21	; block 21 END_ADDR
  8501  0BE8  000002CA           	ddw	__ccov31_start_blk20	; block 20 START_ADDR
  8502  0BEC  000002CB           	ddw	__ccov31_end_blk20	; block 20 END_ADDR
  8503  0BF0  000002C9           	ddw	__ccov30_start_blk19	; block 19 START_ADDR
  8504  0BF4  000002CA           	ddw	__ccov30_end_blk19	; block 19 END_ADDR
  8505  0BF8  000002C8           	ddw	__ccov29_start_blk18	; block 18 START_ADDR
  8506  0BFC  000002C9           	ddw	__ccov29_end_blk18	; block 18 END_ADDR
  8507  0C00  000002C7           	ddw	__ccov28_start_blk17	; block 17 START_ADDR
  8508  0C04  000002C8           	ddw	__ccov28_end_blk17	; block 17 END_ADDR
  8509  0C08  000002C6           	ddw	__ccov27_start_blk16	; block 16 START_ADDR
  8510  0C0C  000002C7           	ddw	__ccov27_end_blk16	; block 16 END_ADDR
  8511  0C10  000002C5           	ddw	__ccov26_start_blk15	; block 15 START_ADDR
  8512  0C14  000002C6           	ddw	__ccov26_end_blk15	; block 15 END_ADDR
  8513  0C18  000002C4           	ddw	__ccov25_start_blk14	; block 14 START_ADDR
  8514  0C1C  000002C5           	ddw	__ccov25_end_blk14	; block 14 END_ADDR
  8515  0C20  000002C3           	ddw	__ccov24_start_blk13	; block 13 START_ADDR
  8516  0C24  000002C4           	ddw	__ccov24_end_blk13	; block 13 END_ADDR
  8517  0C28  000002C2           	ddw	__ccov23_start_blk12	; block 12 START_ADDR
  8518  0C2C  000002C3           	ddw	__ccov23_end_blk12	; block 12 END_ADDR
  8519  0C30  000002C1           	ddw	__ccov22_start_blk11	; block 11 START_ADDR
  8520  0C34  000002C2           	ddw	__ccov22_end_blk11	; block 11 END_ADDR
  8521  0C38  000002C0           	ddw	__ccov21_start_blk10	; block 10 START_ADDR
  8522  0C3C  000002C1           	ddw	__ccov21_end_blk10	; block 10 END_ADDR
  8523  0C40  000002BF           	ddw	__ccov20_start_blk9	; block 9 START_ADDR
  8524  0C44  000002C0           	ddw	__ccov20_end_blk9	; block 9 END_ADDR
  8525  0C48  000002BE           	ddw	__ccov19_start_blk8	; block 8 START_ADDR
  8526  0C4C  000002BF           	ddw	__ccov19_end_blk8	; block 8 END_ADDR
  8527  0C50  000002BD           	ddw	__ccov18_start_blk7	; block 7 START_ADDR
  8528  0C54  000002BE           	ddw	__ccov18_end_blk7	; block 7 END_ADDR
  8529  0C58  000002BC           	ddw	__ccov17_start_blk6	; block 6 START_ADDR
  8530  0C5C  000002BD           	ddw	__ccov17_end_blk6	; block 6 END_ADDR
  8531  0C60  000002BB           	ddw	__ccov16_start_blk5	; block 5 START_ADDR
  8532  0C64  000002BC           	ddw	__ccov16_end_blk5	; block 5 END_ADDR
  8533  0C68  000002BA           	ddw	__ccov15_start_blk4	; block 4 START_ADDR
  8534  0C6C  000002BB           	ddw	__ccov15_end_blk4	; block 4 END_ADDR
  8535  0C70  000002B6           	ddw	__ccov14_start_blk3	; block 3 START_ADDR
  8536  0C74  000002BA           	ddw	__ccov14_end_blk3	; block 3 END_ADDR
  8537  0C78  000002B5           	ddw	__ccov13_start_blk2	; block 2 START_ADDR
  8538  0C7C  000002B6           	ddw	__ccov13_end_blk2	; block 2 END_ADDR
  8539  0C80  000002B2           	ddw	__ccov12_start_blk1	; block 1 START_ADDR
  8540  0C84  000002B5           	ddw	__ccov12_end_blk1	; block 1 END_ADDR
  8541  0C88  000002AD           	ddw	_main	; block 0 START_ADDR
  8542  0C8C  000002B2           	ddw	__ccov11_end_blk0	; block 0 END_ADDR
  8543                           
  8544                           ; Function: main, coverage: 105,104,101,99,91,90,89,88,87,86,85,84,83,82,81,76,75,74,73,
      +                          72,71,70,69,68,67,66,65,64,63,62,61,60,59,58,57,56,55,54,53,52,51,50,49,48,47,46,45,44,4
      +                          3,42,41,40,39,38,37,36,35,34,33,32,31,30,29,28,27,26,25,24,23,22,21,20,19,18,17,16,15,14
      +                          ,13,12,11,10,9,8,7,6,5,4,3,2,1,0
  8545  0C90  00000000           	ddw	0	; CC_ADDR_SPACE=Data
  8546  0C94  00000071           	ddw	__ccovbit105_11/(0+8)	; CC_ADDR
  8547  0C98  00000001           	ddw	1	; NUM_POINTS
  8548  0C9C  00000001           	ddw	__ccovbit105_11& (0+7)	; OFFSET
  8549  0CA0  00000000           	ddw	0	; Reserved
  8550  0CA4  FFFFFFFF           	ddw	4294967295	; RANGE_SPACE=restricted
  8551  0CA8  0000005C           	ddw	92	; NUM_RANGES
  8552  0CAC  000003F9           	ddw	__ccov110_start_blk105	; block 105 START_ADDR
  8553  0CB0  00000400           	ddw	__ccov110_end_blk105	; block 105 END_ADDR
  8554  0CB4  000003F2           	ddw	__ccov109_start_blk104	; block 104 START_ADDR
  8555  0CB8  000003F9           	ddw	__ccov109_end_blk104	; block 104 END_ADDR
  8556  0CBC  000003E9           	ddw	__ccov107_start_blk101	; block 101 START_ADDR
  8557  0CC0  000003ED           	ddw	__ccov107_end_blk101	; block 101 END_ADDR
  8558  0CC4  000003D6           	ddw	__ccov106_start_blk99	; block 99 START_ADDR
  8559  0CC8  000003E9           	ddw	__ccov106_end_blk99	; block 99 END_ADDR
  8560  0CCC  000003C0           	ddw	__ccov101_start_blk91	; block 91 START_ADDR
  8561  0CD0  000003C4           	ddw	__ccov101_end_blk91	; block 91 END_ADDR
  8562  0CD4  000003BE           	ddw	__ccov100_start_blk90	; block 90 START_ADDR
  8563  0CD8  000003C0           	ddw	__ccov100_end_blk90	; block 90 END_ADDR
  8564  0CDC  000003BC           	ddw	__ccov99_start_blk89	; block 89 START_ADDR
  8565  0CE0  000003BE           	ddw	__ccov99_end_blk89	; block 89 END_ADDR
  8566  0CE4  000003BA           	ddw	__ccov98_start_blk88	; block 88 START_ADDR
  8567  0CE8  000003BC           	ddw	__ccov98_end_blk88	; block 88 END_ADDR
  8568  0CEC  000003B8           	ddw	__ccov97_start_blk87	; block 87 START_ADDR
  8569  0CF0  000003BA           	ddw	__ccov97_end_blk87	; block 87 END_ADDR
  8570  0CF4  000003B5           	ddw	__ccov96_start_blk86	; block 86 START_ADDR
  8571  0CF8  000003B8           	ddw	__ccov96_end_blk86	; block 86 END_ADDR
  8572  0CFC  000003B2           	ddw	__ccov95_start_blk85	; block 85 START_ADDR
  8573  0D00  000003B5           	ddw	__ccov95_end_blk85	; block 85 END_ADDR
  8574  0D04  000003B1           	ddw	__ccov94_start_blk84	; block 84 START_ADDR
  8575  0D08  000003B2           	ddw	__ccov94_end_blk84	; block 84 END_ADDR
  8576  0D0C  000003B0           	ddw	__ccov93_start_blk83	; block 83 START_ADDR
  8577  0D10  000003B1           	ddw	__ccov93_end_blk83	; block 83 END_ADDR
  8578  0D14  000003AC           	ddw	__ccov92_start_blk82	; block 82 START_ADDR
  8579  0D18  000003B0           	ddw	__ccov92_end_blk82	; block 82 END_ADDR
  8580  0D1C  000003A7           	ddw	__ccov91_start_blk81	; block 81 START_ADDR
  8581  0D20  000003AC           	ddw	__ccov91_end_blk81	; block 81 END_ADDR
  8582  0D24  0000038C           	ddw	__ccov87_start_blk76	; block 76 START_ADDR
  8583  0D28  00000399           	ddw	__ccov87_end_blk76	; block 76 END_ADDR
  8584  0D2C  0000037C           	ddw	__ccov86_start_blk75	; block 75 START_ADDR
  8585  0D30  0000038C           	ddw	__ccov86_end_blk75	; block 75 END_ADDR
  8586  0D34  00000363           	ddw	__ccov85_start_blk74	; block 74 START_ADDR
  8587  0D38  0000037C           	ddw	__ccov85_end_blk74	; block 74 END_ADDR
  8588  0D3C  0000035B           	ddw	__ccov84_start_blk73	; block 73 START_ADDR
  8589  0D40  00000363           	ddw	__ccov84_end_blk73	; block 73 END_ADDR
  8590  0D44  0000035A           	ddw	__ccov83_start_blk72	; block 72 START_ADDR
  8591  0D48  0000035B           	ddw	__ccov83_end_blk72	; block 72 END_ADDR
  8592  0D4C  00000355           	ddw	__ccov82_start_blk71	; block 71 START_ADDR
  8593  0D50  0000035A           	ddw	__ccov82_end_blk71	; block 71 END_ADDR
  8594  0D54  00000354           	ddw	__ccov81_start_blk70	; block 70 START_ADDR
  8595  0D58  00000355           	ddw	__ccov81_end_blk70	; block 70 END_ADDR
  8596  0D5C  00000348           	ddw	__ccov80_start_blk69	; block 69 START_ADDR
  8597  0D60  00000354           	ddw	__ccov80_end_blk69	; block 69 END_ADDR
  8598  0D64  00000340           	ddw	__ccov79_start_blk68	; block 68 START_ADDR
  8599  0D68  00000348           	ddw	__ccov79_end_blk68	; block 68 END_ADDR
  8600  0D6C  00000338           	ddw	__ccov78_start_blk67	; block 67 START_ADDR
  8601  0D70  00000340           	ddw	__ccov78_end_blk67	; block 67 END_ADDR
  8602  0D74  0000032E           	ddw	__ccov77_start_blk66	; block 66 START_ADDR
  8603  0D78  00000338           	ddw	__ccov77_end_blk66	; block 66 END_ADDR
  8604  0D7C  0000032B           	ddw	__ccov76_start_blk65	; block 65 START_ADDR
  8605  0D80  0000032E           	ddw	__ccov76_end_blk65	; block 65 END_ADDR
  8606  0D84  00000328           	ddw	__ccov75_start_blk64	; block 64 START_ADDR
  8607  0D88  0000032B           	ddw	__ccov75_end_blk64	; block 64 END_ADDR
  8608  0D8C  00000324           	ddw	__ccov74_start_blk63	; block 63 START_ADDR
  8609  0D90  00000328           	ddw	__ccov74_end_blk63	; block 63 END_ADDR
  8610  0D94  00000323           	ddw	__ccov73_start_blk62	; block 62 START_ADDR
  8611  0D98  00000324           	ddw	__ccov73_end_blk62	; block 62 END_ADDR
  8612  0D9C  0000031A           	ddw	__ccov72_start_blk61	; block 61 START_ADDR
  8613  0DA0  00000323           	ddw	__ccov72_end_blk61	; block 61 END_ADDR
  8614  0DA4  00000317           	ddw	__ccov71_start_blk60	; block 60 START_ADDR
  8615  0DA8  0000031A           	ddw	__ccov71_end_blk60	; block 60 END_ADDR
  8616  0DAC  00000314           	ddw	__ccov70_start_blk59	; block 59 START_ADDR
  8617  0DB0  00000317           	ddw	__ccov70_end_blk59	; block 59 END_ADDR
  8618  0DB4  00000311           	ddw	__ccov69_start_blk58	; block 58 START_ADDR
  8619  0DB8  00000314           	ddw	__ccov69_end_blk58	; block 58 END_ADDR
  8620  0DBC  0000030F           	ddw	__ccov68_start_blk57	; block 57 START_ADDR
  8621  0DC0  00000311           	ddw	__ccov68_end_blk57	; block 57 END_ADDR
  8622  0DC4  0000030E           	ddw	__ccov67_start_blk56	; block 56 START_ADDR
  8623  0DC8  0000030F           	ddw	__ccov67_end_blk56	; block 56 END_ADDR
  8624  0DCC  0000030B           	ddw	__ccov66_start_blk55	; block 55 START_ADDR
  8625  0DD0  0000030E           	ddw	__ccov66_end_blk55	; block 55 END_ADDR
  8626  0DD4  0000030A           	ddw	__ccov65_start_blk54	; block 54 START_ADDR
  8627  0DD8  0000030B           	ddw	__ccov65_end_blk54	; block 54 END_ADDR
  8628  0DDC  00000308           	ddw	__ccov64_start_blk53	; block 53 START_ADDR
  8629  0DE0  0000030A           	ddw	__ccov64_end_blk53	; block 53 END_ADDR
  8630  0DE4  00000307           	ddw	__ccov63_start_blk52	; block 52 START_ADDR
  8631  0DE8  00000308           	ddw	__ccov63_end_blk52	; block 52 END_ADDR
  8632  0DEC  00000306           	ddw	__ccov62_start_blk51	; block 51 START_ADDR
  8633  0DF0  00000307           	ddw	__ccov62_end_blk51	; block 51 END_ADDR
  8634  0DF4  00000304           	ddw	__ccov61_start_blk50	; block 50 START_ADDR
  8635  0DF8  00000306           	ddw	__ccov61_end_blk50	; block 50 END_ADDR
  8636  0DFC  00000302           	ddw	__ccov60_start_blk49	; block 49 START_ADDR
  8637  0E00  00000304           	ddw	__ccov60_end_blk49	; block 49 END_ADDR
  8638  0E04  00000300           	ddw	__ccov59_start_blk48	; block 48 START_ADDR
  8639  0E08  00000302           	ddw	__ccov59_end_blk48	; block 48 END_ADDR
  8640  0E0C  000002F1           	ddw	__ccov58_start_blk47	; block 47 START_ADDR
  8641  0E10  00000300           	ddw	__ccov58_end_blk47	; block 47 END_ADDR
  8642  0E14  000002F0           	ddw	__ccov57_start_blk46	; block 46 START_ADDR
  8643  0E18  000002F1           	ddw	__ccov57_end_blk46	; block 46 END_ADDR
  8644  0E1C  000002EE           	ddw	__ccov56_start_blk45	; block 45 START_ADDR
  8645  0E20  000002F0           	ddw	__ccov56_end_blk45	; block 45 END_ADDR
  8646  0E24  000002ED           	ddw	__ccov55_start_blk44	; block 44 START_ADDR
  8647  0E28  000002EE           	ddw	__ccov55_end_blk44	; block 44 END_ADDR
  8648  0E2C  000002EC           	ddw	__ccov54_start_blk43	; block 43 START_ADDR
  8649  0E30  000002ED           	ddw	__ccov54_end_blk43	; block 43 END_ADDR
  8650  0E34  000002EB           	ddw	__ccov53_start_blk42	; block 42 START_ADDR
  8651  0E38  000002EC           	ddw	__ccov53_end_blk42	; block 42 END_ADDR
  8652  0E3C  000002E9           	ddw	__ccov52_start_blk41	; block 41 START_ADDR
  8653  0E40  000002EB           	ddw	__ccov52_end_blk41	; block 41 END_ADDR
  8654  0E44  000002E7           	ddw	__ccov51_start_blk40	; block 40 START_ADDR
  8655  0E48  000002E9           	ddw	__ccov51_end_blk40	; block 40 END_ADDR
  8656  0E4C  000002E6           	ddw	__ccov50_start_blk39	; block 39 START_ADDR
  8657  0E50  000002E7           	ddw	__ccov50_end_blk39	; block 39 END_ADDR
  8658  0E54  000002E5           	ddw	__ccov49_start_blk38	; block 38 START_ADDR
  8659  0E58  000002E6           	ddw	__ccov49_end_blk38	; block 38 END_ADDR
  8660  0E5C  000002E0           	ddw	__ccov48_start_blk37	; block 37 START_ADDR
  8661  0E60  000002E5           	ddw	__ccov48_end_blk37	; block 37 END_ADDR
  8662  0E64  000002DF           	ddw	__ccov47_start_blk36	; block 36 START_ADDR
  8663  0E68  000002E0           	ddw	__ccov47_end_blk36	; block 36 END_ADDR
  8664  0E6C  000002DE           	ddw	__ccov46_start_blk35	; block 35 START_ADDR
  8665  0E70  000002DF           	ddw	__ccov46_end_blk35	; block 35 END_ADDR
  8666  0E74  000002DC           	ddw	__ccov45_start_blk34	; block 34 START_ADDR
  8667  0E78  000002DE           	ddw	__ccov45_end_blk34	; block 34 END_ADDR
  8668  0E7C  000002DB           	ddw	__ccov44_start_blk33	; block 33 START_ADDR
  8669  0E80  000002DC           	ddw	__ccov44_end_blk33	; block 33 END_ADDR
  8670  0E84  000002DA           	ddw	__ccov43_start_blk32	; block 32 START_ADDR
  8671  0E88  000002DB           	ddw	__ccov43_end_blk32	; block 32 END_ADDR
  8672  0E8C  000002D8           	ddw	__ccov42_start_blk31	; block 31 START_ADDR
  8673  0E90  000002DA           	ddw	__ccov42_end_blk31	; block 31 END_ADDR
  8674  0E94  000002D7           	ddw	__ccov41_start_blk30	; block 30 START_ADDR
  8675  0E98  000002D8           	ddw	__ccov41_end_blk30	; block 30 END_ADDR
  8676  0E9C  000002D5           	ddw	__ccov40_start_blk29	; block 29 START_ADDR
  8677  0EA0  000002D7           	ddw	__ccov40_end_blk29	; block 29 END_ADDR
  8678  0EA4  000002D3           	ddw	__ccov39_start_blk28	; block 28 START_ADDR
  8679  0EA8  000002D5           	ddw	__ccov39_end_blk28	; block 28 END_ADDR
  8680  0EAC  000002D2           	ddw	__ccov38_start_blk27	; block 27 START_ADDR
  8681  0EB0  000002D3           	ddw	__ccov38_end_blk27	; block 27 END_ADDR
  8682  0EB4  000002D1           	ddw	__ccov37_start_blk26	; block 26 START_ADDR
  8683  0EB8  000002D2           	ddw	__ccov37_end_blk26	; block 26 END_ADDR
  8684  0EBC  000002D0           	ddw	__ccov36_start_blk25	; block 25 START_ADDR
  8685  0EC0  000002D1           	ddw	__ccov36_end_blk25	; block 25 END_ADDR
  8686  0EC4  000002CF           	ddw	__ccov35_start_blk24	; block 24 START_ADDR
  8687  0EC8  000002D0           	ddw	__ccov35_end_blk24	; block 24 END_ADDR
  8688  0ECC  000002CE           	ddw	__ccov34_start_blk23	; block 23 START_ADDR
  8689  0ED0  000002CF           	ddw	__ccov34_end_blk23	; block 23 END_ADDR
  8690  0ED4  000002CC           	ddw	__ccov33_start_blk22	; block 22 START_ADDR
  8691  0ED8  000002CE           	ddw	__ccov33_end_blk22	; block 22 END_ADDR
  8692  0EDC  000002CB           	ddw	__ccov32_start_blk21	; block 21 START_ADDR
  8693  0EE0  000002CC           	ddw	__ccov32_end_blk21	; block 21 END_ADDR
  8694  0EE4  000002CA           	ddw	__ccov31_start_blk20	; block 20 START_ADDR
  8695  0EE8  000002CB           	ddw	__ccov31_end_blk20	; block 20 END_ADDR
  8696  0EEC  000002C9           	ddw	__ccov30_start_blk19	; block 19 START_ADDR
  8697  0EF0  000002CA           	ddw	__ccov30_end_blk19	; block 19 END_ADDR
  8698  0EF4  000002C8           	ddw	__ccov29_start_blk18	; block 18 START_ADDR
  8699  0EF8  000002C9           	ddw	__ccov29_end_blk18	; block 18 END_ADDR
  8700  0EFC  000002C7           	ddw	__ccov28_start_blk17	; block 17 START_ADDR
  8701  0F00  000002C8           	ddw	__ccov28_end_blk17	; block 17 END_ADDR
  8702  0F04  000002C6           	ddw	__ccov27_start_blk16	; block 16 START_ADDR
  8703  0F08  000002C7           	ddw	__ccov27_end_blk16	; block 16 END_ADDR
  8704  0F0C  000002C5           	ddw	__ccov26_start_blk15	; block 15 START_ADDR
  8705  0F10  000002C6           	ddw	__ccov26_end_blk15	; block 15 END_ADDR
  8706  0F14  000002C4           	ddw	__ccov25_start_blk14	; block 14 START_ADDR
  8707  0F18  000002C5           	ddw	__ccov25_end_blk14	; block 14 END_ADDR
  8708  0F1C  000002C3           	ddw	__ccov24_start_blk13	; block 13 START_ADDR
  8709  0F20  000002C4           	ddw	__ccov24_end_blk13	; block 13 END_ADDR
  8710  0F24  000002C2           	ddw	__ccov23_start_blk12	; block 12 START_ADDR
  8711  0F28  000002C3           	ddw	__ccov23_end_blk12	; block 12 END_ADDR
  8712  0F2C  000002C1           	ddw	__ccov22_start_blk11	; block 11 START_ADDR
  8713  0F30  000002C2           	ddw	__ccov22_end_blk11	; block 11 END_ADDR
  8714  0F34  000002C0           	ddw	__ccov21_start_blk10	; block 10 START_ADDR
  8715  0F38  000002C1           	ddw	__ccov21_end_blk10	; block 10 END_ADDR
  8716  0F3C  000002BF           	ddw	__ccov20_start_blk9	; block 9 START_ADDR
  8717  0F40  000002C0           	ddw	__ccov20_end_blk9	; block 9 END_ADDR
  8718  0F44  000002BE           	ddw	__ccov19_start_blk8	; block 8 START_ADDR
  8719  0F48  000002BF           	ddw	__ccov19_end_blk8	; block 8 END_ADDR
  8720  0F4C  000002BD           	ddw	__ccov18_start_blk7	; block 7 START_ADDR
  8721  0F50  000002BE           	ddw	__ccov18_end_blk7	; block 7 END_ADDR
  8722  0F54  000002BC           	ddw	__ccov17_start_blk6	; block 6 START_ADDR
  8723  0F58  000002BD           	ddw	__ccov17_end_blk6	; block 6 END_ADDR
  8724  0F5C  000002BB           	ddw	__ccov16_start_blk5	; block 5 START_ADDR
  8725  0F60  000002BC           	ddw	__ccov16_end_blk5	; block 5 END_ADDR
  8726  0F64  000002BA           	ddw	__ccov15_start_blk4	; block 4 START_ADDR
  8727  0F68  000002BB           	ddw	__ccov15_end_blk4	; block 4 END_ADDR
  8728  0F6C  000002B6           	ddw	__ccov14_start_blk3	; block 3 START_ADDR
  8729  0F70  000002BA           	ddw	__ccov14_end_blk3	; block 3 END_ADDR
  8730  0F74  000002B5           	ddw	__ccov13_start_blk2	; block 2 START_ADDR
  8731  0F78  000002B6           	ddw	__ccov13_end_blk2	; block 2 END_ADDR
  8732  0F7C  000002B2           	ddw	__ccov12_start_blk1	; block 1 START_ADDR
  8733  0F80  000002B5           	ddw	__ccov12_end_blk1	; block 1 END_ADDR
  8734  0F84  000002AD           	ddw	_main	; block 0 START_ADDR
  8735  0F88  000002B2           	ddw	__ccov11_end_blk0	; block 0 END_ADDR
  8736                           
  8737                           ; Function: main, coverage: 107,106,105,104,101,99,91,90,89,88,87,86,85,84,83,82,81,76,7
      +                          5,74,73,72,71,70,69,68,67,66,65,64,63,62,61,60,59,58,57,56,55,54,53,52,51,50,49,48,47,46
      +                          ,45,44,43,42,41,40,39,38,37,36,35,34,33,32,31,30,29,28,27,26,25,24,23,22,21,20,19,18,17,
      +                          16,15,14,13,12,11,10,9,8,7,6,5,4,3,2,1,0
  8738  0F8C  00000000           	ddw	0	; CC_ADDR_SPACE=Data
  8739  0F90  00000071           	ddw	__ccovbit107_12/(0+8)	; CC_ADDR
  8740  0F94  00000001           	ddw	1	; NUM_POINTS
  8741  0F98  00000000           	ddw	__ccovbit107_12& (0+7)	; OFFSET
  8742  0F9C  00000000           	ddw	0	; Reserved
  8743  0FA0  FFFFFFFF           	ddw	4294967295	; RANGE_SPACE=restricted
  8744  0FA4  0000005E           	ddw	94	; NUM_RANGES
  8745  0FA8  0000040B           	ddw	__ccov112_start_blk107	; block 107 START_ADDR
  8746  0FAC  00000411           	ddw	__ccov112_end_blk107	; block 107 END_ADDR
  8747  0FB0  00000400           	ddw	__ccov111_start_blk106	; block 106 START_ADDR
  8748  0FB4  0000040B           	ddw	__ccov111_end_blk106	; block 106 END_ADDR
  8749  0FB8  000003F9           	ddw	__ccov110_start_blk105	; block 105 START_ADDR
  8750  0FBC  00000400           	ddw	__ccov110_end_blk105	; block 105 END_ADDR
  8751  0FC0  000003F2           	ddw	__ccov109_start_blk104	; block 104 START_ADDR
  8752  0FC4  000003F9           	ddw	__ccov109_end_blk104	; block 104 END_ADDR
  8753  0FC8  000003E9           	ddw	__ccov107_start_blk101	; block 101 START_ADDR
  8754  0FCC  000003ED           	ddw	__ccov107_end_blk101	; block 101 END_ADDR
  8755  0FD0  000003D6           	ddw	__ccov106_start_blk99	; block 99 START_ADDR
  8756  0FD4  000003E9           	ddw	__ccov106_end_blk99	; block 99 END_ADDR
  8757  0FD8  000003C0           	ddw	__ccov101_start_blk91	; block 91 START_ADDR
  8758  0FDC  000003C4           	ddw	__ccov101_end_blk91	; block 91 END_ADDR
  8759  0FE0  000003BE           	ddw	__ccov100_start_blk90	; block 90 START_ADDR
  8760  0FE4  000003C0           	ddw	__ccov100_end_blk90	; block 90 END_ADDR
  8761  0FE8  000003BC           	ddw	__ccov99_start_blk89	; block 89 START_ADDR
  8762  0FEC  000003BE           	ddw	__ccov99_end_blk89	; block 89 END_ADDR
  8763  0FF0  000003BA           	ddw	__ccov98_start_blk88	; block 88 START_ADDR
  8764  0FF4  000003BC           	ddw	__ccov98_end_blk88	; block 88 END_ADDR
  8765  0FF8  000003B8           	ddw	__ccov97_start_blk87	; block 87 START_ADDR
  8766  0FFC  000003BA           	ddw	__ccov97_end_blk87	; block 87 END_ADDR
  8767  1000  000003B5           	ddw	__ccov96_start_blk86	; block 86 START_ADDR
  8768  1004  000003B8           	ddw	__ccov96_end_blk86	; block 86 END_ADDR
  8769  1008  000003B2           	ddw	__ccov95_start_blk85	; block 85 START_ADDR
  8770  100C  000003B5           	ddw	__ccov95_end_blk85	; block 85 END_ADDR
  8771  1010  000003B1           	ddw	__ccov94_start_blk84	; block 84 START_ADDR
  8772  1014  000003B2           	ddw	__ccov94_end_blk84	; block 84 END_ADDR
  8773  1018  000003B0           	ddw	__ccov93_start_blk83	; block 83 START_ADDR
  8774  101C  000003B1           	ddw	__ccov93_end_blk83	; block 83 END_ADDR
  8775  1020  000003AC           	ddw	__ccov92_start_blk82	; block 82 START_ADDR
  8776  1024  000003B0           	ddw	__ccov92_end_blk82	; block 82 END_ADDR
  8777  1028  000003A7           	ddw	__ccov91_start_blk81	; block 81 START_ADDR
  8778  102C  000003AC           	ddw	__ccov91_end_blk81	; block 81 END_ADDR
  8779  1030  0000038C           	ddw	__ccov87_start_blk76	; block 76 START_ADDR
  8780  1034  00000399           	ddw	__ccov87_end_blk76	; block 76 END_ADDR
  8781  1038  0000037C           	ddw	__ccov86_start_blk75	; block 75 START_ADDR
  8782  103C  0000038C           	ddw	__ccov86_end_blk75	; block 75 END_ADDR
  8783  1040  00000363           	ddw	__ccov85_start_blk74	; block 74 START_ADDR
  8784  1044  0000037C           	ddw	__ccov85_end_blk74	; block 74 END_ADDR
  8785  1048  0000035B           	ddw	__ccov84_start_blk73	; block 73 START_ADDR
  8786  104C  00000363           	ddw	__ccov84_end_blk73	; block 73 END_ADDR
  8787  1050  0000035A           	ddw	__ccov83_start_blk72	; block 72 START_ADDR
  8788  1054  0000035B           	ddw	__ccov83_end_blk72	; block 72 END_ADDR
  8789  1058  00000355           	ddw	__ccov82_start_blk71	; block 71 START_ADDR
  8790  105C  0000035A           	ddw	__ccov82_end_blk71	; block 71 END_ADDR
  8791  1060  00000354           	ddw	__ccov81_start_blk70	; block 70 START_ADDR
  8792  1064  00000355           	ddw	__ccov81_end_blk70	; block 70 END_ADDR
  8793  1068  00000348           	ddw	__ccov80_start_blk69	; block 69 START_ADDR
  8794  106C  00000354           	ddw	__ccov80_end_blk69	; block 69 END_ADDR
  8795  1070  00000340           	ddw	__ccov79_start_blk68	; block 68 START_ADDR
  8796  1074  00000348           	ddw	__ccov79_end_blk68	; block 68 END_ADDR
  8797  1078  00000338           	ddw	__ccov78_start_blk67	; block 67 START_ADDR
  8798  107C  00000340           	ddw	__ccov78_end_blk67	; block 67 END_ADDR
  8799  1080  0000032E           	ddw	__ccov77_start_blk66	; block 66 START_ADDR
  8800  1084  00000338           	ddw	__ccov77_end_blk66	; block 66 END_ADDR
  8801  1088  0000032B           	ddw	__ccov76_start_blk65	; block 65 START_ADDR
  8802  108C  0000032E           	ddw	__ccov76_end_blk65	; block 65 END_ADDR
  8803  1090  00000328           	ddw	__ccov75_start_blk64	; block 64 START_ADDR
  8804  1094  0000032B           	ddw	__ccov75_end_blk64	; block 64 END_ADDR
  8805  1098  00000324           	ddw	__ccov74_start_blk63	; block 63 START_ADDR
  8806  109C  00000328           	ddw	__ccov74_end_blk63	; block 63 END_ADDR
  8807  10A0  00000323           	ddw	__ccov73_start_blk62	; block 62 START_ADDR
  8808  10A4  00000324           	ddw	__ccov73_end_blk62	; block 62 END_ADDR
  8809  10A8  0000031A           	ddw	__ccov72_start_blk61	; block 61 START_ADDR
  8810  10AC  00000323           	ddw	__ccov72_end_blk61	; block 61 END_ADDR
  8811  10B0  00000317           	ddw	__ccov71_start_blk60	; block 60 START_ADDR
  8812  10B4  0000031A           	ddw	__ccov71_end_blk60	; block 60 END_ADDR
  8813  10B8  00000314           	ddw	__ccov70_start_blk59	; block 59 START_ADDR
  8814  10BC  00000317           	ddw	__ccov70_end_blk59	; block 59 END_ADDR
  8815  10C0  00000311           	ddw	__ccov69_start_blk58	; block 58 START_ADDR
  8816  10C4  00000314           	ddw	__ccov69_end_blk58	; block 58 END_ADDR
  8817  10C8  0000030F           	ddw	__ccov68_start_blk57	; block 57 START_ADDR
  8818  10CC  00000311           	ddw	__ccov68_end_blk57	; block 57 END_ADDR
  8819  10D0  0000030E           	ddw	__ccov67_start_blk56	; block 56 START_ADDR
  8820  10D4  0000030F           	ddw	__ccov67_end_blk56	; block 56 END_ADDR
  8821  10D8  0000030B           	ddw	__ccov66_start_blk55	; block 55 START_ADDR
  8822  10DC  0000030E           	ddw	__ccov66_end_blk55	; block 55 END_ADDR
  8823  10E0  0000030A           	ddw	__ccov65_start_blk54	; block 54 START_ADDR
  8824  10E4  0000030B           	ddw	__ccov65_end_blk54	; block 54 END_ADDR
  8825  10E8  00000308           	ddw	__ccov64_start_blk53	; block 53 START_ADDR
  8826  10EC  0000030A           	ddw	__ccov64_end_blk53	; block 53 END_ADDR
  8827  10F0  00000307           	ddw	__ccov63_start_blk52	; block 52 START_ADDR
  8828  10F4  00000308           	ddw	__ccov63_end_blk52	; block 52 END_ADDR
  8829  10F8  00000306           	ddw	__ccov62_start_blk51	; block 51 START_ADDR
  8830  10FC  00000307           	ddw	__ccov62_end_blk51	; block 51 END_ADDR
  8831  1100  00000304           	ddw	__ccov61_start_blk50	; block 50 START_ADDR
  8832  1104  00000306           	ddw	__ccov61_end_blk50	; block 50 END_ADDR
  8833  1108  00000302           	ddw	__ccov60_start_blk49	; block 49 START_ADDR
  8834  110C  00000304           	ddw	__ccov60_end_blk49	; block 49 END_ADDR
  8835  1110  00000300           	ddw	__ccov59_start_blk48	; block 48 START_ADDR
  8836  1114  00000302           	ddw	__ccov59_end_blk48	; block 48 END_ADDR
  8837  1118  000002F1           	ddw	__ccov58_start_blk47	; block 47 START_ADDR
  8838  111C  00000300           	ddw	__ccov58_end_blk47	; block 47 END_ADDR
  8839  1120  000002F0           	ddw	__ccov57_start_blk46	; block 46 START_ADDR
  8840  1124  000002F1           	ddw	__ccov57_end_blk46	; block 46 END_ADDR
  8841  1128  000002EE           	ddw	__ccov56_start_blk45	; block 45 START_ADDR
  8842  112C  000002F0           	ddw	__ccov56_end_blk45	; block 45 END_ADDR
  8843  1130  000002ED           	ddw	__ccov55_start_blk44	; block 44 START_ADDR
  8844  1134  000002EE           	ddw	__ccov55_end_blk44	; block 44 END_ADDR
  8845  1138  000002EC           	ddw	__ccov54_start_blk43	; block 43 START_ADDR
  8846  113C  000002ED           	ddw	__ccov54_end_blk43	; block 43 END_ADDR
  8847  1140  000002EB           	ddw	__ccov53_start_blk42	; block 42 START_ADDR
  8848  1144  000002EC           	ddw	__ccov53_end_blk42	; block 42 END_ADDR
  8849  1148  000002E9           	ddw	__ccov52_start_blk41	; block 41 START_ADDR
  8850  114C  000002EB           	ddw	__ccov52_end_blk41	; block 41 END_ADDR
  8851  1150  000002E7           	ddw	__ccov51_start_blk40	; block 40 START_ADDR
  8852  1154  000002E9           	ddw	__ccov51_end_blk40	; block 40 END_ADDR
  8853  1158  000002E6           	ddw	__ccov50_start_blk39	; block 39 START_ADDR
  8854  115C  000002E7           	ddw	__ccov50_end_blk39	; block 39 END_ADDR
  8855  1160  000002E5           	ddw	__ccov49_start_blk38	; block 38 START_ADDR
  8856  1164  000002E6           	ddw	__ccov49_end_blk38	; block 38 END_ADDR
  8857  1168  000002E0           	ddw	__ccov48_start_blk37	; block 37 START_ADDR
  8858  116C  000002E5           	ddw	__ccov48_end_blk37	; block 37 END_ADDR
  8859  1170  000002DF           	ddw	__ccov47_start_blk36	; block 36 START_ADDR
  8860  1174  000002E0           	ddw	__ccov47_end_blk36	; block 36 END_ADDR
  8861  1178  000002DE           	ddw	__ccov46_start_blk35	; block 35 START_ADDR
  8862  117C  000002DF           	ddw	__ccov46_end_blk35	; block 35 END_ADDR
  8863  1180  000002DC           	ddw	__ccov45_start_blk34	; block 34 START_ADDR
  8864  1184  000002DE           	ddw	__ccov45_end_blk34	; block 34 END_ADDR
  8865  1188  000002DB           	ddw	__ccov44_start_blk33	; block 33 START_ADDR
  8866  118C  000002DC           	ddw	__ccov44_end_blk33	; block 33 END_ADDR
  8867  1190  000002DA           	ddw	__ccov43_start_blk32	; block 32 START_ADDR
  8868  1194  000002DB           	ddw	__ccov43_end_blk32	; block 32 END_ADDR
  8869  1198  000002D8           	ddw	__ccov42_start_blk31	; block 31 START_ADDR
  8870  119C  000002DA           	ddw	__ccov42_end_blk31	; block 31 END_ADDR
  8871  11A0  000002D7           	ddw	__ccov41_start_blk30	; block 30 START_ADDR
  8872  11A4  000002D8           	ddw	__ccov41_end_blk30	; block 30 END_ADDR
  8873  11A8  000002D5           	ddw	__ccov40_start_blk29	; block 29 START_ADDR
  8874  11AC  000002D7           	ddw	__ccov40_end_blk29	; block 29 END_ADDR
  8875  11B0  000002D3           	ddw	__ccov39_start_blk28	; block 28 START_ADDR
  8876  11B4  000002D5           	ddw	__ccov39_end_blk28	; block 28 END_ADDR
  8877  11B8  000002D2           	ddw	__ccov38_start_blk27	; block 27 START_ADDR
  8878  11BC  000002D3           	ddw	__ccov38_end_blk27	; block 27 END_ADDR
  8879  11C0  000002D1           	ddw	__ccov37_start_blk26	; block 26 START_ADDR
  8880  11C4  000002D2           	ddw	__ccov37_end_blk26	; block 26 END_ADDR
  8881  11C8  000002D0           	ddw	__ccov36_start_blk25	; block 25 START_ADDR
  8882  11CC  000002D1           	ddw	__ccov36_end_blk25	; block 25 END_ADDR
  8883  11D0  000002CF           	ddw	__ccov35_start_blk24	; block 24 START_ADDR
  8884  11D4  000002D0           	ddw	__ccov35_end_blk24	; block 24 END_ADDR
  8885  11D8  000002CE           	ddw	__ccov34_start_blk23	; block 23 START_ADDR
  8886  11DC  000002CF           	ddw	__ccov34_end_blk23	; block 23 END_ADDR
  8887  11E0  000002CC           	ddw	__ccov33_start_blk22	; block 22 START_ADDR
  8888  11E4  000002CE           	ddw	__ccov33_end_blk22	; block 22 END_ADDR
  8889  11E8  000002CB           	ddw	__ccov32_start_blk21	; block 21 START_ADDR
  8890  11EC  000002CC           	ddw	__ccov32_end_blk21	; block 21 END_ADDR
  8891  11F0  000002CA           	ddw	__ccov31_start_blk20	; block 20 START_ADDR
  8892  11F4  000002CB           	ddw	__ccov31_end_blk20	; block 20 END_ADDR
  8893  11F8  000002C9           	ddw	__ccov30_start_blk19	; block 19 START_ADDR
  8894  11FC  000002CA           	ddw	__ccov30_end_blk19	; block 19 END_ADDR
  8895  1200  000002C8           	ddw	__ccov29_start_blk18	; block 18 START_ADDR
  8896  1204  000002C9           	ddw	__ccov29_end_blk18	; block 18 END_ADDR
  8897  1208  000002C7           	ddw	__ccov28_start_blk17	; block 17 START_ADDR
  8898  120C  000002C8           	ddw	__ccov28_end_blk17	; block 17 END_ADDR
  8899  1210  000002C6           	ddw	__ccov27_start_blk16	; block 16 START_ADDR
  8900  1214  000002C7           	ddw	__ccov27_end_blk16	; block 16 END_ADDR
  8901  1218  000002C5           	ddw	__ccov26_start_blk15	; block 15 START_ADDR
  8902  121C  000002C6           	ddw	__ccov26_end_blk15	; block 15 END_ADDR
  8903  1220  000002C4           	ddw	__ccov25_start_blk14	; block 14 START_ADDR
  8904  1224  000002C5           	ddw	__ccov25_end_blk14	; block 14 END_ADDR
  8905  1228  000002C3           	ddw	__ccov24_start_blk13	; block 13 START_ADDR
  8906  122C  000002C4           	ddw	__ccov24_end_blk13	; block 13 END_ADDR
  8907  1230  000002C2           	ddw	__ccov23_start_blk12	; block 12 START_ADDR
  8908  1234  000002C3           	ddw	__ccov23_end_blk12	; block 12 END_ADDR
  8909  1238  000002C1           	ddw	__ccov22_start_blk11	; block 11 START_ADDR
  8910  123C  000002C2           	ddw	__ccov22_end_blk11	; block 11 END_ADDR
  8911  1240  000002C0           	ddw	__ccov21_start_blk10	; block 10 START_ADDR
  8912  1244  000002C1           	ddw	__ccov21_end_blk10	; block 10 END_ADDR
  8913  1248  000002BF           	ddw	__ccov20_start_blk9	; block 9 START_ADDR
  8914  124C  000002C0           	ddw	__ccov20_end_blk9	; block 9 END_ADDR
  8915  1250  000002BE           	ddw	__ccov19_start_blk8	; block 8 START_ADDR
  8916  1254  000002BF           	ddw	__ccov19_end_blk8	; block 8 END_ADDR
  8917  1258  000002BD           	ddw	__ccov18_start_blk7	; block 7 START_ADDR
  8918  125C  000002BE           	ddw	__ccov18_end_blk7	; block 7 END_ADDR
  8919  1260  000002BC           	ddw	__ccov17_start_blk6	; block 6 START_ADDR
  8920  1264  000002BD           	ddw	__ccov17_end_blk6	; block 6 END_ADDR
  8921  1268  000002BB           	ddw	__ccov16_start_blk5	; block 5 START_ADDR
  8922  126C  000002BC           	ddw	__ccov16_end_blk5	; block 5 END_ADDR
  8923  1270  000002BA           	ddw	__ccov15_start_blk4	; block 4 START_ADDR
  8924  1274  000002BB           	ddw	__ccov15_end_blk4	; block 4 END_ADDR
  8925  1278  000002B6           	ddw	__ccov14_start_blk3	; block 3 START_ADDR
  8926  127C  000002BA           	ddw	__ccov14_end_blk3	; block 3 END_ADDR
  8927  1280  000002B5           	ddw	__ccov13_start_blk2	; block 2 START_ADDR
  8928  1284  000002B6           	ddw	__ccov13_end_blk2	; block 2 END_ADDR
  8929  1288  000002B2           	ddw	__ccov12_start_blk1	; block 1 START_ADDR
  8930  128C  000002B5           	ddw	__ccov12_end_blk1	; block 1 END_ADDR
  8931  1290  000002AD           	ddw	_main	; block 0 START_ADDR
  8932  1294  000002B2           	ddw	__ccov11_end_blk0	; block 0 END_ADDR
  8933                           
  8934                           ; Function: main, coverage: 110,104,101,99,91,90,89,88,87,86,85,84,83,82,81,76,75,74,73,
      +                          72,71,70,69,68,67,66,65,64,63,62,61,60,59,58,57,56,55,54,53,52,51,50,49,48,47,46,45,44,4
      +                          3,42,41,40,39,38,37,36,35,34,33,32,31,30,29,28,27,26,25,24,23,22,21,20,19,18,17,16,15,14
      +                          ,13,12,11,10,9,8,7,6,5,4,3,2,1,0
  8935  1298  00000000           	ddw	0	; CC_ADDR_SPACE=Data
  8936  129C  00000070           	ddw	__ccovbit110_13/(0+8)	; CC_ADDR
  8937  12A0  00000001           	ddw	1	; NUM_POINTS
  8938  12A4  00000007           	ddw	__ccovbit110_13& (0+7)	; OFFSET
  8939  12A8  00000000           	ddw	0	; Reserved
  8940  12AC  FFFFFFFF           	ddw	4294967295	; RANGE_SPACE=restricted
  8941  12B0  0000005C           	ddw	92	; NUM_RANGES
  8942  12B4  00000411           	ddw	__ccov113_start_blk110	; block 110 START_ADDR
  8943  12B8  00000416           	ddw	__ccov113_end_blk110	; block 110 END_ADDR
  8944  12BC  000003F2           	ddw	__ccov109_start_blk104	; block 104 START_ADDR
  8945  12C0  000003F9           	ddw	__ccov109_end_blk104	; block 104 END_ADDR
  8946  12C4  000003E9           	ddw	__ccov107_start_blk101	; block 101 START_ADDR
  8947  12C8  000003ED           	ddw	__ccov107_end_blk101	; block 101 END_ADDR
  8948  12CC  000003D6           	ddw	__ccov106_start_blk99	; block 99 START_ADDR
  8949  12D0  000003E9           	ddw	__ccov106_end_blk99	; block 99 END_ADDR
  8950  12D4  000003C0           	ddw	__ccov101_start_blk91	; block 91 START_ADDR
  8951  12D8  000003C4           	ddw	__ccov101_end_blk91	; block 91 END_ADDR
  8952  12DC  000003BE           	ddw	__ccov100_start_blk90	; block 90 START_ADDR
  8953  12E0  000003C0           	ddw	__ccov100_end_blk90	; block 90 END_ADDR
  8954  12E4  000003BC           	ddw	__ccov99_start_blk89	; block 89 START_ADDR
  8955  12E8  000003BE           	ddw	__ccov99_end_blk89	; block 89 END_ADDR
  8956  12EC  000003BA           	ddw	__ccov98_start_blk88	; block 88 START_ADDR
  8957  12F0  000003BC           	ddw	__ccov98_end_blk88	; block 88 END_ADDR
  8958  12F4  000003B8           	ddw	__ccov97_start_blk87	; block 87 START_ADDR
  8959  12F8  000003BA           	ddw	__ccov97_end_blk87	; block 87 END_ADDR
  8960  12FC  000003B5           	ddw	__ccov96_start_blk86	; block 86 START_ADDR
  8961  1300  000003B8           	ddw	__ccov96_end_blk86	; block 86 END_ADDR
  8962  1304  000003B2           	ddw	__ccov95_start_blk85	; block 85 START_ADDR
  8963  1308  000003B5           	ddw	__ccov95_end_blk85	; block 85 END_ADDR
  8964  130C  000003B1           	ddw	__ccov94_start_blk84	; block 84 START_ADDR
  8965  1310  000003B2           	ddw	__ccov94_end_blk84	; block 84 END_ADDR
  8966  1314  000003B0           	ddw	__ccov93_start_blk83	; block 83 START_ADDR
  8967  1318  000003B1           	ddw	__ccov93_end_blk83	; block 83 END_ADDR
  8968  131C  000003AC           	ddw	__ccov92_start_blk82	; block 82 START_ADDR
  8969  1320  000003B0           	ddw	__ccov92_end_blk82	; block 82 END_ADDR
  8970  1324  000003A7           	ddw	__ccov91_start_blk81	; block 81 START_ADDR
  8971  1328  000003AC           	ddw	__ccov91_end_blk81	; block 81 END_ADDR
  8972  132C  0000038C           	ddw	__ccov87_start_blk76	; block 76 START_ADDR
  8973  1330  00000399           	ddw	__ccov87_end_blk76	; block 76 END_ADDR
  8974  1334  0000037C           	ddw	__ccov86_start_blk75	; block 75 START_ADDR
  8975  1338  0000038C           	ddw	__ccov86_end_blk75	; block 75 END_ADDR
  8976  133C  00000363           	ddw	__ccov85_start_blk74	; block 74 START_ADDR
  8977  1340  0000037C           	ddw	__ccov85_end_blk74	; block 74 END_ADDR
  8978  1344  0000035B           	ddw	__ccov84_start_blk73	; block 73 START_ADDR
  8979  1348  00000363           	ddw	__ccov84_end_blk73	; block 73 END_ADDR
  8980  134C  0000035A           	ddw	__ccov83_start_blk72	; block 72 START_ADDR
  8981  1350  0000035B           	ddw	__ccov83_end_blk72	; block 72 END_ADDR
  8982  1354  00000355           	ddw	__ccov82_start_blk71	; block 71 START_ADDR
  8983  1358  0000035A           	ddw	__ccov82_end_blk71	; block 71 END_ADDR
  8984  135C  00000354           	ddw	__ccov81_start_blk70	; block 70 START_ADDR
  8985  1360  00000355           	ddw	__ccov81_end_blk70	; block 70 END_ADDR
  8986  1364  00000348           	ddw	__ccov80_start_blk69	; block 69 START_ADDR
  8987  1368  00000354           	ddw	__ccov80_end_blk69	; block 69 END_ADDR
  8988  136C  00000340           	ddw	__ccov79_start_blk68	; block 68 START_ADDR
  8989  1370  00000348           	ddw	__ccov79_end_blk68	; block 68 END_ADDR
  8990  1374  00000338           	ddw	__ccov78_start_blk67	; block 67 START_ADDR
  8991  1378  00000340           	ddw	__ccov78_end_blk67	; block 67 END_ADDR
  8992  137C  0000032E           	ddw	__ccov77_start_blk66	; block 66 START_ADDR
  8993  1380  00000338           	ddw	__ccov77_end_blk66	; block 66 END_ADDR
  8994  1384  0000032B           	ddw	__ccov76_start_blk65	; block 65 START_ADDR
  8995  1388  0000032E           	ddw	__ccov76_end_blk65	; block 65 END_ADDR
  8996  138C  00000328           	ddw	__ccov75_start_blk64	; block 64 START_ADDR
  8997  1390  0000032B           	ddw	__ccov75_end_blk64	; block 64 END_ADDR
  8998  1394  00000324           	ddw	__ccov74_start_blk63	; block 63 START_ADDR
  8999  1398  00000328           	ddw	__ccov74_end_blk63	; block 63 END_ADDR
  9000  139C  00000323           	ddw	__ccov73_start_blk62	; block 62 START_ADDR
  9001  13A0  00000324           	ddw	__ccov73_end_blk62	; block 62 END_ADDR
  9002  13A4  0000031A           	ddw	__ccov72_start_blk61	; block 61 START_ADDR
  9003  13A8  00000323           	ddw	__ccov72_end_blk61	; block 61 END_ADDR
  9004  13AC  00000317           	ddw	__ccov71_start_blk60	; block 60 START_ADDR
  9005  13B0  0000031A           	ddw	__ccov71_end_blk60	; block 60 END_ADDR
  9006  13B4  00000314           	ddw	__ccov70_start_blk59	; block 59 START_ADDR
  9007  13B8  00000317           	ddw	__ccov70_end_blk59	; block 59 END_ADDR
  9008  13BC  00000311           	ddw	__ccov69_start_blk58	; block 58 START_ADDR
  9009  13C0  00000314           	ddw	__ccov69_end_blk58	; block 58 END_ADDR
  9010  13C4  0000030F           	ddw	__ccov68_start_blk57	; block 57 START_ADDR
  9011  13C8  00000311           	ddw	__ccov68_end_blk57	; block 57 END_ADDR
  9012  13CC  0000030E           	ddw	__ccov67_start_blk56	; block 56 START_ADDR
  9013  13D0  0000030F           	ddw	__ccov67_end_blk56	; block 56 END_ADDR
  9014  13D4  0000030B           	ddw	__ccov66_start_blk55	; block 55 START_ADDR
  9015  13D8  0000030E           	ddw	__ccov66_end_blk55	; block 55 END_ADDR
  9016  13DC  0000030A           	ddw	__ccov65_start_blk54	; block 54 START_ADDR
  9017  13E0  0000030B           	ddw	__ccov65_end_blk54	; block 54 END_ADDR
  9018  13E4  00000308           	ddw	__ccov64_start_blk53	; block 53 START_ADDR
  9019  13E8  0000030A           	ddw	__ccov64_end_blk53	; block 53 END_ADDR
  9020  13EC  00000307           	ddw	__ccov63_start_blk52	; block 52 START_ADDR
  9021  13F0  00000308           	ddw	__ccov63_end_blk52	; block 52 END_ADDR
  9022  13F4  00000306           	ddw	__ccov62_start_blk51	; block 51 START_ADDR
  9023  13F8  00000307           	ddw	__ccov62_end_blk51	; block 51 END_ADDR
  9024  13FC  00000304           	ddw	__ccov61_start_blk50	; block 50 START_ADDR
  9025  1400  00000306           	ddw	__ccov61_end_blk50	; block 50 END_ADDR
  9026  1404  00000302           	ddw	__ccov60_start_blk49	; block 49 START_ADDR
  9027  1408  00000304           	ddw	__ccov60_end_blk49	; block 49 END_ADDR
  9028  140C  00000300           	ddw	__ccov59_start_blk48	; block 48 START_ADDR
  9029  1410  00000302           	ddw	__ccov59_end_blk48	; block 48 END_ADDR
  9030  1414  000002F1           	ddw	__ccov58_start_blk47	; block 47 START_ADDR
  9031  1418  00000300           	ddw	__ccov58_end_blk47	; block 47 END_ADDR
  9032  141C  000002F0           	ddw	__ccov57_start_blk46	; block 46 START_ADDR
  9033  1420  000002F1           	ddw	__ccov57_end_blk46	; block 46 END_ADDR
  9034  1424  000002EE           	ddw	__ccov56_start_blk45	; block 45 START_ADDR
  9035  1428  000002F0           	ddw	__ccov56_end_blk45	; block 45 END_ADDR
  9036  142C  000002ED           	ddw	__ccov55_start_blk44	; block 44 START_ADDR
  9037  1430  000002EE           	ddw	__ccov55_end_blk44	; block 44 END_ADDR
  9038  1434  000002EC           	ddw	__ccov54_start_blk43	; block 43 START_ADDR
  9039  1438  000002ED           	ddw	__ccov54_end_blk43	; block 43 END_ADDR
  9040  143C  000002EB           	ddw	__ccov53_start_blk42	; block 42 START_ADDR
  9041  1440  000002EC           	ddw	__ccov53_end_blk42	; block 42 END_ADDR
  9042  1444  000002E9           	ddw	__ccov52_start_blk41	; block 41 START_ADDR
  9043  1448  000002EB           	ddw	__ccov52_end_blk41	; block 41 END_ADDR
  9044  144C  000002E7           	ddw	__ccov51_start_blk40	; block 40 START_ADDR
  9045  1450  000002E9           	ddw	__ccov51_end_blk40	; block 40 END_ADDR
  9046  1454  000002E6           	ddw	__ccov50_start_blk39	; block 39 START_ADDR
  9047  1458  000002E7           	ddw	__ccov50_end_blk39	; block 39 END_ADDR
  9048  145C  000002E5           	ddw	__ccov49_start_blk38	; block 38 START_ADDR
  9049  1460  000002E6           	ddw	__ccov49_end_blk38	; block 38 END_ADDR
  9050  1464  000002E0           	ddw	__ccov48_start_blk37	; block 37 START_ADDR
  9051  1468  000002E5           	ddw	__ccov48_end_blk37	; block 37 END_ADDR
  9052  146C  000002DF           	ddw	__ccov47_start_blk36	; block 36 START_ADDR
  9053  1470  000002E0           	ddw	__ccov47_end_blk36	; block 36 END_ADDR
  9054  1474  000002DE           	ddw	__ccov46_start_blk35	; block 35 START_ADDR
  9055  1478  000002DF           	ddw	__ccov46_end_blk35	; block 35 END_ADDR
  9056  147C  000002DC           	ddw	__ccov45_start_blk34	; block 34 START_ADDR
  9057  1480  000002DE           	ddw	__ccov45_end_blk34	; block 34 END_ADDR
  9058  1484  000002DB           	ddw	__ccov44_start_blk33	; block 33 START_ADDR
  9059  1488  000002DC           	ddw	__ccov44_end_blk33	; block 33 END_ADDR
  9060  148C  000002DA           	ddw	__ccov43_start_blk32	; block 32 START_ADDR
  9061  1490  000002DB           	ddw	__ccov43_end_blk32	; block 32 END_ADDR
  9062  1494  000002D8           	ddw	__ccov42_start_blk31	; block 31 START_ADDR
  9063  1498  000002DA           	ddw	__ccov42_end_blk31	; block 31 END_ADDR
  9064  149C  000002D7           	ddw	__ccov41_start_blk30	; block 30 START_ADDR
  9065  14A0  000002D8           	ddw	__ccov41_end_blk30	; block 30 END_ADDR
  9066  14A4  000002D5           	ddw	__ccov40_start_blk29	; block 29 START_ADDR
  9067  14A8  000002D7           	ddw	__ccov40_end_blk29	; block 29 END_ADDR
  9068  14AC  000002D3           	ddw	__ccov39_start_blk28	; block 28 START_ADDR
  9069  14B0  000002D5           	ddw	__ccov39_end_blk28	; block 28 END_ADDR
  9070  14B4  000002D2           	ddw	__ccov38_start_blk27	; block 27 START_ADDR
  9071  14B8  000002D3           	ddw	__ccov38_end_blk27	; block 27 END_ADDR
  9072  14BC  000002D1           	ddw	__ccov37_start_blk26	; block 26 START_ADDR
  9073  14C0  000002D2           	ddw	__ccov37_end_blk26	; block 26 END_ADDR
  9074  14C4  000002D0           	ddw	__ccov36_start_blk25	; block 25 START_ADDR
  9075  14C8  000002D1           	ddw	__ccov36_end_blk25	; block 25 END_ADDR
  9076  14CC  000002CF           	ddw	__ccov35_start_blk24	; block 24 START_ADDR
  9077  14D0  000002D0           	ddw	__ccov35_end_blk24	; block 24 END_ADDR
  9078  14D4  000002CE           	ddw	__ccov34_start_blk23	; block 23 START_ADDR
  9079  14D8  000002CF           	ddw	__ccov34_end_blk23	; block 23 END_ADDR
  9080  14DC  000002CC           	ddw	__ccov33_start_blk22	; block 22 START_ADDR
  9081  14E0  000002CE           	ddw	__ccov33_end_blk22	; block 22 END_ADDR
  9082  14E4  000002CB           	ddw	__ccov32_start_blk21	; block 21 START_ADDR
  9083  14E8  000002CC           	ddw	__ccov32_end_blk21	; block 21 END_ADDR
  9084  14EC  000002CA           	ddw	__ccov31_start_blk20	; block 20 START_ADDR
  9085  14F0  000002CB           	ddw	__ccov31_end_blk20	; block 20 END_ADDR
  9086  14F4  000002C9           	ddw	__ccov30_start_blk19	; block 19 START_ADDR
  9087  14F8  000002CA           	ddw	__ccov30_end_blk19	; block 19 END_ADDR
  9088  14FC  000002C8           	ddw	__ccov29_start_blk18	; block 18 START_ADDR
  9089  1500  000002C9           	ddw	__ccov29_end_blk18	; block 18 END_ADDR
  9090  1504  000002C7           	ddw	__ccov28_start_blk17	; block 17 START_ADDR
  9091  1508  000002C8           	ddw	__ccov28_end_blk17	; block 17 END_ADDR
  9092  150C  000002C6           	ddw	__ccov27_start_blk16	; block 16 START_ADDR
  9093  1510  000002C7           	ddw	__ccov27_end_blk16	; block 16 END_ADDR
  9094  1514  000002C5           	ddw	__ccov26_start_blk15	; block 15 START_ADDR
  9095  1518  000002C6           	ddw	__ccov26_end_blk15	; block 15 END_ADDR
  9096  151C  000002C4           	ddw	__ccov25_start_blk14	; block 14 START_ADDR
  9097  1520  000002C5           	ddw	__ccov25_end_blk14	; block 14 END_ADDR
  9098  1524  000002C3           	ddw	__ccov24_start_blk13	; block 13 START_ADDR
  9099  1528  000002C4           	ddw	__ccov24_end_blk13	; block 13 END_ADDR
  9100  152C  000002C2           	ddw	__ccov23_start_blk12	; block 12 START_ADDR
  9101  1530  000002C3           	ddw	__ccov23_end_blk12	; block 12 END_ADDR
  9102  1534  000002C1           	ddw	__ccov22_start_blk11	; block 11 START_ADDR
  9103  1538  000002C2           	ddw	__ccov22_end_blk11	; block 11 END_ADDR
  9104  153C  000002C0           	ddw	__ccov21_start_blk10	; block 10 START_ADDR
  9105  1540  000002C1           	ddw	__ccov21_end_blk10	; block 10 END_ADDR
  9106  1544  000002BF           	ddw	__ccov20_start_blk9	; block 9 START_ADDR
  9107  1548  000002C0           	ddw	__ccov20_end_blk9	; block 9 END_ADDR
  9108  154C  000002BE           	ddw	__ccov19_start_blk8	; block 8 START_ADDR
  9109  1550  000002BF           	ddw	__ccov19_end_blk8	; block 8 END_ADDR
  9110  1554  000002BD           	ddw	__ccov18_start_blk7	; block 7 START_ADDR
  9111  1558  000002BE           	ddw	__ccov18_end_blk7	; block 7 END_ADDR
  9112  155C  000002BC           	ddw	__ccov17_start_blk6	; block 6 START_ADDR
  9113  1560  000002BD           	ddw	__ccov17_end_blk6	; block 6 END_ADDR
  9114  1564  000002BB           	ddw	__ccov16_start_blk5	; block 5 START_ADDR
  9115  1568  000002BC           	ddw	__ccov16_end_blk5	; block 5 END_ADDR
  9116  156C  000002BA           	ddw	__ccov15_start_blk4	; block 4 START_ADDR
  9117  1570  000002BB           	ddw	__ccov15_end_blk4	; block 4 END_ADDR
  9118  1574  000002B6           	ddw	__ccov14_start_blk3	; block 3 START_ADDR
  9119  1578  000002BA           	ddw	__ccov14_end_blk3	; block 3 END_ADDR
  9120  157C  000002B5           	ddw	__ccov13_start_blk2	; block 2 START_ADDR
  9121  1580  000002B6           	ddw	__ccov13_end_blk2	; block 2 END_ADDR
  9122  1584  000002B2           	ddw	__ccov12_start_blk1	; block 1 START_ADDR
  9123  1588  000002B5           	ddw	__ccov12_end_blk1	; block 1 END_ADDR
  9124  158C  000002AD           	ddw	_main	; block 0 START_ADDR
  9125  1590  000002B2           	ddw	__ccov11_end_blk0	; block 0 END_ADDR
  9126                           
  9127                           ; Function: PWM_set, coverage: 2,1,0
  9128  1594  00000000           	ddw	0	; CC_ADDR_SPACE=Data
  9129  1598  00000070           	ddw	__ccovbit2_14/(0+8)	; CC_ADDR
  9130  159C  00000001           	ddw	1	; NUM_POINTS
  9131  15A0  00000006           	ddw	__ccovbit2_14& (0+7)	; OFFSET
  9132  15A4  00000000           	ddw	0	; Reserved
  9133  15A8  FFFFFFFF           	ddw	4294967295	; RANGE_SPACE=restricted
  9134  15AC  00000003           	ddw	3	; NUM_RANGES
  9135  15B0  00000657           	ddw	__ccov123_start_blk2	; block 2 START_ADDR
  9136  15B4  0000065B           	ddw	__ccov123_end_blk2	; block 2 END_ADDR
  9137  15B8  00000655           	ddw	__ccov122_start_blk1	; block 1 START_ADDR
  9138  15BC  00000657           	ddw	__ccov122_end_blk1	; block 1 END_ADDR
  9139  15C0  0000064E           	ddw	_PWM_set	; block 0 START_ADDR
  9140  15C4  00000655           	ddw	__ccov121_end_blk0	; block 0 END_ADDR
  9141                           
  9142                           ; Function: PWM_set, coverage: 6,5,4,0
  9143  15C8  00000000           	ddw	0	; CC_ADDR_SPACE=Data
  9144  15CC  00000070           	ddw	__ccovbit6_15/(0+8)	; CC_ADDR
  9145  15D0  00000001           	ddw	1	; NUM_POINTS
  9146  15D4  00000005           	ddw	__ccovbit6_15& (0+7)	; OFFSET
  9147  15D8  00000000           	ddw	0	; Reserved
  9148  15DC  FFFFFFFF           	ddw	4294967295	; RANGE_SPACE=restricted
  9149  15E0  00000004           	ddw	4	; NUM_RANGES
  9150  15E4  00000664           	ddw	__ccov126_start_blk6	; block 6 START_ADDR
  9151  15E8  00000668           	ddw	__ccov126_end_blk6	; block 6 END_ADDR
  9152  15EC  00000661           	ddw	__ccov125_start_blk5	; block 5 START_ADDR
  9153  15F0  00000664           	ddw	__ccov125_end_blk5	; block 5 END_ADDR
  9154  15F4  0000065B           	ddw	__ccov124_start_blk4	; block 4 START_ADDR
  9155  15F8  00000661           	ddw	__ccov124_end_blk4	; block 4 END_ADDR
  9156  15FC  0000064E           	ddw	_PWM_set	; block 0 START_ADDR
  9157  1600  00000655           	ddw	__ccov121_end_blk0	; block 0 END_ADDR
  9158                           
  9159                           ; Function: PWM_set, coverage: 10,9,8,4,0
  9160  1604  00000000           	ddw	0	; CC_ADDR_SPACE=Data
  9161  1608  00000070           	ddw	__ccovbit10_16/(0+8)	; CC_ADDR
  9162  160C  00000001           	ddw	1	; NUM_POINTS
  9163  1610  00000004           	ddw	__ccovbit10_16& (0+7)	; OFFSET
  9164  1614  00000000           	ddw	0	; Reserved
  9165  1618  FFFFFFFF           	ddw	4294967295	; RANGE_SPACE=restricted
  9166  161C  00000005           	ddw	5	; NUM_RANGES
  9167  1620  00000686           	ddw	__ccov129_start_blk10	; block 10 START_ADDR
  9168  1624  00000692           	ddw	__ccov129_end_blk10	; block 10 END_ADDR
  9169  1628  0000067B           	ddw	__ccov128_start_blk9	; block 9 START_ADDR
  9170  162C  00000686           	ddw	__ccov128_end_blk9	; block 9 END_ADDR
  9171  1630  00000668           	ddw	__ccov127_start_blk8	; block 8 START_ADDR
  9172  1634  0000067B           	ddw	__ccov127_end_blk8	; block 8 END_ADDR
  9173  1638  0000065B           	ddw	__ccov124_start_blk4	; block 4 START_ADDR
  9174  163C  00000661           	ddw	__ccov124_end_blk4	; block 4 END_ADDR
  9175  1640  0000064E           	ddw	_PWM_set	; block 0 START_ADDR
  9176  1644  00000655           	ddw	__ccov121_end_blk0	; block 0 END_ADDR
  9177                           
  9178                           ; Function: PWM_set, coverage: 14,0
  9179  1648  00000000           	ddw	0	; CC_ADDR_SPACE=Data
  9180  164C  00000070           	ddw	__ccovbit14_17/(0+8)	; CC_ADDR
  9181  1650  00000001           	ddw	1	; NUM_POINTS
  9182  1654  00000003           	ddw	__ccovbit14_17& (0+7)	; OFFSET
  9183  1658  00000000           	ddw	0	; Reserved
  9184  165C  FFFFFFFF           	ddw	4294967295	; RANGE_SPACE=restricted
  9185  1660  00000002           	ddw	2	; NUM_RANGES
  9186  1664  00000692           	ddw	__ccov130_start_blk14	; block 14 START_ADDR
  9187  1668  00000694           	ddw	__end_of_PWM_set	; block 14 END_ADDR
  9188  166C  0000064E           	ddw	_PWM_set	; block 0 START_ADDR
  9189  1670  00000655           	ddw	__ccov121_end_blk0	; block 0 END_ADDR
  9190                           
  9191                           ; Function: timer2_init, coverage: 3,2,1,0
  9192  1674  00000000           	ddw	0	; CC_ADDR_SPACE=Data
  9193  1678  00000070           	ddw	__ccovbit3_18/(0+8)	; CC_ADDR
  9194  167C  00000001           	ddw	1	; NUM_POINTS
  9195  1680  00000002           	ddw	__ccovbit3_18& (0+7)	; OFFSET
  9196  1684  00000000           	ddw	0	; Reserved
  9197  1688  FFFFFFFF           	ddw	4294967295	; RANGE_SPACE=restricted
  9198  168C  00000004           	ddw	4	; NUM_RANGES
  9199  1690  00000F66           	ddw	__ccov134_start_blk3	; block 3 START_ADDR
  9200  1694  00000F68           	ddw	__end_of_timer2_init	; block 3 END_ADDR
  9201  1698  00000F65           	ddw	__ccov133_start_blk2	; block 2 START_ADDR
  9202  169C  00000F66           	ddw	__ccov133_end_blk2	; block 2 END_ADDR
  9203  16A0  00000F5C           	ddw	__ccov132_start_blk1	; block 1 START_ADDR
  9204  16A4  00000F65           	ddw	__ccov132_end_blk1	; block 1 END_ADDR
  9205  16A8  00000F59           	ddw	_timer2_init	; block 0 START_ADDR
  9206  16AC  00000F5C           	ddw	__ccov131_end_blk0	; block 0 END_ADDR
  9207                           
  9208                           ; Function: getBatteryVoltage, coverage: 19,17,16,15,13,11,10,9,8,7,6,5,4,2,1,0
  9209  16B0  00000000           	ddw	0	; CC_ADDR_SPACE=Data
  9210  16B4  00000070           	ddw	__ccovbit19_19/(0+8)	; CC_ADDR
  9211  16B8  00000001           	ddw	1	; NUM_POINTS
  9212  16BC  00000001           	ddw	__ccovbit19_19& (0+7)	; OFFSET
  9213  16C0  00000000           	ddw	0	; Reserved
  9214  16C4  FFFFFFFF           	ddw	4294967295	; RANGE_SPACE=restricted
  9215  16C8  0000000F           	ddw	15	; NUM_RANGES
  9216  16CC  0000070A           	ddw	__ccov150_start_blk19	; block 19 START_ADDR
  9217  16D0  0000070C           	ddw	__end_of_getBatteryVoltage	; block 19 END_ADDR
  9218  16D4  00000704           	ddw	__ccov149_start_blk17	; block 17 START_ADDR
  9219  16D8  0000070A           	ddw	__ccov149_end_blk17	; block 17 END_ADDR
  9220  16DC  00000702           	ddw	__ccov148_start_blk16	; block 16 START_ADDR
  9221  16E0  00000704           	ddw	__ccov148_end_blk16	; block 16 END_ADDR
  9222  16E4  000006F1           	ddw	__ccov147_start_blk15	; block 15 START_ADDR
  9223  16E8  00000702           	ddw	__ccov147_end_blk15	; block 15 END_ADDR
  9224  16EC  000006ED           	ddw	__ccov146_start_blk13	; block 13 START_ADDR
  9225  16F0  000006F1           	ddw	__ccov146_end_blk13	; block 13 END_ADDR
  9226  16F4  000006EC           	ddw	__ccov145_start_blk11	; block 11 START_ADDR
  9227  16F8  000006ED           	ddw	__ccov145_end_blk11	; block 11 END_ADDR
  9228  16FC  000006EB           	ddw	__ccov143_start_blk9	; block 9 START_ADDR
  9229  1700  000006EC           	ddw	__ccov143_end_blk9	; block 9 END_ADDR
  9230  1704  000006E8           	ddw	__ccov142_start_blk8	; block 8 START_ADDR
  9231  1708  000006EB           	ddw	__ccov142_end_blk8	; block 8 END_ADDR
  9232  170C  000006E4           	ddw	__ccov141_start_blk7	; block 7 START_ADDR
  9233  1710  000006E8           	ddw	__ccov141_end_blk7	; block 7 END_ADDR
  9234  1714  000006E2           	ddw	__ccov140_start_blk6	; block 6 START_ADDR
  9235  1718  000006E4           	ddw	__ccov140_end_blk6	; block 6 END_ADDR
  9236  171C  000006E0           	ddw	__ccov139_start_blk5	; block 5 START_ADDR
  9237  1720  000006E2           	ddw	__ccov139_end_blk5	; block 5 END_ADDR
  9238  1724  000006DC           	ddw	__ccov138_start_blk4	; block 4 START_ADDR
  9239  1728  000006E0           	ddw	__ccov138_end_blk4	; block 4 END_ADDR
  9240  172C  000006DB           	ddw	__ccov137_start_blk2	; block 2 START_ADDR
  9241  1730  000006DC           	ddw	__ccov137_end_blk2	; block 2 END_ADDR
  9242  1734  000006D6           	ddw	__ccov136_start_blk1	; block 1 START_ADDR
  9243  1738  000006DB           	ddw	__ccov136_end_blk1	; block 1 END_ADDR
  9244  173C  000006D4           	ddw	_getBatteryVoltage	; block 0 START_ADDR
  9245  1740  000006D6           	ddw	__ccov135_end_blk0	; block 0 END_ADDR
  9246                           
  9247                           ; Function: watch_dog_incrementing_timer, coverage: 2,1,0
  9248  1744  00000000           	ddw	0	; CC_ADDR_SPACE=Data
  9249  1748  00000070           	ddw	__ccovbit2_20/(0+8)	; CC_ADDR
  9250  174C  00000001           	ddw	1	; NUM_POINTS
  9251  1750  00000000           	ddw	__ccovbit2_20& (0+7)	; OFFSET
  9252  1754  00000000           	ddw	0	; Reserved
  9253  1758  FFFFFFFF           	ddw	4294967295	; RANGE_SPACE=restricted
  9254  175C  00000003           	ddw	3	; NUM_RANGES
  9255  1760  000004B5           	ddw	__ccov153_start_blk2	; block 2 START_ADDR
  9256  1764  000004BA           	ddw	__ccov153_end_blk2	; block 2 END_ADDR
  9257  1768  000004B0           	ddw	__ccov152_start_blk1	; block 1 START_ADDR
  9258  176C  000004B5           	ddw	__ccov152_end_blk1	; block 1 END_ADDR
  9259  1770  000004A2           	ddw	_watch_dog_incrementing_timer	; block 0 START_ADDR
  9260  1774  000004B0           	ddw	__ccov151_end_blk0	; block 0 END_ADDR
  9261                           
  9262                           ; Function: watch_dog_incrementing_timer, coverage: 6,5,4,0
  9263  1778  00000000           	ddw	0	; CC_ADDR_SPACE=Data
  9264  177C  00000027           	ddw	__ccovbit6_21/(0+8)	; CC_ADDR
  9265  1780  00000001           	ddw	1	; NUM_POINTS
  9266  1784  00000005           	ddw	__ccovbit6_21& (0+7)	; OFFSET
  9267  1788  00000000           	ddw	0	; Reserved
  9268  178C  FFFFFFFF           	ddw	4294967295	; RANGE_SPACE=restricted
  9269  1790  00000004           	ddw	4	; NUM_RANGES
  9270  1794  000004CD           	ddw	__ccov156_start_blk6	; block 6 START_ADDR
  9271  1798  000004D2           	ddw	__ccov156_end_blk6	; block 6 END_ADDR
  9272  179C  000004C8           	ddw	__ccov155_start_blk5	; block 5 START_ADDR
  9273  17A0  000004CD           	ddw	__ccov155_end_blk5	; block 5 END_ADDR
  9274  17A4  000004BA           	ddw	__ccov154_start_blk4	; block 4 START_ADDR
  9275  17A8  000004C8           	ddw	__ccov154_end_blk4	; block 4 END_ADDR
  9276  17AC  000004A2           	ddw	_watch_dog_incrementing_timer	; block 0 START_ADDR
  9277  17B0  000004B0           	ddw	__ccov151_end_blk0	; block 0 END_ADDR
  9278                           
  9279                           ; Function: watch_dog_incrementing_timer, coverage: 10,9,8,4,0
  9280  17B4  00000000           	ddw	0	; CC_ADDR_SPACE=Data
  9281  17B8  00000027           	ddw	__ccovbit10_22/(0+8)	; CC_ADDR
  9282  17BC  00000001           	ddw	1	; NUM_POINTS
  9283  17C0  00000004           	ddw	__ccovbit10_22& (0+7)	; OFFSET
  9284  17C4  00000000           	ddw	0	; Reserved
  9285  17C8  FFFFFFFF           	ddw	4294967295	; RANGE_SPACE=restricted
  9286  17CC  00000005           	ddw	5	; NUM_RANGES
  9287  17D0  000004E5           	ddw	__ccov159_start_blk10	; block 10 START_ADDR
  9288  17D4  000004EA           	ddw	__ccov159_end_blk10	; block 10 END_ADDR
  9289  17D8  000004E0           	ddw	__ccov158_start_blk9	; block 9 START_ADDR
  9290  17DC  000004E5           	ddw	__ccov158_end_blk9	; block 9 END_ADDR
  9291  17E0  000004D2           	ddw	__ccov157_start_blk8	; block 8 START_ADDR
  9292  17E4  000004E0           	ddw	__ccov157_end_blk8	; block 8 END_ADDR
  9293  17E8  000004BA           	ddw	__ccov154_start_blk4	; block 4 START_ADDR
  9294  17EC  000004C8           	ddw	__ccov154_end_blk4	; block 4 END_ADDR
  9295  17F0  000004A2           	ddw	_watch_dog_incrementing_timer	; block 0 START_ADDR
  9296  17F4  000004B0           	ddw	__ccov151_end_blk0	; block 0 END_ADDR
  9297                           
  9298                           ; Function: watch_dog_incrementing_timer, coverage: 14,13,12,8,4,0
  9299  17F8  00000000           	ddw	0	; CC_ADDR_SPACE=Data
  9300  17FC  00000027           	ddw	__ccovbit14_23/(0+8)	; CC_ADDR
  9301  1800  00000001           	ddw	1	; NUM_POINTS
  9302  1804  00000003           	ddw	__ccovbit14_23& (0+7)	; OFFSET
  9303  1808  00000000           	ddw	0	; Reserved
  9304  180C  FFFFFFFF           	ddw	4294967295	; RANGE_SPACE=restricted
  9305  1810  00000006           	ddw	6	; NUM_RANGES
  9306  1814  000004FD           	ddw	__ccov162_start_blk14	; block 14 START_ADDR
  9307  1818  00000502           	ddw	__ccov162_end_blk14	; block 14 END_ADDR
  9308  181C  000004F8           	ddw	__ccov161_start_blk13	; block 13 START_ADDR
  9309  1820  000004FD           	ddw	__ccov161_end_blk13	; block 13 END_ADDR
  9310  1824  000004EA           	ddw	__ccov160_start_blk12	; block 12 START_ADDR
  9311  1828  000004F8           	ddw	__ccov160_end_blk12	; block 12 END_ADDR
  9312  182C  000004D2           	ddw	__ccov157_start_blk8	; block 8 START_ADDR
  9313  1830  000004E0           	ddw	__ccov157_end_blk8	; block 8 END_ADDR
  9314  1834  000004BA           	ddw	__ccov154_start_blk4	; block 4 START_ADDR
  9315  1838  000004C8           	ddw	__ccov154_end_blk4	; block 4 END_ADDR
  9316  183C  000004A2           	ddw	_watch_dog_incrementing_timer	; block 0 START_ADDR
  9317  1840  000004B0           	ddw	__ccov151_end_blk0	; block 0 END_ADDR
  9318                           
  9319                           ; Function: watch_dog_incrementing_timer, coverage: 18,17,16,12,8,4,0
  9320  1844  00000000           	ddw	0	; CC_ADDR_SPACE=Data
  9321  1848  00000027           	ddw	__ccovbit18_24/(0+8)	; CC_ADDR
  9322  184C  00000001           	ddw	1	; NUM_POINTS
  9323  1850  00000002           	ddw	__ccovbit18_24& (0+7)	; OFFSET
  9324  1854  00000000           	ddw	0	; Reserved
  9325  1858  FFFFFFFF           	ddw	4294967295	; RANGE_SPACE=restricted
  9326  185C  00000007           	ddw	7	; NUM_RANGES
  9327  1860  00000515           	ddw	__ccov165_start_blk18	; block 18 START_ADDR
  9328  1864  0000051A           	ddw	__ccov165_end_blk18	; block 18 END_ADDR
  9329  1868  00000510           	ddw	__ccov164_start_blk17	; block 17 START_ADDR
  9330  186C  00000515           	ddw	__ccov164_end_blk17	; block 17 END_ADDR
  9331  1870  00000502           	ddw	__ccov163_start_blk16	; block 16 START_ADDR
  9332  1874  00000510           	ddw	__ccov163_end_blk16	; block 16 END_ADDR
  9333  1878  000004EA           	ddw	__ccov160_start_blk12	; block 12 START_ADDR
  9334  187C  000004F8           	ddw	__ccov160_end_blk12	; block 12 END_ADDR
  9335  1880  000004D2           	ddw	__ccov157_start_blk8	; block 8 START_ADDR
  9336  1884  000004E0           	ddw	__ccov157_end_blk8	; block 8 END_ADDR
  9337  1888  000004BA           	ddw	__ccov154_start_blk4	; block 4 START_ADDR
  9338  188C  000004C8           	ddw	__ccov154_end_blk4	; block 4 END_ADDR
  9339  1890  000004A2           	ddw	_watch_dog_incrementing_timer	; block 0 START_ADDR
  9340  1894  000004B0           	ddw	__ccov151_end_blk0	; block 0 END_ADDR
  9341                           
  9342                           ; Function: watch_dog_incrementing_timer, coverage: 22,16,12,8,4,0
  9343  1898  00000000           	ddw	0	; CC_ADDR_SPACE=Data
  9344  189C  00000027           	ddw	__ccovbit22_25/(0+8)	; CC_ADDR
  9345  18A0  00000001           	ddw	1	; NUM_POINTS
  9346  18A4  00000001           	ddw	__ccovbit22_25& (0+7)	; OFFSET
  9347  18A8  00000000           	ddw	0	; Reserved
  9348  18AC  FFFFFFFF           	ddw	4294967295	; RANGE_SPACE=restricted
  9349  18B0  00000006           	ddw	6	; NUM_RANGES
  9350  18B4  0000051A           	ddw	__ccov166_start_blk22	; block 22 START_ADDR
  9351  18B8  0000051C           	ddw	__ccov166_end_blk22	; block 22 END_ADDR
  9352  18BC  00000502           	ddw	__ccov163_start_blk16	; block 16 START_ADDR
  9353  18C0  00000510           	ddw	__ccov163_end_blk16	; block 16 END_ADDR
  9354  18C4  000004EA           	ddw	__ccov160_start_blk12	; block 12 START_ADDR
  9355  18C8  000004F8           	ddw	__ccov160_end_blk12	; block 12 END_ADDR
  9356  18CC  000004D2           	ddw	__ccov157_start_blk8	; block 8 START_ADDR
  9357  18D0  000004E0           	ddw	__ccov157_end_blk8	; block 8 END_ADDR
  9358  18D4  000004BA           	ddw	__ccov154_start_blk4	; block 4 START_ADDR
  9359  18D8  000004C8           	ddw	__ccov154_end_blk4	; block 4 END_ADDR
  9360  18DC  000004A2           	ddw	_watch_dog_incrementing_timer	; block 0 START_ADDR
  9361  18E0  000004B0           	ddw	__ccov151_end_blk0	; block 0 END_ADDR
  9362                           
  9363                           ; Function: watch_dog_incrementing_timer, coverage: 24,0
  9364  18E4  00000000           	ddw	0	; CC_ADDR_SPACE=Data
  9365  18E8  00000027           	ddw	__ccovbit24_26/(0+8)	; CC_ADDR
  9366  18EC  00000001           	ddw	1	; NUM_POINTS
  9367  18F0  00000000           	ddw	__ccovbit24_26& (0+7)	; OFFSET
  9368  18F4  00000000           	ddw	0	; Reserved
  9369  18F8  FFFFFFFF           	ddw	4294967295	; RANGE_SPACE=restricted
  9370  18FC  00000002           	ddw	2	; NUM_RANGES
  9371  1900  0000051C           	ddw	__ccov167_start_blk24	; block 24 START_ADDR
  9372  1904  0000051F           	ddw	__end_of_watch_dog_incrementing_timer	; block 24 END_ADDR
  9373  1908  000004A2           	ddw	_watch_dog_incrementing_timer	; block 0 START_ADDR
  9374  190C  000004B0           	ddw	__ccov151_end_blk0	; block 0 END_ADDR
  9375                           
  9376                           ; Function: enable_external_interrupt, coverage: 1,0
  9377  1910  00000000           	ddw	0	; CC_ADDR_SPACE=Data
  9378  1914  00000026           	ddw	__ccovbit1_27/(0+8)	; CC_ADDR
  9379  1918  00000001           	ddw	1	; NUM_POINTS
  9380  191C  00000007           	ddw	__ccovbit1_27& (0+7)	; OFFSET
  9381  1920  00000000           	ddw	0	; Reserved
  9382  1924  FFFFFFFF           	ddw	4294967295	; RANGE_SPACE=restricted
  9383  1928  00000002           	ddw	2	; NUM_RANGES
  9384  192C  00000F11           	ddw	__ccov169_start_blk1	; block 1 START_ADDR
  9385  1930  00000F14           	ddw	__end_of_enable_external_interrupt	; block 1 END_ADDR
  9386  1934  00000F10           	ddw	_enable_external_interrupt	; block 0 START_ADDR
  9387  1938  00000F11           	ddw	__ccov168_end_blk0	; block 0 END_ADDR
  9388                           
  9389                           ; Function: disable_external_interrupt, coverage: 1,0
  9390  193C  00000000           	ddw	0	; CC_ADDR_SPACE=Data
  9391  1940  00000026           	ddw	__ccovbit1_28/(0+8)	; CC_ADDR
  9392  1944  00000001           	ddw	1	; NUM_POINTS
  9393  1948  00000006           	ddw	__ccovbit1_28& (0+7)	; OFFSET
  9394  194C  00000000           	ddw	0	; Reserved
  9395  1950  FFFFFFFF           	ddw	4294967295	; RANGE_SPACE=restricted
  9396  1954  00000002           	ddw	2	; NUM_RANGES
  9397  1958  00000F0D           	ddw	__ccov171_start_blk1	; block 1 START_ADDR
  9398  195C  00000F10           	ddw	__end_of_disable_external_interrupt	; block 1 END_ADDR
  9399  1960  00000F0C           	ddw	_disable_external_interrupt	; block 0 START_ADDR
  9400  1964  00000F0D           	ddw	__ccov170_end_blk0	; block 0 END_ADDR
  9401                           
  9402                           ; Function: my_isr, coverage: 1,0
  9403  1968  00000000           	ddw	0	; CC_ADDR_SPACE=Data
  9404  196C  00000026           	ddw	__ccovbit1_29/(0+8)	; CC_ADDR
  9405  1970  00000001           	ddw	1	; NUM_POINTS
  9406  1974  00000005           	ddw	__ccovbit1_29& (0+7)	; OFFSET
  9407  1978  00000000           	ddw	0	; Reserved
  9408  197C  FFFFFFFF           	ddw	4294967295	; RANGE_SPACE=restricted
  9409  1980  00000002           	ddw	2	; NUM_RANGES
  9410  1984  0000000A           	ddw	__ccov175_start_blk1	; block 1 START_ADDR
  9411  1988  00000011           	ddw	__ccov175_end_blk1	; block 1 END_ADDR
  9412  198C  00000004           	ddw	_my_isr	; block 0 START_ADDR
  9413  1990  0000000A           	ddw	__ccov174_end_blk0	; block 0 END_ADDR
  9414                           
  9415                           ; Function: my_isr, coverage: 3,10,1,0
  9416  1994  00000000           	ddw	0	; CC_ADDR_SPACE=Data
  9417  1998  00000026           	ddw	__ccovbit3_30/(0+8)	; CC_ADDR
  9418  199C  00000001           	ddw	1	; NUM_POINTS
  9419  19A0  00000004           	ddw	__ccovbit3_30& (0+7)	; OFFSET
  9420  19A4  00000000           	ddw	0	; Reserved
  9421  19A8  FFFFFFFF           	ddw	4294967295	; RANGE_SPACE=restricted
  9422  19AC  00000004           	ddw	4	; NUM_RANGES
  9423  19B0  00000011           	ddw	__ccov176_start_blk3	; block 3 START_ADDR
  9424  19B4  0000001B           	ddw	__ccov176_end_blk3	; block 3 END_ADDR
  9425  19B8  00000023           	ddw	__ccov180_start_blk10	; block 10 START_ADDR
  9426  19BC  00000035           	ddw	__ccov180_end_blk10	; block 10 END_ADDR
  9427  19C0  0000000A           	ddw	__ccov175_start_blk1	; block 1 START_ADDR
  9428  19C4  00000011           	ddw	__ccov175_end_blk1	; block 1 END_ADDR
  9429  19C8  00000004           	ddw	_my_isr	; block 0 START_ADDR
  9430  19CC  0000000A           	ddw	__ccov174_end_blk0	; block 0 END_ADDR
  9431                           
  9432                           ; Function: my_isr, coverage: 7,6,5,10,1,0
  9433  19D0  00000000           	ddw	0	; CC_ADDR_SPACE=Data
  9434  19D4  00000026           	ddw	__ccovbit7_31/(0+8)	; CC_ADDR
  9435  19D8  00000001           	ddw	1	; NUM_POINTS
  9436  19DC  00000003           	ddw	__ccovbit7_31& (0+7)	; OFFSET
  9437  19E0  00000000           	ddw	0	; Reserved
  9438  19E4  FFFFFFFF           	ddw	4294967295	; RANGE_SPACE=restricted
  9439  19E8  00000006           	ddw	6	; NUM_RANGES
  9440  19EC  0000001E           	ddw	__ccov179_start_blk7	; block 7 START_ADDR
  9441  19F0  00000023           	ddw	__ccov179_end_blk7	; block 7 END_ADDR
  9442  19F4  0000001C           	ddw	__ccov178_start_blk6	; block 6 START_ADDR
  9443  19F8  0000001E           	ddw	__ccov178_end_blk6	; block 6 END_ADDR
  9444  19FC  0000001B           	ddw	__ccov177_start_blk5	; block 5 START_ADDR
  9445  1A00  0000001C           	ddw	__ccov177_end_blk5	; block 5 END_ADDR
  9446  1A04  00000023           	ddw	__ccov180_start_blk10	; block 10 START_ADDR
  9447  1A08  00000035           	ddw	__ccov180_end_blk10	; block 10 END_ADDR
  9448  1A0C  0000000A           	ddw	__ccov175_start_blk1	; block 1 START_ADDR
  9449  1A10  00000011           	ddw	__ccov175_end_blk1	; block 1 END_ADDR
  9450  1A14  00000004           	ddw	_my_isr	; block 0 START_ADDR
  9451  1A18  0000000A           	ddw	__ccov174_end_blk0	; block 0 END_ADDR
  9452                           
  9453                           ; Function: my_isr, coverage: 11,10,1,0
  9454  1A1C  00000000           	ddw	0	; CC_ADDR_SPACE=Data
  9455  1A20  00000026           	ddw	__ccovbit11_32/(0+8)	; CC_ADDR
  9456  1A24  00000001           	ddw	1	; NUM_POINTS
  9457  1A28  00000002           	ddw	__ccovbit11_32& (0+7)	; OFFSET
  9458  1A2C  00000000           	ddw	0	; Reserved
  9459  1A30  FFFFFFFF           	ddw	4294967295	; RANGE_SPACE=restricted
  9460  1A34  00000004           	ddw	4	; NUM_RANGES
  9461  1A38  00000035           	ddw	__ccov181_start_blk11	; block 11 START_ADDR
  9462  1A3C  00000038           	ddw	__ccov181_end_blk11	; block 11 END_ADDR
  9463  1A40  00000023           	ddw	__ccov180_start_blk10	; block 10 START_ADDR
  9464  1A44  00000035           	ddw	__ccov180_end_blk10	; block 10 END_ADDR
  9465  1A48  0000000A           	ddw	__ccov175_start_blk1	; block 1 START_ADDR
  9466  1A4C  00000011           	ddw	__ccov175_end_blk1	; block 1 END_ADDR
  9467  1A50  00000004           	ddw	_my_isr	; block 0 START_ADDR
  9468  1A54  0000000A           	ddw	__ccov174_end_blk0	; block 0 END_ADDR
  9469                           
  9470                           ; Function: my_isr, coverage: 13,12,0
  9471  1A58  00000000           	ddw	0	; CC_ADDR_SPACE=Data
  9472  1A5C  00000026           	ddw	__ccovbit13_33/(0+8)	; CC_ADDR
  9473  1A60  00000001           	ddw	1	; NUM_POINTS
  9474  1A64  00000001           	ddw	__ccovbit13_33& (0+7)	; OFFSET
  9475  1A68  00000000           	ddw	0	; Reserved
  9476  1A6C  FFFFFFFF           	ddw	4294967295	; RANGE_SPACE=restricted
  9477  1A70  00000003           	ddw	3	; NUM_RANGES
  9478  1A74  0000003D           	ddw	__ccov183_start_blk13	; block 13 START_ADDR
  9479  1A78  00000043           	ddw	__ccov183_end_blk13	; block 13 END_ADDR
  9480  1A7C  00000038           	ddw	__ccov182_start_blk12	; block 12 START_ADDR
  9481  1A80  0000003D           	ddw	__ccov182_end_blk12	; block 12 END_ADDR
  9482  1A84  00000004           	ddw	_my_isr	; block 0 START_ADDR
  9483  1A88  0000000A           	ddw	__ccov174_end_blk0	; block 0 END_ADDR
  9484                           
  9485                           ; Function: my_isr, coverage: 15,14,13,12,0
  9486  1A8C  00000000           	ddw	0	; CC_ADDR_SPACE=Data
  9487  1A90  00000026           	ddw	__ccovbit15_34/(0+8)	; CC_ADDR
  9488  1A94  00000001           	ddw	1	; NUM_POINTS
  9489  1A98  00000000           	ddw	__ccovbit15_34& (0+7)	; OFFSET
  9490  1A9C  00000000           	ddw	0	; Reserved
  9491  1AA0  FFFFFFFF           	ddw	4294967295	; RANGE_SPACE=restricted
  9492  1AA4  00000005           	ddw	5	; NUM_RANGES
  9493  1AA8  00000050           	ddw	__ccov185_start_blk15	; block 15 START_ADDR
  9494  1AAC  00000056           	ddw	__ccov185_end_blk15	; block 15 END_ADDR
  9495  1AB0  00000043           	ddw	__ccov184_start_blk14	; block 14 START_ADDR
  9496  1AB4  00000050           	ddw	__ccov184_end_blk14	; block 14 END_ADDR
  9497  1AB8  0000003D           	ddw	__ccov183_start_blk13	; block 13 START_ADDR
  9498  1ABC  00000043           	ddw	__ccov183_end_blk13	; block 13 END_ADDR
  9499  1AC0  00000038           	ddw	__ccov182_start_blk12	; block 12 START_ADDR
  9500  1AC4  0000003D           	ddw	__ccov182_end_blk12	; block 12 END_ADDR
  9501  1AC8  00000004           	ddw	_my_isr	; block 0 START_ADDR
  9502  1ACC  0000000A           	ddw	__ccov174_end_blk0	; block 0 END_ADDR
  9503                           
  9504                           ; Function: my_isr, coverage: 17,16,14,13,12,0
  9505  1AD0  00000000           	ddw	0	; CC_ADDR_SPACE=Data
  9506  1AD4  00000025           	ddw	__ccovbit17_35/(0+8)	; CC_ADDR
  9507  1AD8  00000001           	ddw	1	; NUM_POINTS
  9508  1ADC  00000007           	ddw	__ccovbit17_35& (0+7)	; OFFSET
  9509  1AE0  00000000           	ddw	0	; Reserved
  9510  1AE4  FFFFFFFF           	ddw	4294967295	; RANGE_SPACE=restricted
  9511  1AE8  00000006           	ddw	6	; NUM_RANGES
  9512  1AEC  00000064           	ddw	__ccov187_start_blk17	; block 17 START_ADDR
  9513  1AF0  0000006A           	ddw	__ccov187_end_blk17	; block 17 END_ADDR
  9514  1AF4  00000056           	ddw	__ccov186_start_blk16	; block 16 START_ADDR
  9515  1AF8  00000064           	ddw	__ccov186_end_blk16	; block 16 END_ADDR
  9516  1AFC  00000043           	ddw	__ccov184_start_blk14	; block 14 START_ADDR
  9517  1B00  00000050           	ddw	__ccov184_end_blk14	; block 14 END_ADDR
  9518  1B04  0000003D           	ddw	__ccov183_start_blk13	; block 13 START_ADDR
  9519  1B08  00000043           	ddw	__ccov183_end_blk13	; block 13 END_ADDR
  9520  1B0C  00000038           	ddw	__ccov182_start_blk12	; block 12 START_ADDR
  9521  1B10  0000003D           	ddw	__ccov182_end_blk12	; block 12 END_ADDR
  9522  1B14  00000004           	ddw	_my_isr	; block 0 START_ADDR
  9523  1B18  0000000A           	ddw	__ccov174_end_blk0	; block 0 END_ADDR
  9524                           
  9525                           ; Function: my_isr, coverage: 19,16,14,13,12,0
  9526  1B1C  00000000           	ddw	0	; CC_ADDR_SPACE=Data
  9527  1B20  00000025           	ddw	__ccovbit19_36/(0+8)	; CC_ADDR
  9528  1B24  00000001           	ddw	1	; NUM_POINTS
  9529  1B28  00000006           	ddw	__ccovbit19_36& (0+7)	; OFFSET
  9530  1B2C  00000000           	ddw	0	; Reserved
  9531  1B30  FFFFFFFF           	ddw	4294967295	; RANGE_SPACE=restricted
  9532  1B34  00000006           	ddw	6	; NUM_RANGES
  9533  1B38  0000006A           	ddw	__ccov188_start_blk19	; block 19 START_ADDR
  9534  1B3C  0000006D           	ddw	__ccov188_end_blk19	; block 19 END_ADDR
  9535  1B40  00000056           	ddw	__ccov186_start_blk16	; block 16 START_ADDR
  9536  1B44  00000064           	ddw	__ccov186_end_blk16	; block 16 END_ADDR
  9537  1B48  00000043           	ddw	__ccov184_start_blk14	; block 14 START_ADDR
  9538  1B4C  00000050           	ddw	__ccov184_end_blk14	; block 14 END_ADDR
  9539  1B50  0000003D           	ddw	__ccov183_start_blk13	; block 13 START_ADDR
  9540  1B54  00000043           	ddw	__ccov183_end_blk13	; block 13 END_ADDR
  9541  1B58  00000038           	ddw	__ccov182_start_blk12	; block 12 START_ADDR
  9542  1B5C  0000003D           	ddw	__ccov182_end_blk12	; block 12 END_ADDR
  9543  1B60  00000004           	ddw	_my_isr	; block 0 START_ADDR
  9544  1B64  0000000A           	ddw	__ccov174_end_blk0	; block 0 END_ADDR
  9545                           
  9546                           ; Function: my_isr, coverage: 22,12,0
  9547  1B68  00000000           	ddw	0	; CC_ADDR_SPACE=Data
  9548  1B6C  00000025           	ddw	__ccovbit22_37/(0+8)	; CC_ADDR
  9549  1B70  00000001           	ddw	1	; NUM_POINTS
  9550  1B74  00000005           	ddw	__ccovbit22_37& (0+7)	; OFFSET
  9551  1B78  00000000           	ddw	0	; Reserved
  9552  1B7C  FFFFFFFF           	ddw	4294967295	; RANGE_SPACE=restricted
  9553  1B80  00000003           	ddw	3	; NUM_RANGES
  9554  1B84  0000006D           	ddw	__ccov189_start_blk22	; block 22 START_ADDR
  9555  1B88  00000071           	ddw	__end_of_my_isr	; block 22 END_ADDR
  9556  1B8C  00000038           	ddw	__ccov182_start_blk12	; block 12 START_ADDR
  9557  1B90  0000003D           	ddw	__ccov182_end_blk12	; block 12 END_ADDR
  9558  1B94  00000004           	ddw	_my_isr	; block 0 START_ADDR
  9559  1B98  0000000A           	ddw	__ccov174_end_blk0	; block 0 END_ADDR
  9560                           
  9561                           ; Function: checkState1, coverage: 4,3,2,106,0
  9562  1B9C  00000000           	ddw	0	; CC_ADDR_SPACE=Data
  9563  1BA0  00000025           	ddw	__ccovbit4_38/(0+8)	; CC_ADDR
  9564  1BA4  00000001           	ddw	1	; NUM_POINTS
  9565  1BA8  00000004           	ddw	__ccovbit4_38& (0+7)	; OFFSET
  9566  1BAC  00000000           	ddw	0	; Reserved
  9567  1BB0  FFFFFFFF           	ddw	4294967295	; RANGE_SPACE=restricted
  9568  1BB4  00000005           	ddw	5	; NUM_RANGES
  9569  1BB8  000000A2           	ddw	__ccov193_start_blk4	; block 4 START_ADDR
  9570  1BBC  000000AA           	ddw	__ccov193_end_blk4	; block 4 END_ADDR
  9571  1BC0  0000009D           	ddw	__ccov192_start_blk3	; block 3 START_ADDR
  9572  1BC4  000000A2           	ddw	__ccov192_end_blk3	; block 3 END_ADDR
  9573  1BC8  00000097           	ddw	__ccov191_start_blk2	; block 2 START_ADDR
  9574  1BCC  0000009D           	ddw	__ccov191_end_blk2	; block 2 END_ADDR
  9575  1BD0  0000027E           	ddw	__ccov259_start_blk106	; block 106 START_ADDR
  9576  1BD4  000002AA           	ddw	__ccov259_end_blk106	; block 106 END_ADDR
  9577  1BD8  00000096           	ddw	_checkState1	; block 0 START_ADDR
  9578  1BDC  00000097           	ddw	__ccov190_end_blk0	; block 0 END_ADDR
  9579                           
  9580                           ; Function: checkState1, coverage: 5,106,0
  9581  1BE0  00000000           	ddw	0	; CC_ADDR_SPACE=Data
  9582  1BE4  00000025           	ddw	__ccovbit5_39/(0+8)	; CC_ADDR
  9583  1BE8  00000001           	ddw	1	; NUM_POINTS
  9584  1BEC  00000003           	ddw	__ccovbit5_39& (0+7)	; OFFSET
  9585  1BF0  00000000           	ddw	0	; Reserved
  9586  1BF4  FFFFFFFF           	ddw	4294967295	; RANGE_SPACE=restricted
  9587  1BF8  00000003           	ddw	3	; NUM_RANGES
  9588  1BFC  000000AA           	ddw	__ccov194_start_blk5	; block 5 START_ADDR
  9589  1C00  000000B1           	ddw	__ccov194_end_blk5	; block 5 END_ADDR
  9590  1C04  0000027E           	ddw	__ccov259_start_blk106	; block 106 START_ADDR
  9591  1C08  000002AA           	ddw	__ccov259_end_blk106	; block 106 END_ADDR
  9592  1C0C  00000096           	ddw	_checkState1	; block 0 START_ADDR
  9593  1C10  00000097           	ddw	__ccov190_end_blk0	; block 0 END_ADDR
  9594                           
  9595                           ; Function: checkState1, coverage: 11,10,9,8,7,106,0
  9596  1C14  00000000           	ddw	0	; CC_ADDR_SPACE=Data
  9597  1C18  00000025           	ddw	__ccovbit11_40/(0+8)	; CC_ADDR
  9598  1C1C  00000001           	ddw	1	; NUM_POINTS
  9599  1C20  00000002           	ddw	__ccovbit11_40& (0+7)	; OFFSET
  9600  1C24  00000000           	ddw	0	; Reserved
  9601  1C28  FFFFFFFF           	ddw	4294967295	; RANGE_SPACE=restricted
  9602  1C2C  00000007           	ddw	7	; NUM_RANGES
  9603  1C30  000000C5           	ddw	__ccov199_start_blk11	; block 11 START_ADDR
  9604  1C34  000000CE           	ddw	__ccov199_end_blk11	; block 11 END_ADDR
  9605  1C38  000000C1           	ddw	__ccov198_start_blk10	; block 10 START_ADDR
  9606  1C3C  000000C5           	ddw	__ccov198_end_blk10	; block 10 END_ADDR
  9607  1C40  000000BC           	ddw	__ccov197_start_blk9	; block 9 START_ADDR
  9608  1C44  000000C1           	ddw	__ccov197_end_blk9	; block 9 END_ADDR
  9609  1C48  000000B9           	ddw	__ccov196_start_blk8	; block 8 START_ADDR
  9610  1C4C  000000BC           	ddw	__ccov196_end_blk8	; block 8 END_ADDR
  9611  1C50  000000B1           	ddw	__ccov195_start_blk7	; block 7 START_ADDR
  9612  1C54  000000B9           	ddw	__ccov195_end_blk7	; block 7 END_ADDR
  9613  1C58  0000027E           	ddw	__ccov259_start_blk106	; block 106 START_ADDR
  9614  1C5C  000002AA           	ddw	__ccov259_end_blk106	; block 106 END_ADDR
  9615  1C60  00000096           	ddw	_checkState1	; block 0 START_ADDR
  9616  1C64  00000097           	ddw	__ccov190_end_blk0	; block 0 END_ADDR
  9617                           
  9618                           ; Function: checkState1, coverage: 16,15,14,13,106,0
  9619  1C68  00000000           	ddw	0	; CC_ADDR_SPACE=Data
  9620  1C6C  00000025           	ddw	__ccovbit16_41/(0+8)	; CC_ADDR
  9621  1C70  00000001           	ddw	1	; NUM_POINTS
  9622  1C74  00000001           	ddw	__ccovbit16_41& (0+7)	; OFFSET
  9623  1C78  00000000           	ddw	0	; Reserved
  9624  1C7C  FFFFFFFF           	ddw	4294967295	; RANGE_SPACE=restricted
  9625  1C80  00000006           	ddw	6	; NUM_RANGES
  9626  1C84  000000E2           	ddw	__ccov203_start_blk16	; block 16 START_ADDR
  9627  1C88  000000EB           	ddw	__ccov203_end_blk16	; block 16 END_ADDR
  9628  1C8C  000000DE           	ddw	__ccov202_start_blk15	; block 15 START_ADDR
  9629  1C90  000000E2           	ddw	__ccov202_end_blk15	; block 15 END_ADDR
  9630  1C94  000000D5           	ddw	__ccov201_start_blk14	; block 14 START_ADDR
  9631  1C98  000000DE           	ddw	__ccov201_end_blk14	; block 14 END_ADDR
  9632  1C9C  000000CE           	ddw	__ccov200_start_blk13	; block 13 START_ADDR
  9633  1CA0  000000D5           	ddw	__ccov200_end_blk13	; block 13 END_ADDR
  9634  1CA4  0000027E           	ddw	__ccov259_start_blk106	; block 106 START_ADDR
  9635  1CA8  000002AA           	ddw	__ccov259_end_blk106	; block 106 END_ADDR
  9636  1CAC  00000096           	ddw	_checkState1	; block 0 START_ADDR
  9637  1CB0  00000097           	ddw	__ccov190_end_blk0	; block 0 END_ADDR
  9638                           
  9639                           ; Function: checkState1, coverage: 22,21,20,19,18,14,13,106,0
  9640  1CB4  00000000           	ddw	0	; CC_ADDR_SPACE=Data
  9641  1CB8  00000025           	ddw	__ccovbit22_42/(0+8)	; CC_ADDR
  9642  1CBC  00000001           	ddw	1	; NUM_POINTS
  9643  1CC0  00000000           	ddw	__ccovbit22_42& (0+7)	; OFFSET
  9644  1CC4  00000000           	ddw	0	; Reserved
  9645  1CC8  FFFFFFFF           	ddw	4294967295	; RANGE_SPACE=restricted
  9646  1CCC  00000009           	ddw	9	; NUM_RANGES
  9647  1CD0  000000FB           	ddw	__ccov208_start_blk22	; block 22 START_ADDR
  9648  1CD4  00000104           	ddw	__ccov208_end_blk22	; block 22 END_ADDR
  9649  1CD8  000000F7           	ddw	__ccov207_start_blk21	; block 21 START_ADDR
  9650  1CDC  000000FB           	ddw	__ccov207_end_blk21	; block 21 END_ADDR
  9651  1CE0  000000F3           	ddw	__ccov206_start_blk20	; block 20 START_ADDR
  9652  1CE4  000000F7           	ddw	__ccov206_end_blk20	; block 20 END_ADDR
  9653  1CE8  000000EF           	ddw	__ccov205_start_blk19	; block 19 START_ADDR
  9654  1CEC  000000F3           	ddw	__ccov205_end_blk19	; block 19 END_ADDR
  9655  1CF0  000000EB           	ddw	__ccov204_start_blk18	; block 18 START_ADDR
  9656  1CF4  000000EF           	ddw	__ccov204_end_blk18	; block 18 END_ADDR
  9657  1CF8  000000D5           	ddw	__ccov201_start_blk14	; block 14 START_ADDR
  9658  1CFC  000000DE           	ddw	__ccov201_end_blk14	; block 14 END_ADDR
  9659  1D00  000000CE           	ddw	__ccov200_start_blk13	; block 13 START_ADDR
  9660  1D04  000000D5           	ddw	__ccov200_end_blk13	; block 13 END_ADDR
  9661  1D08  0000027E           	ddw	__ccov259_start_blk106	; block 106 START_ADDR
  9662  1D0C  000002AA           	ddw	__ccov259_end_blk106	; block 106 END_ADDR
  9663  1D10  00000096           	ddw	_checkState1	; block 0 START_ADDR
  9664  1D14  00000097           	ddw	__ccov190_end_blk0	; block 0 END_ADDR
  9665                           
  9666                           ; Function: checkState1, coverage: 26,25,106,0
  9667  1D18  00000000           	ddw	0	; CC_ADDR_SPACE=Data
  9668  1D1C  00000024           	ddw	__ccovbit26_43/(0+8)	; CC_ADDR
  9669  1D20  00000001           	ddw	1	; NUM_POINTS
  9670  1D24  00000007           	ddw	__ccovbit26_43& (0+7)	; OFFSET
  9671  1D28  00000000           	ddw	0	; Reserved
  9672  1D2C  FFFFFFFF           	ddw	4294967295	; RANGE_SPACE=restricted
  9673  1D30  00000004           	ddw	4	; NUM_RANGES
  9674  1D34  00000111           	ddw	__ccov210_start_blk26	; block 26 START_ADDR
  9675  1D38  00000118           	ddw	__ccov210_end_blk26	; block 26 END_ADDR
  9676  1D3C  00000104           	ddw	__ccov209_start_blk25	; block 25 START_ADDR
  9677  1D40  00000111           	ddw	__ccov209_end_blk25	; block 25 END_ADDR
  9678  1D44  0000027E           	ddw	__ccov259_start_blk106	; block 106 START_ADDR
  9679  1D48  000002AA           	ddw	__ccov259_end_blk106	; block 106 END_ADDR
  9680  1D4C  00000096           	ddw	_checkState1	; block 0 START_ADDR
  9681  1D50  00000097           	ddw	__ccov190_end_blk0	; block 0 END_ADDR
  9682                           
  9683                           ; Function: checkState1, coverage: 28,25,106,0
  9684  1D54  00000000           	ddw	0	; CC_ADDR_SPACE=Data
  9685  1D58  00000024           	ddw	__ccovbit28_44/(0+8)	; CC_ADDR
  9686  1D5C  00000001           	ddw	1	; NUM_POINTS
  9687  1D60  00000006           	ddw	__ccovbit28_44& (0+7)	; OFFSET
  9688  1D64  00000000           	ddw	0	; Reserved
  9689  1D68  FFFFFFFF           	ddw	4294967295	; RANGE_SPACE=restricted
  9690  1D6C  00000004           	ddw	4	; NUM_RANGES
  9691  1D70  00000118           	ddw	__ccov211_start_blk28	; block 28 START_ADDR
  9692  1D74  0000011E           	ddw	__ccov211_end_blk28	; block 28 END_ADDR
  9693  1D78  00000104           	ddw	__ccov209_start_blk25	; block 25 START_ADDR
  9694  1D7C  00000111           	ddw	__ccov209_end_blk25	; block 25 END_ADDR
  9695  1D80  0000027E           	ddw	__ccov259_start_blk106	; block 106 START_ADDR
  9696  1D84  000002AA           	ddw	__ccov259_end_blk106	; block 106 END_ADDR
  9697  1D88  00000096           	ddw	_checkState1	; block 0 START_ADDR
  9698  1D8C  00000097           	ddw	__ccov190_end_blk0	; block 0 END_ADDR
  9699                           
  9700                           ; Function: checkState1, coverage: 30,25,106,0
  9701  1D90  00000000           	ddw	0	; CC_ADDR_SPACE=Data
  9702  1D94  00000024           	ddw	__ccovbit30_45/(0+8)	; CC_ADDR
  9703  1D98  00000001           	ddw	1	; NUM_POINTS
  9704  1D9C  00000005           	ddw	__ccovbit30_45& (0+7)	; OFFSET
  9705  1DA0  00000000           	ddw	0	; Reserved
  9706  1DA4  FFFFFFFF           	ddw	4294967295	; RANGE_SPACE=restricted
  9707  1DA8  00000004           	ddw	4	; NUM_RANGES
  9708  1DAC  0000011E           	ddw	__ccov212_start_blk30	; block 30 START_ADDR
  9709  1DB0  00000127           	ddw	__ccov212_end_blk30	; block 30 END_ADDR
  9710  1DB4  00000104           	ddw	__ccov209_start_blk25	; block 25 START_ADDR
  9711  1DB8  00000111           	ddw	__ccov209_end_blk25	; block 25 END_ADDR
  9712  1DBC  0000027E           	ddw	__ccov259_start_blk106	; block 106 START_ADDR
  9713  1DC0  000002AA           	ddw	__ccov259_end_blk106	; block 106 END_ADDR
  9714  1DC4  00000096           	ddw	_checkState1	; block 0 START_ADDR
  9715  1DC8  00000097           	ddw	__ccov190_end_blk0	; block 0 END_ADDR
  9716                           
  9717                           ; Function: checkState1, coverage: 37,36,46,35,34,33,32,106,0
  9718  1DCC  00000000           	ddw	0	; CC_ADDR_SPACE=Data
  9719  1DD0  00000024           	ddw	__ccovbit37_46/(0+8)	; CC_ADDR
  9720  1DD4  00000001           	ddw	1	; NUM_POINTS
  9721  1DD8  00000004           	ddw	__ccovbit37_46& (0+7)	; OFFSET
  9722  1DDC  00000000           	ddw	0	; Reserved
  9723  1DE0  FFFFFFFF           	ddw	4294967295	; RANGE_SPACE=restricted
  9724  1DE4  00000009           	ddw	9	; NUM_RANGES
  9725  1DE8  00000140           	ddw	__ccov218_start_blk37	; block 37 START_ADDR
  9726  1DEC  0000014A           	ddw	__ccov218_end_blk37	; block 37 END_ADDR
  9727  1DF0  0000013E           	ddw	__ccov217_start_blk36	; block 36 START_ADDR
  9728  1DF4  00000140           	ddw	__ccov217_end_blk36	; block 36 END_ADDR
  9729  1DF8  00000156           	ddw	__ccov221_start_blk46	; block 46 START_ADDR
  9730  1DFC  00000169           	ddw	__ccov221_end_blk46	; block 46 END_ADDR
  9731  1E00  00000139           	ddw	__ccov216_start_blk35	; block 35 START_ADDR
  9732  1E04  0000013E           	ddw	__ccov216_end_blk35	; block 35 END_ADDR
  9733  1E08  00000132           	ddw	__ccov215_start_blk34	; block 34 START_ADDR
  9734  1E0C  00000139           	ddw	__ccov215_end_blk34	; block 34 END_ADDR
  9735  1E10  0000012B           	ddw	__ccov214_start_blk33	; block 33 START_ADDR
  9736  1E14  00000132           	ddw	__ccov214_end_blk33	; block 33 END_ADDR
  9737  1E18  00000127           	ddw	__ccov213_start_blk32	; block 32 START_ADDR
  9738  1E1C  0000012B           	ddw	__ccov213_end_blk32	; block 32 END_ADDR
  9739  1E20  0000027E           	ddw	__ccov259_start_blk106	; block 106 START_ADDR
  9740  1E24  000002AA           	ddw	__ccov259_end_blk106	; block 106 END_ADDR
  9741  1E28  00000096           	ddw	_checkState1	; block 0 START_ADDR
  9742  1E2C  00000097           	ddw	__ccov190_end_blk0	; block 0 END_ADDR
  9743                           
  9744                           ; Function: checkState1, coverage: 39,38,46,35,34,33,32,106,0
  9745  1E30  00000000           	ddw	0	; CC_ADDR_SPACE=Data
  9746  1E34  00000024           	ddw	__ccovbit39_47/(0+8)	; CC_ADDR
  9747  1E38  00000001           	ddw	1	; NUM_POINTS
  9748  1E3C  00000003           	ddw	__ccovbit39_47& (0+7)	; OFFSET
  9749  1E40  00000000           	ddw	0	; Reserved
  9750  1E44  FFFFFFFF           	ddw	4294967295	; RANGE_SPACE=restricted
  9751  1E48  00000009           	ddw	9	; NUM_RANGES
  9752  1E4C  0000014C           	ddw	__ccov220_start_blk39	; block 39 START_ADDR
  9753  1E50  00000156           	ddw	__ccov220_end_blk39	; block 39 END_ADDR
  9754  1E54  0000014A           	ddw	__ccov219_start_blk38	; block 38 START_ADDR
  9755  1E58  0000014C           	ddw	__ccov219_end_blk38	; block 38 END_ADDR
  9756  1E5C  00000156           	ddw	__ccov221_start_blk46	; block 46 START_ADDR
  9757  1E60  00000169           	ddw	__ccov221_end_blk46	; block 46 END_ADDR
  9758  1E64  00000139           	ddw	__ccov216_start_blk35	; block 35 START_ADDR
  9759  1E68  0000013E           	ddw	__ccov216_end_blk35	; block 35 END_ADDR
  9760  1E6C  00000132           	ddw	__ccov215_start_blk34	; block 34 START_ADDR
  9761  1E70  00000139           	ddw	__ccov215_end_blk34	; block 34 END_ADDR
  9762  1E74  0000012B           	ddw	__ccov214_start_blk33	; block 33 START_ADDR
  9763  1E78  00000132           	ddw	__ccov214_end_blk33	; block 33 END_ADDR
  9764  1E7C  00000127           	ddw	__ccov213_start_blk32	; block 32 START_ADDR
  9765  1E80  0000012B           	ddw	__ccov213_end_blk32	; block 32 END_ADDR
  9766  1E84  0000027E           	ddw	__ccov259_start_blk106	; block 106 START_ADDR
  9767  1E88  000002AA           	ddw	__ccov259_end_blk106	; block 106 END_ADDR
  9768  1E8C  00000096           	ddw	_checkState1	; block 0 START_ADDR
  9769  1E90  00000097           	ddw	__ccov190_end_blk0	; block 0 END_ADDR
  9770                           
  9771                           ; Function: checkState1, coverage: 48,46,35,34,33,32,106,0
  9772  1E94  00000000           	ddw	0	; CC_ADDR_SPACE=Data
  9773  1E98  00000024           	ddw	__ccovbit48_48/(0+8)	; CC_ADDR
  9774  1E9C  00000001           	ddw	1	; NUM_POINTS
  9775  1EA0  00000002           	ddw	__ccovbit48_48& (0+7)	; OFFSET
  9776  1EA4  00000000           	ddw	0	; Reserved
  9777  1EA8  FFFFFFFF           	ddw	4294967295	; RANGE_SPACE=restricted
  9778  1EAC  00000008           	ddw	8	; NUM_RANGES
  9779  1EB0  00000169           	ddw	__ccov222_start_blk48	; block 48 START_ADDR
  9780  1EB4  00000174           	ddw	__ccov222_end_blk48	; block 48 END_ADDR
  9781  1EB8  00000156           	ddw	__ccov221_start_blk46	; block 46 START_ADDR
  9782  1EBC  00000169           	ddw	__ccov221_end_blk46	; block 46 END_ADDR
  9783  1EC0  00000139           	ddw	__ccov216_start_blk35	; block 35 START_ADDR
  9784  1EC4  0000013E           	ddw	__ccov216_end_blk35	; block 35 END_ADDR
  9785  1EC8  00000132           	ddw	__ccov215_start_blk34	; block 34 START_ADDR
  9786  1ECC  00000139           	ddw	__ccov215_end_blk34	; block 34 END_ADDR
  9787  1ED0  0000012B           	ddw	__ccov214_start_blk33	; block 33 START_ADDR
  9788  1ED4  00000132           	ddw	__ccov214_end_blk33	; block 33 END_ADDR
  9789  1ED8  00000127           	ddw	__ccov213_start_blk32	; block 32 START_ADDR
  9790  1EDC  0000012B           	ddw	__ccov213_end_blk32	; block 32 END_ADDR
  9791  1EE0  0000027E           	ddw	__ccov259_start_blk106	; block 106 START_ADDR
  9792  1EE4  000002AA           	ddw	__ccov259_end_blk106	; block 106 END_ADDR
  9793  1EE8  00000096           	ddw	_checkState1	; block 0 START_ADDR
  9794  1EEC  00000097           	ddw	__ccov190_end_blk0	; block 0 END_ADDR
  9795                           
  9796                           ; Function: checkState1, coverage: 52,51,50,34,33,32,106,0
  9797  1EF0  00000000           	ddw	0	; CC_ADDR_SPACE=Data
  9798  1EF4  00000024           	ddw	__ccovbit52_49/(0+8)	; CC_ADDR
  9799  1EF8  00000001           	ddw	1	; NUM_POINTS
  9800  1EFC  00000001           	ddw	__ccovbit52_49& (0+7)	; OFFSET
  9801  1F00  00000000           	ddw	0	; Reserved
  9802  1F04  FFFFFFFF           	ddw	4294967295	; RANGE_SPACE=restricted
  9803  1F08  00000008           	ddw	8	; NUM_RANGES
  9804  1F0C  0000017F           	ddw	__ccov225_start_blk52	; block 52 START_ADDR
  9805  1F10  00000186           	ddw	__ccov225_end_blk52	; block 52 END_ADDR
  9806  1F14  0000017C           	ddw	__ccov224_start_blk51	; block 51 START_ADDR
  9807  1F18  0000017F           	ddw	__ccov224_end_blk51	; block 51 END_ADDR
  9808  1F1C  00000174           	ddw	__ccov223_start_blk50	; block 50 START_ADDR
  9809  1F20  0000017C           	ddw	__ccov223_end_blk50	; block 50 END_ADDR
  9810  1F24  00000132           	ddw	__ccov215_start_blk34	; block 34 START_ADDR
  9811  1F28  00000139           	ddw	__ccov215_end_blk34	; block 34 END_ADDR
  9812  1F2C  0000012B           	ddw	__ccov214_start_blk33	; block 33 START_ADDR
  9813  1F30  00000132           	ddw	__ccov214_end_blk33	; block 33 END_ADDR
  9814  1F34  00000127           	ddw	__ccov213_start_blk32	; block 32 START_ADDR
  9815  1F38  0000012B           	ddw	__ccov213_end_blk32	; block 32 END_ADDR
  9816  1F3C  0000027E           	ddw	__ccov259_start_blk106	; block 106 START_ADDR
  9817  1F40  000002AA           	ddw	__ccov259_end_blk106	; block 106 END_ADDR
  9818  1F44  00000096           	ddw	_checkState1	; block 0 START_ADDR
  9819  1F48  00000097           	ddw	__ccov190_end_blk0	; block 0 END_ADDR
  9820                           
  9821                           ; Function: checkState1, coverage: 56,55,106,0
  9822  1F4C  00000000           	ddw	0	; CC_ADDR_SPACE=Data
  9823  1F50  00000024           	ddw	__ccovbit56_50/(0+8)	; CC_ADDR
  9824  1F54  00000001           	ddw	1	; NUM_POINTS
  9825  1F58  00000000           	ddw	__ccovbit56_50& (0+7)	; OFFSET
  9826  1F5C  00000000           	ddw	0	; Reserved
  9827  1F60  FFFFFFFF           	ddw	4294967295	; RANGE_SPACE=restricted
  9828  1F64  00000004           	ddw	4	; NUM_RANGES
  9829  1F68  00000193           	ddw	__ccov227_start_blk56	; block 56 START_ADDR
  9830  1F6C  0000019A           	ddw	__ccov227_end_blk56	; block 56 END_ADDR
  9831  1F70  00000186           	ddw	__ccov226_start_blk55	; block 55 START_ADDR
  9832  1F74  00000193           	ddw	__ccov226_end_blk55	; block 55 END_ADDR
  9833  1F78  0000027E           	ddw	__ccov259_start_blk106	; block 106 START_ADDR
  9834  1F7C  000002AA           	ddw	__ccov259_end_blk106	; block 106 END_ADDR
  9835  1F80  00000096           	ddw	_checkState1	; block 0 START_ADDR
  9836  1F84  00000097           	ddw	__ccov190_end_blk0	; block 0 END_ADDR
  9837                           
  9838                           ; Function: checkState1, coverage: 58,55,106,0
  9839  1F88  00000000           	ddw	0	; CC_ADDR_SPACE=Data
  9840  1F8C  00000023           	ddw	__ccovbit58_51/(0+8)	; CC_ADDR
  9841  1F90  00000001           	ddw	1	; NUM_POINTS
  9842  1F94  00000007           	ddw	__ccovbit58_51& (0+7)	; OFFSET
  9843  1F98  00000000           	ddw	0	; Reserved
  9844  1F9C  FFFFFFFF           	ddw	4294967295	; RANGE_SPACE=restricted
  9845  1FA0  00000004           	ddw	4	; NUM_RANGES
  9846  1FA4  0000019A           	ddw	__ccov228_start_blk58	; block 58 START_ADDR
  9847  1FA8  000001A1           	ddw	__ccov228_end_blk58	; block 58 END_ADDR
  9848  1FAC  00000186           	ddw	__ccov226_start_blk55	; block 55 START_ADDR
  9849  1FB0  00000193           	ddw	__ccov226_end_blk55	; block 55 END_ADDR
  9850  1FB4  0000027E           	ddw	__ccov259_start_blk106	; block 106 START_ADDR
  9851  1FB8  000002AA           	ddw	__ccov259_end_blk106	; block 106 END_ADDR
  9852  1FBC  00000096           	ddw	_checkState1	; block 0 START_ADDR
  9853  1FC0  00000097           	ddw	__ccov190_end_blk0	; block 0 END_ADDR
  9854                           
  9855                           ; Function: checkState1, coverage: 64,63,62,61,60,106,0
  9856  1FC4  00000000           	ddw	0	; CC_ADDR_SPACE=Data
  9857  1FC8  00000023           	ddw	__ccovbit64_52/(0+8)	; CC_ADDR
  9858  1FCC  00000001           	ddw	1	; NUM_POINTS
  9859  1FD0  00000006           	ddw	__ccovbit64_52& (0+7)	; OFFSET
  9860  1FD4  00000000           	ddw	0	; Reserved
  9861  1FD8  FFFFFFFF           	ddw	4294967295	; RANGE_SPACE=restricted
  9862  1FDC  00000007           	ddw	7	; NUM_RANGES
  9863  1FE0  000001B6           	ddw	__ccov233_start_blk64	; block 64 START_ADDR
  9864  1FE4  000001BF           	ddw	__ccov233_end_blk64	; block 64 END_ADDR
  9865  1FE8  000001B1           	ddw	__ccov232_start_blk63	; block 63 START_ADDR
  9866  1FEC  000001B6           	ddw	__ccov232_end_blk63	; block 63 END_ADDR
  9867  1FF0  000001AE           	ddw	__ccov231_start_blk62	; block 62 START_ADDR
  9868  1FF4  000001B1           	ddw	__ccov231_end_blk62	; block 62 END_ADDR
  9869  1FF8  000001A5           	ddw	__ccov230_start_blk61	; block 61 START_ADDR
  9870  1FFC  000001AE           	ddw	__ccov230_end_blk61	; block 61 END_ADDR
  9871  2000  000001A1           	ddw	__ccov229_start_blk60	; block 60 START_ADDR
  9872  2004  000001A5           	ddw	__ccov229_end_blk60	; block 60 END_ADDR
  9873  2008  0000027E           	ddw	__ccov259_start_blk106	; block 106 START_ADDR
  9874  200C  000002AA           	ddw	__ccov259_end_blk106	; block 106 END_ADDR
  9875  2010  00000096           	ddw	_checkState1	; block 0 START_ADDR
  9876  2014  00000097           	ddw	__ccov190_end_blk0	; block 0 END_ADDR
  9877                           
  9878                           ; Function: checkState1, coverage: 68,67,66,106,0
  9879  2018  00000000           	ddw	0	; CC_ADDR_SPACE=Data
  9880  201C  00000023           	ddw	__ccovbit68_53/(0+8)	; CC_ADDR
  9881  2020  00000001           	ddw	1	; NUM_POINTS
  9882  2024  00000005           	ddw	__ccovbit68_53& (0+7)	; OFFSET
  9883  2028  00000000           	ddw	0	; Reserved
  9884  202C  FFFFFFFF           	ddw	4294967295	; RANGE_SPACE=restricted
  9885  2030  00000005           	ddw	5	; NUM_RANGES
  9886  2034  000001C5           	ddw	__ccov236_start_blk68	; block 68 START_ADDR
  9887  2038  000001C9           	ddw	__ccov236_end_blk68	; block 68 END_ADDR
  9888  203C  000001C1           	ddw	__ccov235_start_blk67	; block 67 START_ADDR
  9889  2040  000001C5           	ddw	__ccov235_end_blk67	; block 67 END_ADDR
  9890  2044  000001BF           	ddw	__ccov234_start_blk66	; block 66 START_ADDR
  9891  2048  000001C1           	ddw	__ccov234_end_blk66	; block 66 END_ADDR
  9892  204C  0000027E           	ddw	__ccov259_start_blk106	; block 106 START_ADDR
  9893  2050  000002AA           	ddw	__ccov259_end_blk106	; block 106 END_ADDR
  9894  2054  00000096           	ddw	_checkState1	; block 0 START_ADDR
  9895  2058  00000097           	ddw	__ccov190_end_blk0	; block 0 END_ADDR
  9896                           
  9897                           ; Function: checkState1, coverage: 69,67,66,106,0
  9898  205C  00000000           	ddw	0	; CC_ADDR_SPACE=Data
  9899  2060  00000023           	ddw	__ccovbit69_54/(0+8)	; CC_ADDR
  9900  2064  00000001           	ddw	1	; NUM_POINTS
  9901  2068  00000004           	ddw	__ccovbit69_54& (0+7)	; OFFSET
  9902  206C  00000000           	ddw	0	; Reserved
  9903  2070  FFFFFFFF           	ddw	4294967295	; RANGE_SPACE=restricted
  9904  2074  00000005           	ddw	5	; NUM_RANGES
  9905  2078  000001C9           	ddw	__ccov237_start_blk69	; block 69 START_ADDR
  9906  207C  000001CC           	ddw	__ccov237_end_blk69	; block 69 END_ADDR
  9907  2080  000001C1           	ddw	__ccov235_start_blk67	; block 67 START_ADDR
  9908  2084  000001C5           	ddw	__ccov235_end_blk67	; block 67 END_ADDR
  9909  2088  000001BF           	ddw	__ccov234_start_blk66	; block 66 START_ADDR
  9910  208C  000001C1           	ddw	__ccov234_end_blk66	; block 66 END_ADDR
  9911  2090  0000027E           	ddw	__ccov259_start_blk106	; block 106 START_ADDR
  9912  2094  000002AA           	ddw	__ccov259_end_blk106	; block 106 END_ADDR
  9913  2098  00000096           	ddw	_checkState1	; block 0 START_ADDR
  9914  209C  00000097           	ddw	__ccov190_end_blk0	; block 0 END_ADDR
  9915                           
  9916                           ; Function: checkState1, coverage: 82,81,80,74,73,72,71,67,66,106,0
  9917  20A0  00000000           	ddw	0	; CC_ADDR_SPACE=Data
  9918  20A4  00000023           	ddw	__ccovbit82_55/(0+8)	; CC_ADDR
  9919  20A8  00000001           	ddw	1	; NUM_POINTS
  9920  20AC  00000003           	ddw	__ccovbit82_55& (0+7)	; OFFSET
  9921  20B0  00000000           	ddw	0	; Reserved
  9922  20B4  FFFFFFFF           	ddw	4294967295	; RANGE_SPACE=restricted
  9923  20B8  0000000B           	ddw	11	; NUM_RANGES
  9924  20BC  000001EC           	ddw	__ccov244_start_blk82	; block 82 START_ADDR
  9925  20C0  000001FB           	ddw	__ccov244_end_blk82	; block 82 END_ADDR
  9926  20C4  000001EA           	ddw	__ccov243_start_blk81	; block 81 START_ADDR
  9927  20C8  000001EC           	ddw	__ccov243_end_blk81	; block 81 END_ADDR
  9928  20CC  000001E7           	ddw	__ccov242_start_blk80	; block 80 START_ADDR
  9929  20D0  000001EA           	ddw	__ccov242_end_blk80	; block 80 END_ADDR
  9930  20D4  000001DC           	ddw	__ccov241_start_blk74	; block 74 START_ADDR
  9931  20D8  000001E7           	ddw	__ccov241_end_blk74	; block 74 END_ADDR
  9932  20DC  000001DB           	ddw	__ccov240_start_blk73	; block 73 START_ADDR
  9933  20E0  000001DC           	ddw	__ccov240_end_blk73	; block 73 END_ADDR
  9934  20E4  000001D2           	ddw	__ccov239_start_blk72	; block 72 START_ADDR
  9935  20E8  000001DB           	ddw	__ccov239_end_blk72	; block 72 END_ADDR
  9936  20EC  000001CC           	ddw	__ccov238_start_blk71	; block 71 START_ADDR
  9937  20F0  000001D2           	ddw	__ccov238_end_blk71	; block 71 END_ADDR
  9938  20F4  000001C1           	ddw	__ccov235_start_blk67	; block 67 START_ADDR
  9939  20F8  000001C5           	ddw	__ccov235_end_blk67	; block 67 END_ADDR
  9940  20FC  000001BF           	ddw	__ccov234_start_blk66	; block 66 START_ADDR
  9941  2100  000001C1           	ddw	__ccov234_end_blk66	; block 66 END_ADDR
  9942  2104  0000027E           	ddw	__ccov259_start_blk106	; block 106 START_ADDR
  9943  2108  000002AA           	ddw	__ccov259_end_blk106	; block 106 END_ADDR
  9944  210C  00000096           	ddw	_checkState1	; block 0 START_ADDR
  9945  2110  00000097           	ddw	__ccov190_end_blk0	; block 0 END_ADDR
  9946                           
  9947                           ; Function: checkState1, coverage: 90,89,88,87,86,85,84,83,82,81,80,74,73,72,71,67,66,10
      +                          6,0
  9948  2114  00000000           	ddw	0	; CC_ADDR_SPACE=Data
  9949  2118  00000023           	ddw	__ccovbit90_56/(0+8)	; CC_ADDR
  9950  211C  00000001           	ddw	1	; NUM_POINTS
  9951  2120  00000002           	ddw	__ccovbit90_56& (0+7)	; OFFSET
  9952  2124  00000000           	ddw	0	; Reserved
  9953  2128  FFFFFFFF           	ddw	4294967295	; RANGE_SPACE=restricted
  9954  212C  00000013           	ddw	19	; NUM_RANGES
  9955  2130  0000024C           	ddw	__ccov252_start_blk90	; block 90 START_ADDR
  9956  2134  00000251           	ddw	__ccov252_end_blk90	; block 90 END_ADDR
  9957  2138  00000243           	ddw	__ccov251_start_blk89	; block 89 START_ADDR
  9958  213C  0000024C           	ddw	__ccov251_end_blk89	; block 89 END_ADDR
  9959  2140  00000241           	ddw	__ccov250_start_blk88	; block 88 START_ADDR
  9960  2144  00000243           	ddw	__ccov250_end_blk88	; block 88 END_ADDR
  9961  2148  00000234           	ddw	__ccov249_start_blk87	; block 87 START_ADDR
  9962  214C  00000241           	ddw	__ccov249_end_blk87	; block 87 END_ADDR
  9963  2150  00000224           	ddw	__ccov248_start_blk86	; block 86 START_ADDR
  9964  2154  00000234           	ddw	__ccov248_end_blk86	; block 86 END_ADDR
  9965  2158  0000020B           	ddw	__ccov247_start_blk85	; block 85 START_ADDR
  9966  215C  00000224           	ddw	__ccov247_end_blk85	; block 85 END_ADDR
  9967  2160  00000203           	ddw	__ccov246_start_blk84	; block 84 START_ADDR
  9968  2164  0000020B           	ddw	__ccov246_end_blk84	; block 84 END_ADDR
  9969  2168  000001FB           	ddw	__ccov245_start_blk83	; block 83 START_ADDR
  9970  216C  00000203           	ddw	__ccov245_end_blk83	; block 83 END_ADDR
  9971  2170  000001EC           	ddw	__ccov244_start_blk82	; block 82 START_ADDR
  9972  2174  000001FB           	ddw	__ccov244_end_blk82	; block 82 END_ADDR
  9973  2178  000001EA           	ddw	__ccov243_start_blk81	; block 81 START_ADDR
  9974  217C  000001EC           	ddw	__ccov243_end_blk81	; block 81 END_ADDR
  9975  2180  000001E7           	ddw	__ccov242_start_blk80	; block 80 START_ADDR
  9976  2184  000001EA           	ddw	__ccov242_end_blk80	; block 80 END_ADDR
  9977  2188  000001DC           	ddw	__ccov241_start_blk74	; block 74 START_ADDR
  9978  218C  000001E7           	ddw	__ccov241_end_blk74	; block 74 END_ADDR
  9979  2190  000001DB           	ddw	__ccov240_start_blk73	; block 73 START_ADDR
  9980  2194  000001DC           	ddw	__ccov240_end_blk73	; block 73 END_ADDR
  9981  2198  000001D2           	ddw	__ccov239_start_blk72	; block 72 START_ADDR
  9982  219C  000001DB           	ddw	__ccov239_end_blk72	; block 72 END_ADDR
  9983  21A0  000001CC           	ddw	__ccov238_start_blk71	; block 71 START_ADDR
  9984  21A4  000001D2           	ddw	__ccov238_end_blk71	; block 71 END_ADDR
  9985  21A8  000001C1           	ddw	__ccov235_start_blk67	; block 67 START_ADDR
  9986  21AC  000001C5           	ddw	__ccov235_end_blk67	; block 67 END_ADDR
  9987  21B0  000001BF           	ddw	__ccov234_start_blk66	; block 66 START_ADDR
  9988  21B4  000001C1           	ddw	__ccov234_end_blk66	; block 66 END_ADDR
  9989  21B8  0000027E           	ddw	__ccov259_start_blk106	; block 106 START_ADDR
  9990  21BC  000002AA           	ddw	__ccov259_end_blk106	; block 106 END_ADDR
  9991  21C0  00000096           	ddw	_checkState1	; block 0 START_ADDR
  9992  21C4  00000097           	ddw	__ccov190_end_blk0	; block 0 END_ADDR
  9993                           
  9994                           ; Function: checkState1, coverage: 91,87,86,85,84,83,82,81,80,74,73,72,71,67,66,106,0
  9995  21C8  00000000           	ddw	0	; CC_ADDR_SPACE=Data
  9996  21CC  00000023           	ddw	__ccovbit91_57/(0+8)	; CC_ADDR
  9997  21D0  00000001           	ddw	1	; NUM_POINTS
  9998  21D4  00000001           	ddw	__ccovbit91_57& (0+7)	; OFFSET
  9999  21D8  00000000           	ddw	0	; Reserved
 10000  21DC  FFFFFFFF           	ddw	4294967295	; RANGE_SPACE=restricted
 10001  21E0  00000011           	ddw	17	; NUM_RANGES
 10002  21E4  00000251           	ddw	__ccov253_start_blk91	; block 91 START_ADDR
 10003  21E8  00000255           	ddw	__ccov253_end_blk91	; block 91 END_ADDR
 10004  21EC  00000234           	ddw	__ccov249_start_blk87	; block 87 START_ADDR
 10005  21F0  00000241           	ddw	__ccov249_end_blk87	; block 87 END_ADDR
 10006  21F4  00000224           	ddw	__ccov248_start_blk86	; block 86 START_ADDR
 10007  21F8  00000234           	ddw	__ccov248_end_blk86	; block 86 END_ADDR
 10008  21FC  0000020B           	ddw	__ccov247_start_blk85	; block 85 START_ADDR
 10009  2200  00000224           	ddw	__ccov247_end_blk85	; block 85 END_ADDR
 10010  2204  00000203           	ddw	__ccov246_start_blk84	; block 84 START_ADDR
 10011  2208  0000020B           	ddw	__ccov246_end_blk84	; block 84 END_ADDR
 10012  220C  000001FB           	ddw	__ccov245_start_blk83	; block 83 START_ADDR
 10013  2210  00000203           	ddw	__ccov245_end_blk83	; block 83 END_ADDR
 10014  2214  000001EC           	ddw	__ccov244_start_blk82	; block 82 START_ADDR
 10015  2218  000001FB           	ddw	__ccov244_end_blk82	; block 82 END_ADDR
 10016  221C  000001EA           	ddw	__ccov243_start_blk81	; block 81 START_ADDR
 10017  2220  000001EC           	ddw	__ccov243_end_blk81	; block 81 END_ADDR
 10018  2224  000001E7           	ddw	__ccov242_start_blk80	; block 80 START_ADDR
 10019  2228  000001EA           	ddw	__ccov242_end_blk80	; block 80 END_ADDR
 10020  222C  000001DC           	ddw	__ccov241_start_blk74	; block 74 START_ADDR
 10021  2230  000001E7           	ddw	__ccov241_end_blk74	; block 74 END_ADDR
 10022  2234  000001DB           	ddw	__ccov240_start_blk73	; block 73 START_ADDR
 10023  2238  000001DC           	ddw	__ccov240_end_blk73	; block 73 END_ADDR
 10024  223C  000001D2           	ddw	__ccov239_start_blk72	; block 72 START_ADDR
 10025  2240  000001DB           	ddw	__ccov239_end_blk72	; block 72 END_ADDR
 10026  2244  000001CC           	ddw	__ccov238_start_blk71	; block 71 START_ADDR
 10027  2248  000001D2           	ddw	__ccov238_end_blk71	; block 71 END_ADDR
 10028  224C  000001C1           	ddw	__ccov235_start_blk67	; block 67 START_ADDR
 10029  2250  000001C5           	ddw	__ccov235_end_blk67	; block 67 END_ADDR
 10030  2254  000001BF           	ddw	__ccov234_start_blk66	; block 66 START_ADDR
 10031  2258  000001C1           	ddw	__ccov234_end_blk66	; block 66 END_ADDR
 10032  225C  0000027E           	ddw	__ccov259_start_blk106	; block 106 START_ADDR
 10033  2260  000002AA           	ddw	__ccov259_end_blk106	; block 106 END_ADDR
 10034  2264  00000096           	ddw	_checkState1	; block 0 START_ADDR
 10035  2268  00000097           	ddw	__ccov190_end_blk0	; block 0 END_ADDR
 10036                           
 10037                           ; Function: checkState1, coverage: 93,87,86,85,84,83,82,81,80,74,73,72,71,67,66,106,0
 10038  226C  00000000           	ddw	0	; CC_ADDR_SPACE=Data
 10039  2270  00000023           	ddw	__ccovbit93_58/(0+8)	; CC_ADDR
 10040  2274  00000001           	ddw	1	; NUM_POINTS
 10041  2278  00000000           	ddw	__ccovbit93_58& (0+7)	; OFFSET
 10042  227C  00000000           	ddw	0	; Reserved
 10043  2280  FFFFFFFF           	ddw	4294967295	; RANGE_SPACE=restricted
 10044  2284  00000011           	ddw	17	; NUM_RANGES
 10045  2288  00000255           	ddw	__ccov254_start_blk93	; block 93 START_ADDR
 10046  228C  0000025A           	ddw	__ccov254_end_blk93	; block 93 END_ADDR
 10047  2290  00000234           	ddw	__ccov249_start_blk87	; block 87 START_ADDR
 10048  2294  00000241           	ddw	__ccov249_end_blk87	; block 87 END_ADDR
 10049  2298  00000224           	ddw	__ccov248_start_blk86	; block 86 START_ADDR
 10050  229C  00000234           	ddw	__ccov248_end_blk86	; block 86 END_ADDR
 10051  22A0  0000020B           	ddw	__ccov247_start_blk85	; block 85 START_ADDR
 10052  22A4  00000224           	ddw	__ccov247_end_blk85	; block 85 END_ADDR
 10053  22A8  00000203           	ddw	__ccov246_start_blk84	; block 84 START_ADDR
 10054  22AC  0000020B           	ddw	__ccov246_end_blk84	; block 84 END_ADDR
 10055  22B0  000001FB           	ddw	__ccov245_start_blk83	; block 83 START_ADDR
 10056  22B4  00000203           	ddw	__ccov245_end_blk83	; block 83 END_ADDR
 10057  22B8  000001EC           	ddw	__ccov244_start_blk82	; block 82 START_ADDR
 10058  22BC  000001FB           	ddw	__ccov244_end_blk82	; block 82 END_ADDR
 10059  22C0  000001EA           	ddw	__ccov243_start_blk81	; block 81 START_ADDR
 10060  22C4  000001EC           	ddw	__ccov243_end_blk81	; block 81 END_ADDR
 10061  22C8  000001E7           	ddw	__ccov242_start_blk80	; block 80 START_ADDR
 10062  22CC  000001EA           	ddw	__ccov242_end_blk80	; block 80 END_ADDR
 10063  22D0  000001DC           	ddw	__ccov241_start_blk74	; block 74 START_ADDR
 10064  22D4  000001E7           	ddw	__ccov241_end_blk74	; block 74 END_ADDR
 10065  22D8  000001DB           	ddw	__ccov240_start_blk73	; block 73 START_ADDR
 10066  22DC  000001DC           	ddw	__ccov240_end_blk73	; block 73 END_ADDR
 10067  22E0  000001D2           	ddw	__ccov239_start_blk72	; block 72 START_ADDR
 10068  22E4  000001DB           	ddw	__ccov239_end_blk72	; block 72 END_ADDR
 10069  22E8  000001CC           	ddw	__ccov238_start_blk71	; block 71 START_ADDR
 10070  22EC  000001D2           	ddw	__ccov238_end_blk71	; block 71 END_ADDR
 10071  22F0  000001C1           	ddw	__ccov235_start_blk67	; block 67 START_ADDR
 10072  22F4  000001C5           	ddw	__ccov235_end_blk67	; block 67 END_ADDR
 10073  22F8  000001BF           	ddw	__ccov234_start_blk66	; block 66 START_ADDR
 10074  22FC  000001C1           	ddw	__ccov234_end_blk66	; block 66 END_ADDR
 10075  2300  0000027E           	ddw	__ccov259_start_blk106	; block 106 START_ADDR
 10076  2304  000002AA           	ddw	__ccov259_end_blk106	; block 106 END_ADDR
 10077  2308  00000096           	ddw	_checkState1	; block 0 START_ADDR
 10078  230C  00000097           	ddw	__ccov190_end_blk0	; block 0 END_ADDR
 10079                           
 10080                           ; Function: checkState1, coverage: 97,106,0
 10081  2310  00000000           	ddw	0	; CC_ADDR_SPACE=Data
 10082  2314  00000022           	ddw	__ccovbit97_59/(0+8)	; CC_ADDR
 10083  2318  00000001           	ddw	1	; NUM_POINTS
 10084  231C  00000007           	ddw	__ccovbit97_59& (0+7)	; OFFSET
 10085  2320  00000000           	ddw	0	; Reserved
 10086  2324  FFFFFFFF           	ddw	4294967295	; RANGE_SPACE=restricted
 10087  2328  00000003           	ddw	3	; NUM_RANGES
 10088  232C  0000025A           	ddw	__ccov255_start_blk97	; block 97 START_ADDR
 10089  2330  00000263           	ddw	__ccov255_end_blk97	; block 97 END_ADDR
 10090  2334  0000027E           	ddw	__ccov259_start_blk106	; block 106 START_ADDR
 10091  2338  000002AA           	ddw	__ccov259_end_blk106	; block 106 END_ADDR
 10092  233C  00000096           	ddw	_checkState1	; block 0 START_ADDR
 10093  2340  00000097           	ddw	__ccov190_end_blk0	; block 0 END_ADDR
 10094                           
 10095                           ; Function: checkState1, coverage: 99,106,0
 10096  2344  00000000           	ddw	0	; CC_ADDR_SPACE=Data
 10097  2348  00000022           	ddw	__ccovbit99_60/(0+8)	; CC_ADDR
 10098  234C  00000001           	ddw	1	; NUM_POINTS
 10099  2350  00000006           	ddw	__ccovbit99_60& (0+7)	; OFFSET
 10100  2354  00000000           	ddw	0	; Reserved
 10101  2358  FFFFFFFF           	ddw	4294967295	; RANGE_SPACE=restricted
 10102  235C  00000003           	ddw	3	; NUM_RANGES
 10103  2360  00000263           	ddw	__ccov256_start_blk99	; block 99 START_ADDR
 10104  2364  0000026C           	ddw	__ccov256_end_blk99	; block 99 END_ADDR
 10105  2368  0000027E           	ddw	__ccov259_start_blk106	; block 106 START_ADDR
 10106  236C  000002AA           	ddw	__ccov259_end_blk106	; block 106 END_ADDR
 10107  2370  00000096           	ddw	_checkState1	; block 0 START_ADDR
 10108  2374  00000097           	ddw	__ccov190_end_blk0	; block 0 END_ADDR
 10109                           
 10110                           ; Function: checkState1, coverage: 101,106,0
 10111  2378  00000000           	ddw	0	; CC_ADDR_SPACE=Data
 10112  237C  00000022           	ddw	__ccovbit101_61/(0+8)	; CC_ADDR
 10113  2380  00000001           	ddw	1	; NUM_POINTS
 10114  2384  00000005           	ddw	__ccovbit101_61& (0+7)	; OFFSET
 10115  2388  00000000           	ddw	0	; Reserved
 10116  238C  FFFFFFFF           	ddw	4294967295	; RANGE_SPACE=restricted
 10117  2390  00000003           	ddw	3	; NUM_RANGES
 10118  2394  0000026C           	ddw	__ccov257_start_blk101	; block 101 START_ADDR
 10119  2398  00000275           	ddw	__ccov257_end_blk101	; block 101 END_ADDR
 10120  239C  0000027E           	ddw	__ccov259_start_blk106	; block 106 START_ADDR
 10121  23A0  000002AA           	ddw	__ccov259_end_blk106	; block 106 END_ADDR
 10122  23A4  00000096           	ddw	_checkState1	; block 0 START_ADDR
 10123  23A8  00000097           	ddw	__ccov190_end_blk0	; block 0 END_ADDR
 10124                           
 10125                           ; Function: checkState1, coverage: 103,106,0
 10126  23AC  00000000           	ddw	0	; CC_ADDR_SPACE=Data
 10127  23B0  00000022           	ddw	__ccovbit103_62/(0+8)	; CC_ADDR
 10128  23B4  00000001           	ddw	1	; NUM_POINTS
 10129  23B8  00000004           	ddw	__ccovbit103_62& (0+7)	; OFFSET
 10130  23BC  00000000           	ddw	0	; Reserved
 10131  23C0  FFFFFFFF           	ddw	4294967295	; RANGE_SPACE=restricted
 10132  23C4  00000003           	ddw	3	; NUM_RANGES
 10133  23C8  00000275           	ddw	__ccov258_start_blk103	; block 103 START_ADDR
 10134  23CC  0000027E           	ddw	__ccov258_end_blk103	; block 103 END_ADDR
 10135  23D0  0000027E           	ddw	__ccov259_start_blk106	; block 106 START_ADDR
 10136  23D4  000002AA           	ddw	__ccov259_end_blk106	; block 106 END_ADDR
 10137  23D8  00000096           	ddw	_checkState1	; block 0 START_ADDR
 10138  23DC  00000097           	ddw	__ccov190_end_blk0	; block 0 END_ADDR
 10139                           
 10140                           ; Function: checkState1, coverage: 108,106,0
 10141  23E0  00000000           	ddw	0	; CC_ADDR_SPACE=Data
 10142  23E4  00000022           	ddw	__ccovbit108_63/(0+8)	; CC_ADDR
 10143  23E8  00000001           	ddw	1	; NUM_POINTS
 10144  23EC  00000003           	ddw	__ccovbit108_63& (0+7)	; OFFSET
 10145  23F0  00000000           	ddw	0	; Reserved
 10146  23F4  FFFFFFFF           	ddw	4294967295	; RANGE_SPACE=restricted
 10147  23F8  00000003           	ddw	3	; NUM_RANGES
 10148  23FC  000002AA           	ddw	__ccov260_start_blk108	; block 108 START_ADDR
 10149  2400  000002AD           	ddw	__end_of_checkState1	; block 108 END_ADDR
 10150  2404  0000027E           	ddw	__ccov259_start_blk106	; block 106 START_ADDR
 10151  2408  000002AA           	ddw	__ccov259_end_blk106	; block 106 END_ADDR
 10152  240C  00000096           	ddw	_checkState1	; block 0 START_ADDR
 10153  2410  00000097           	ddw	__ccov190_end_blk0	; block 0 END_ADDR
 10154                           
 10155                           ; Function: spi1_init, coverage: 7,6,5,4,3,2,1,0
 10156  2414  00000000           	ddw	0	; CC_ADDR_SPACE=Data
 10157  2418  00000022           	ddw	__ccovbit7_64/(0+8)	; CC_ADDR
 10158  241C  00000001           	ddw	1	; NUM_POINTS
 10159  2420  00000002           	ddw	__ccovbit7_64& (0+7)	; OFFSET
 10160  2424  00000000           	ddw	0	; Reserved
 10161  2428  FFFFFFFF           	ddw	4294967295	; RANGE_SPACE=restricted
 10162  242C  00000008           	ddw	8	; NUM_RANGES
 10163  2430  00000FBA           	ddw	__ccov268_start_blk7	; block 7 START_ADDR
 10164  2434  00000FBD           	ddw	__end_of_spi1_init	; block 7 END_ADDR
 10165  2438  00000FB8           	ddw	__ccov267_start_blk6	; block 6 START_ADDR
 10166  243C  00000FBA           	ddw	__ccov267_end_blk6	; block 6 END_ADDR
 10167  2440  00000FB6           	ddw	__ccov266_start_blk5	; block 5 START_ADDR
 10168  2444  00000FB8           	ddw	__ccov266_end_blk5	; block 5 END_ADDR
 10169  2448  00000FB4           	ddw	__ccov265_start_blk4	; block 4 START_ADDR
 10170  244C  00000FB6           	ddw	__ccov265_end_blk4	; block 4 END_ADDR
 10171  2450  00000FB2           	ddw	__ccov264_start_blk3	; block 3 START_ADDR
 10172  2454  00000FB4           	ddw	__ccov264_end_blk3	; block 3 END_ADDR
 10173  2458  00000FB1           	ddw	__ccov263_start_blk2	; block 2 START_ADDR
 10174  245C  00000FB2           	ddw	__ccov263_end_blk2	; block 2 END_ADDR
 10175  2460  00000FAD           	ddw	__ccov262_start_blk1	; block 1 START_ADDR
 10176  2464  00000FB1           	ddw	__ccov262_end_blk1	; block 1 END_ADDR
 10177  2468  00000FAA           	ddw	_spi1_init	; block 0 START_ADDR
 10178  246C  00000FAD           	ddw	__ccov261_end_blk0	; block 0 END_ADDR
 10179                           
 10180                           ; Function: spi1_send, coverage: 10,9,8,7,6,4,2,1,0
 10181  2470  00000000           	ddw	0	; CC_ADDR_SPACE=Data
 10182  2474  00000022           	ddw	__ccovbit10_65/(0+8)	; CC_ADDR
 10183  2478  00000001           	ddw	1	; NUM_POINTS
 10184  247C  00000001           	ddw	__ccovbit10_65& (0+7)	; OFFSET
 10185  2480  00000000           	ddw	0	; Reserved
 10186  2484  FFFFFFFF           	ddw	4294967295	; RANGE_SPACE=restricted
 10187  2488  00000009           	ddw	9	; NUM_RANGES
 10188  248C  00000FFD           	ddw	__ccov277_start_blk10	; block 10 START_ADDR
 10189  2490  00001000           	ddw	__end_of_spi1_send	; block 10 END_ADDR
 10190  2494  00000FFA           	ddw	__ccov276_start_blk9	; block 9 START_ADDR
 10191  2498  00000FFD           	ddw	__ccov276_end_blk9	; block 9 END_ADDR
 10192  249C  00000FF8           	ddw	__ccov275_start_blk8	; block 8 START_ADDR
 10193  24A0  00000FFA           	ddw	__ccov275_end_blk8	; block 8 END_ADDR
 10194  24A4  00000FF2           	ddw	__ccov274_start_blk7	; block 7 START_ADDR
 10195  24A8  00000FF8           	ddw	__ccov274_end_blk7	; block 7 END_ADDR
 10196  24AC  00000FF1           	ddw	__ccov273_start_blk6	; block 6 START_ADDR
 10197  24B0  00000FF2           	ddw	__ccov273_end_blk6	; block 6 END_ADDR
 10198  24B4  00000FED           	ddw	__ccov272_start_blk4	; block 4 START_ADDR
 10199  24B8  00000FF1           	ddw	__ccov272_end_blk4	; block 4 END_ADDR
 10200  24BC  00000FE7           	ddw	__ccov271_start_blk2	; block 2 START_ADDR
 10201  24C0  00000FED           	ddw	__ccov271_end_blk2	; block 2 END_ADDR
 10202  24C4  00000FE1           	ddw	__ccov270_start_blk1	; block 1 START_ADDR
 10203  24C8  00000FE7           	ddw	__ccov270_end_blk1	; block 1 END_ADDR
 10204  24CC  00000FDC           	ddw	_spi1_send	; block 0 START_ADDR
 10205  24D0  00000FE1           	ddw	__ccov269_end_blk0	; block 0 END_ADDR
 10206                           
 10207                           ; Function: UART_init, coverage: 8,7,6,5,4,3,2,1,0
 10208  24D4  00000000           	ddw	0	; CC_ADDR_SPACE=Data
 10209  24D8  00000022           	ddw	__ccovbit8_66/(0+8)	; CC_ADDR
 10210  24DC  00000001           	ddw	1	; NUM_POINTS
 10211  24E0  00000000           	ddw	__ccovbit8_66& (0+7)	; OFFSET
 10212  24E4  00000000           	ddw	0	; Reserved
 10213  24E8  FFFFFFFF           	ddw	4294967295	; RANGE_SPACE=restricted
 10214  24EC  00000009           	ddw	9	; NUM_RANGES
 10215  24F0  00000F56           	ddw	__ccov286_start_blk8	; block 8 START_ADDR
 10216  24F4  00000F59           	ddw	__end_of_UART_init	; block 8 END_ADDR
 10217  24F8  00000F55           	ddw	__ccov285_start_blk7	; block 7 START_ADDR
 10218  24FC  00000F56           	ddw	__ccov285_end_blk7	; block 7 END_ADDR
 10219  2500  00000F54           	ddw	__ccov284_start_blk6	; block 6 START_ADDR
 10220  2504  00000F55           	ddw	__ccov284_end_blk6	; block 6 END_ADDR
 10221  2508  00000F53           	ddw	__ccov283_start_blk5	; block 5 START_ADDR
 10222  250C  00000F54           	ddw	__ccov283_end_blk5	; block 5 END_ADDR
 10223  2510  00000F52           	ddw	__ccov282_start_blk4	; block 4 START_ADDR
 10224  2514  00000F53           	ddw	__ccov282_end_blk4	; block 4 END_ADDR
 10225  2518  00000F51           	ddw	__ccov281_start_blk3	; block 3 START_ADDR
 10226  251C  00000F52           	ddw	__ccov281_end_blk3	; block 3 END_ADDR
 10227  2520  00000F50           	ddw	__ccov280_start_blk2	; block 2 START_ADDR
 10228  2524  00000F51           	ddw	__ccov280_end_blk2	; block 2 END_ADDR
 10229  2528  00000F4D           	ddw	__ccov279_start_blk1	; block 1 START_ADDR
 10230  252C  00000F50           	ddw	__ccov279_end_blk1	; block 1 END_ADDR
 10231  2530  00000F4A           	ddw	_UART_init	; block 0 START_ADDR
 10232  2534  00000F4D           	ddw	__ccov278_end_blk0	; block 0 END_ADDR
 10233                           
 10234                           ; Function: putch, coverage: 5,4,2,0
 10235  2538  00000000           	ddw	0	; CC_ADDR_SPACE=Data
 10236  253C  00000021           	ddw	__ccovbit5_67/(0+8)	; CC_ADDR
 10237  2540  00000001           	ddw	1	; NUM_POINTS
 10238  2544  00000007           	ddw	__ccovbit5_67& (0+7)	; OFFSET
 10239  2548  00000000           	ddw	0	; Reserved
 10240  254C  FFFFFFFF           	ddw	4294967295	; RANGE_SPACE=restricted
 10241  2550  00000003           	ddw	3	; NUM_RANGES
 10242  2554  00000F47           	ddw	__ccov290_start_blk5	; block 5 START_ADDR
 10243  2558  00000F4A           	ddw	__end_of_putch	; block 5 END_ADDR
 10244  255C  00000F44           	ddw	__ccov289_start_blk4	; block 4 START_ADDR
 10245  2560  00000F47           	ddw	__ccov289_end_blk4	; block 4 END_ADDR
 10246  2564  00000F3E           	ddw	_putch	; block 2 START_ADDR
 10247  2568  00000F44           	ddw	__ccov288_end_blk2	; block 2 END_ADDR
 10248                           
 10249                           ; Function: set_watchdog_timer_128ms, coverage: 1,0
 10250  256C  00000000           	ddw	0	; CC_ADDR_SPACE=Data
 10251  2570  00000021           	ddw	__ccovbit1_68/(0+8)	; CC_ADDR
 10252  2574  00000001           	ddw	1	; NUM_POINTS
 10253  2578  00000006           	ddw	__ccovbit1_68& (0+7)	; OFFSET
 10254  257C  00000000           	ddw	0	; Reserved
 10255  2580  FFFFFFFF           	ddw	4294967295	; RANGE_SPACE=restricted
 10256  2584  00000002           	ddw	2	; NUM_RANGES
 10257  2588  00000F33           	ddw	__ccov303_start_blk1	; block 1 START_ADDR
 10258  258C  00000F36           	ddw	__end_of_set_watchdog_timer_128ms	; block 1 END_ADDR
 10259  2590  00000F2E           	ddw	_set_watchdog_timer_128ms	; block 0 START_ADDR
 10260  2594  00000F33           	ddw	__ccov302_end_blk0	; block 0 END_ADDR
 10261                           
 10262                           ; Function: set_watchdog_timer_256ms, coverage: 1,0
 10263  2598  00000000           	ddw	0	; CC_ADDR_SPACE=Data
 10264  259C  00000021           	ddw	__ccovbit1_69/(0+8)	; CC_ADDR
 10265  25A0  00000001           	ddw	1	; NUM_POINTS
 10266  25A4  00000005           	ddw	__ccovbit1_69& (0+7)	; OFFSET
 10267  25A8  00000000           	ddw	0	; Reserved
 10268  25AC  FFFFFFFF           	ddw	4294967295	; RANGE_SPACE=restricted
 10269  25B0  00000002           	ddw	2	; NUM_RANGES
 10270  25B4  00000F3B           	ddw	__ccov305_start_blk1	; block 1 START_ADDR
 10271  25B8  00000F3E           	ddw	__end_of_set_watchdog_timer_256ms	; block 1 END_ADDR
 10272  25BC  00000F36           	ddw	_set_watchdog_timer_256ms	; block 0 START_ADDR
 10273  25C0  00000F3B           	ddw	__ccov304_end_blk0	; block 0 END_ADDR
 10274                           
 10275                           ; Function: set_watchdog_timer_1s, coverage: 2,1,0
 10276  25C4  00000000           	ddw	0	; CC_ADDR_SPACE=Data
 10277  25C8  00000021           	ddw	__ccovbit2_70/(0+8)	; CC_ADDR
 10278  25CC  00000001           	ddw	1	; NUM_POINTS
 10279  25D0  00000004           	ddw	__ccovbit2_70& (0+7)	; OFFSET
 10280  25D4  00000000           	ddw	0	; Reserved
 10281  25D8  FFFFFFFF           	ddw	4294967295	; RANGE_SPACE=restricted
 10282  25DC  00000003           	ddw	3	; NUM_RANGES
 10283  25E0  00000F75           	ddw	__ccov308_start_blk2	; block 2 START_ADDR
 10284  25E4  00000F78           	ddw	__end_of_set_watchdog_timer_1s	; block 2 END_ADDR
 10285  25E8  00000F6D           	ddw	__ccov307_start_blk1	; block 1 START_ADDR
 10286  25EC  00000F75           	ddw	__ccov307_end_blk1	; block 1 END_ADDR
 10287  25F0  00000F68           	ddw	_set_watchdog_timer_1s	; block 0 START_ADDR
 10288  25F4  00000F6D           	ddw	__ccov306_end_blk0	; block 0 END_ADDR
 10289                           
 10290                           ; Function: set_watchdog_timer_4s, coverage: 2,1,0
 10291  25F8  00000000           	ddw	0	; CC_ADDR_SPACE=Data
 10292  25FC  00000021           	ddw	__ccovbit2_71/(0+8)	; CC_ADDR
 10293  2600  00000001           	ddw	1	; NUM_POINTS
 10294  2604  00000003           	ddw	__ccovbit2_71& (0+7)	; OFFSET
 10295  2608  00000000           	ddw	0	; Reserved
 10296  260C  FFFFFFFF           	ddw	4294967295	; RANGE_SPACE=restricted
 10297  2610  00000003           	ddw	3	; NUM_RANGES
 10298  2614  00000F95           	ddw	__ccov311_start_blk2	; block 2 START_ADDR
 10299  2618  00000F98           	ddw	__end_of_set_watchdog_timer_4s	; block 2 END_ADDR
 10300  261C  00000F8D           	ddw	__ccov310_start_blk1	; block 1 START_ADDR
 10301  2620  00000F95           	ddw	__ccov310_end_blk1	; block 1 END_ADDR
 10302  2624  00000F88           	ddw	_set_watchdog_timer_4s	; block 0 START_ADDR
 10303  2628  00000F8D           	ddw	__ccov309_end_blk0	; block 0 END_ADDR
 10304                           
 10305                           ; Function: set_watchdog_timer_256s, coverage: 2,1,0
 10306  262C  00000000           	ddw	0	; CC_ADDR_SPACE=Data
 10307  2630  00000021           	ddw	__ccovbit2_72/(0+8)	; CC_ADDR
 10308  2634  00000001           	ddw	1	; NUM_POINTS
 10309  2638  00000002           	ddw	__ccovbit2_72& (0+7)	; OFFSET
 10310  263C  00000000           	ddw	0	; Reserved
 10311  2640  FFFFFFFF           	ddw	4294967295	; RANGE_SPACE=restricted
 10312  2644  00000003           	ddw	3	; NUM_RANGES
 10313  2648  00000F85           	ddw	__ccov314_start_blk2	; block 2 START_ADDR
 10314  264C  00000F88           	ddw	__end_of_set_watchdog_timer_256s	; block 2 END_ADDR
 10315  2650  00000F7D           	ddw	__ccov313_start_blk1	; block 1 START_ADDR
 10316  2654  00000F85           	ddw	__ccov313_end_blk1	; block 1 END_ADDR
 10317  2658  00000F78           	ddw	_set_watchdog_timer_256s	; block 0 START_ADDR
 10318  265C  00000F7D           	ddw	__ccov312_end_blk0	; block 0 END_ADDR
 10319                           
 10320                           ; Function: enable_watchdog_timer, coverage: 1,0
 10321  2660  00000000           	ddw	0	; CC_ADDR_SPACE=Data
 10322  2664  00000021           	ddw	__ccovbit1_73/(0+8)	; CC_ADDR
 10323  2668  00000001           	ddw	1	; NUM_POINTS
 10324  266C  00000001           	ddw	__ccovbit1_73& (0+7)	; OFFSET
 10325  2670  00000000           	ddw	0	; Reserved
 10326  2674  FFFFFFFF           	ddw	4294967295	; RANGE_SPACE=restricted
 10327  2678  00000002           	ddw	2	; NUM_RANGES
 10328  267C  00000F20           	ddw	__ccov316_start_blk1	; block 1 START_ADDR
 10329  2680  00000F23           	ddw	__end_of_enable_watchdog_timer	; block 1 END_ADDR
 10330  2684  00000F1E           	ddw	_enable_watchdog_timer	; block 0 START_ADDR
 10331  2688  00000F20           	ddw	__ccov315_end_blk0	; block 0 END_ADDR
 10332                           
 10333                           ; Function: disable_watchdog_timer, coverage: 1,0
 10334  268C  00000000           	ddw	0	; CC_ADDR_SPACE=Data
 10335  2690  00000021           	ddw	__ccovbit1_74/(0+8)	; CC_ADDR
 10336  2694  00000001           	ddw	1	; NUM_POINTS
 10337  2698  00000000           	ddw	__ccovbit1_74& (0+7)	; OFFSET
 10338  269C  00000000           	ddw	0	; Reserved
 10339  26A0  FFFFFFFF           	ddw	4294967295	; RANGE_SPACE=restricted
 10340  26A4  00000002           	ddw	2	; NUM_RANGES
 10341  26A8  00000F1B           	ddw	__ccov318_start_blk1	; block 1 START_ADDR
 10342  26AC  00000F1E           	ddw	__end_of_disable_watchdog_timer	; block 1 END_ADDR
 10343  26B0  00000F19           	ddw	_disable_watchdog_timer	; block 0 START_ADDR
 10344  26B4  00000F1B           	ddw	__ccov317_end_blk0	; block 0 END_ADDR
 10345  007E                     btemp	set	126	;btemp
 10346  007E                     int$flags	set	126
 10347  007E                     wtemp0	set	126
 10348                           
 10349                           	psect	config
 10350                           
 10351                           ;Config register CONFIG1 @ 0x8007
 10352                           ;	Oscillator Selection
 10353                           ;	FOSC = INTOSC, INTOSC oscillator: I/O function on CLKIN pin
 10354                           ;	Watchdog Timer Enable
 10355                           ;	WDTE = SWDTEN, WDT controlled by the SWDTEN bit in the WDTCON register
 10356                           ;	Power-up Timer Enable
 10357                           ;	PWRTE = OFF, PWRT disabled
 10358                           ;	MCLR Pin Function Select
 10359                           ;	MCLRE = ON, MCLR/VPP pin function is MCLR
 10360                           ;	Flash Program Memory Code Protection
 10361                           ;	CP = OFF, Program memory code protection is disabled
 10362                           ;	Data Memory Code Protection
 10363                           ;	CPD = OFF, Data memory code protection is disabled
 10364                           ;	Brown-out Reset Enable
 10365                           ;	BOREN = OFF, Brown-out Reset disabled
 10366                           ;	Clock Out Enable
 10367                           ;	CLKOUTEN = OFF, CLKOUT function is disabled. I/O or oscillator function on the CLKOUT 
      +                          pin
 10368                           ;	Internal/External Switchover
 10369                           ;	IESO = OFF, Internal/External Switchover mode is disabled
 10370                           ;	Fail-Safe Clock Monitor Enable
 10371                           ;	FCMEN = OFF, Fail-Safe Clock Monitor is disabled
 10372  8007                     	org	32775
 10373  8007  09EC               	dw	2540
 10374                           
 10375                           ;Config register CONFIG2 @ 0x8008
 10376                           ;	Flash Memory Self-Write Protection
 10377                           ;	WRT = OFF, Write protection off
 10378                           ;	PLL Enable
 10379                           ;	PLLEN = OFF, 4x PLL disabled
 10380                           ;	Stack Overflow/Underflow Reset Enable
 10381                           ;	STVREN = OFF, Stack Overflow or Underflow will not cause a Reset
 10382                           ;	Brown-out Reset Voltage Selection
 10383                           ;	BORV = HI, Brown-out Reset Voltage (Vbor), high trip point selected.
 10384                           ;	Low-Voltage Programming Enable
 10385                           ;	LVP = ON, Low-voltage programming enabled
 10386  8008                     	org	32776
 10387  8008  38FF               	dw	14591

Data Sizes:
    Strings     581
    Constant    51
    Data        0
    BSS         69
    Persistent  32
    Stack       0

Auto Spaces:
    Space          Size  Autos    Used
    COMMON           14     10      14
    BANK0            79     27      71
    BANK1            80      0      32
    BANK2            80      0       0
    BANK3            80      0       0
    BANK4            80      0       0
    BANK5            80      0       0
    BANK6            80      0       0
    BANK7            80      0       0
    BANK8            80      0       0
    BANK9            80      0       0
    BANK10           80      0       0
    BANK11           80      0       0
    BANK12           48      0       0

Pointer List with Targets:

    vfpfcnvrt@ap	PTR PTR void  size(1) Largest target is 1
		 -> printf@ap(BANK0[1]), 

    S1918_IO_FILE$buffer	PTR unsigned char  size(1) Largest target is 0

    fputc@fp.buffer	PTR unsigned char  size(1) Largest target is 0

    fputc@fp	PTR struct _IO_FILE size(1) Largest target is 0
		 -> NULL(NULL[0]), 

    vfprintf@ap	PTR PTR void  size(1) Largest target is 1
		 -> printf@ap(BANK0[1]), 

    vfprintf@fp	PTR struct _IO_FILE size(1) Largest target is 0
		 -> NULL(NULL[0]), 

    vfprintf@fmt	PTR const unsigned char  size(2) Largest target is 52
		 -> STR_22(CODE[26]), STR_21(CODE[24]), STR_20(CODE[24]), STR_19(CODE[16]), 
		 -> STR_18(CODE[17]), STR_17(CODE[24]), STR_16(CODE[21]), STR_15(CODE[18]), 
		 -> STR_14(CODE[37]), STR_13(CODE[23]), STR_12(CODE[31]), STR_11(CODE[20]), 
		 -> STR_10(CODE[18]), STR_9(CODE[30]), STR_8(CODE[31]), STR_7(CODE[52]), 
		 -> STR_6(CODE[30]), STR_5(CODE[19]), STR_4(CODE[23]), STR_3(CODE[20]), 
		 -> STR_2(CODE[36]), STR_1(CODE[41]), 

    vfprintf@cfmt	PTR unsigned char  size(2) Largest target is 52
		 -> STR_22(CODE[26]), STR_21(CODE[24]), STR_20(CODE[24]), STR_19(CODE[16]), 
		 -> STR_18(CODE[17]), STR_17(CODE[24]), STR_16(CODE[21]), STR_15(CODE[18]), 
		 -> STR_14(CODE[37]), STR_13(CODE[23]), STR_12(CODE[31]), STR_11(CODE[20]), 
		 -> STR_10(CODE[18]), STR_9(CODE[30]), STR_8(CODE[31]), STR_7(CODE[52]), 
		 -> STR_6(CODE[30]), STR_5(CODE[19]), STR_4(CODE[23]), STR_3(CODE[20]), 
		 -> STR_2(CODE[36]), STR_1(CODE[41]), 

    vfpfcnvrt@fp	PTR struct _IO_FILE size(1) Largest target is 0
		 -> NULL(NULL[0]), 

    vfpfcnvrt@fmt	PTR PTR unsigned char  size(1) Largest target is 2
		 -> vfprintf@cfmt(BANK0[2]), 

    printf@fmt	PTR const unsigned char  size(2) Largest target is 52
		 -> STR_22(CODE[26]), STR_21(CODE[24]), STR_20(CODE[24]), STR_19(CODE[16]), 
		 -> STR_18(CODE[17]), STR_17(CODE[24]), STR_16(CODE[21]), STR_15(CODE[18]), 
		 -> STR_14(CODE[37]), STR_13(CODE[23]), STR_12(CODE[31]), STR_11(CODE[20]), 
		 -> STR_10(CODE[18]), STR_9(CODE[30]), STR_8(CODE[31]), STR_7(CODE[52]), 
		 -> STR_6(CODE[30]), STR_5(CODE[19]), STR_4(CODE[23]), STR_3(CODE[20]), 
		 -> STR_2(CODE[36]), STR_1(CODE[41]), 

    printf@ap	PTR void [1] size(1) Largest target is 2
		 -> ?_printf(BANK0[2]), 


Critical Paths under _main in COMMON

    _main->_PWM_set
    _main->_printf
    _main->_spi1_send
    _int2bcd->_spi1_send
    _spi1_send->___awmod
    _checkState1->_printf
    _set_watchdog_timer_4s->_printf
    _set_watchdog_timer_256s->_printf
    _set_watchdog_timer_1s->_printf
    _printf->_vfprintf
    _vfprintf->_vfpfcnvrt
    _vfpfcnvrt->_fputc
    _fputc->_putch
    _PWM_set->___wmul

Critical Paths under _my_isr in COMMON

    None.

Critical Paths under _main in BANK0

    _main->_checkState1
    _int2bcd->_spi1_send
    _spi1_send->___awdiv
    _checkState1->_watch_dog_incrementing_timer
    _set_watchdog_timer_4s->_printf
    _set_watchdog_timer_256s->_printf
    _set_watchdog_timer_1s->_printf
    _printf->_vfprintf
    _vfprintf->_vfpfcnvrt
    _vfpfcnvrt->_fputc

Critical Paths under _my_isr in BANK0

    None.

Critical Paths under _main in BANK1

    None.

Critical Paths under _my_isr in BANK1

    None.

Critical Paths under _main in BANK2

    None.

Critical Paths under _my_isr in BANK2

    None.

Critical Paths under _main in BANK3

    None.

Critical Paths under _my_isr in BANK3

    None.

Critical Paths under _main in BANK4

    None.

Critical Paths under _my_isr in BANK4

    None.

Critical Paths under _main in BANK5

    None.

Critical Paths under _my_isr in BANK5

    None.

Critical Paths under _main in BANK6

    None.

Critical Paths under _my_isr in BANK6

    None.

Critical Paths under _main in BANK7

    None.

Critical Paths under _my_isr in BANK7

    None.

Critical Paths under _main in BANK8

    None.

Critical Paths under _my_isr in BANK8

    None.

Critical Paths under _main in BANK9

    None.

Critical Paths under _my_isr in BANK9

    None.

Critical Paths under _main in BANK10

    None.

Critical Paths under _my_isr in BANK10

    None.

Critical Paths under _main in BANK11

    None.

Critical Paths under _my_isr in BANK11

    None.

Critical Paths under _main in BANK12

    None.

Critical Paths under _my_isr in BANK12

    None.

Call Graph Tables:

 ---------------------------------------------------------------------------------
 (Depth) Function   	        Calls       Base Space   Used Autos Params    Refs
 ---------------------------------------------------------------------------------
 (0) _main                                                 3     3      0   28082
                                             24 BANK0      3     3      0
                   _Click_latch_data
                        _Click_reset
                            _PWM_set
                          _UART_init
                            ___awdiv
                        _checkState1
             _disable_watchdog_timer
          _enable_external_interrupt
                  _getBatteryVoltage
                            _int2bcd
                             _printf
           _set_watchdog_timer_128ms
                          _spi1_init
                          _spi1_send
                        _timer2_init
 ---------------------------------------------------------------------------------
 (1) _timer2_init                                          0     0      0       0
 ---------------------------------------------------------------------------------
 (1) _spi1_init                                            0     0      0       0
 ---------------------------------------------------------------------------------
 (1) _int2bcd                                              5     2      3    2331
                                              5 BANK0      5     2      3
                            ___awdiv
                            ___awmod
                          _spi1_send
 ---------------------------------------------------------------------------------
 (1) _spi1_send                                            2     1      1     348
                                              9 COMMON     1     0      1
                                              4 BANK0      1     1      0
                   _Click_latch_data
                            ___awdiv (ARG)
                            ___awmod (ARG)
 ---------------------------------------------------------------------------------
 (2) _Click_latch_data                                     0     0      0       0
 ---------------------------------------------------------------------------------
 (2) ___awmod                                              7     3      4     600
                                              2 COMMON     7     3      4
 ---------------------------------------------------------------------------------
 (1) _checkState1                                          2     2      0   20267
                                             22 BANK0      2     2      0
                            ___awdiv
         _disable_external_interrupt
             _disable_watchdog_timer
          _enable_external_interrupt
              _enable_watchdog_timer
                  _getBatteryVoltage
                             _printf
           _set_watchdog_timer_128ms
              _set_watchdog_timer_1s
       _watch_dog_incrementing_timer
 ---------------------------------------------------------------------------------
 (2) _watch_dog_incrementing_timer                         1     1      0   11643
                                             21 BANK0      1     1      0
           _set_watchdog_timer_128ms
              _set_watchdog_timer_1s
           _set_watchdog_timer_256ms
            _set_watchdog_timer_256s
              _set_watchdog_timer_4s
 ---------------------------------------------------------------------------------
 (3) _set_watchdog_timer_4s                                0     0      0    3881
                             _printf
 ---------------------------------------------------------------------------------
 (3) _set_watchdog_timer_256s                              0     0      0    3881
                             _printf
 ---------------------------------------------------------------------------------
 (3) _set_watchdog_timer_256ms                             0     0      0       0
 ---------------------------------------------------------------------------------
 (3) _set_watchdog_timer_1s                                0     0      0    3881
                             _printf
 ---------------------------------------------------------------------------------
 (1) _printf                                               6     4      2    3881
                                              9 COMMON     1     1      0
                                             18 BANK0      3     1      2
                           _vfprintf
 ---------------------------------------------------------------------------------
 (2) _vfprintf                                             8     5      3    1826
                                              7 COMMON     2     2      0
                                             12 BANK0      6     3      3
                          _vfpfcnvrt
 ---------------------------------------------------------------------------------
 (3) _vfpfcnvrt                                           40    38      2    1400
                                              6 COMMON     1     1      0
                                              5 BANK0      7     5      2
                              _fputc
 ---------------------------------------------------------------------------------
 (4) _fputc                                                8     5      3     886
                                              3 COMMON     3     0      3
                                              0 BANK0      5     5      0
                              _putch
 ---------------------------------------------------------------------------------
 (5) _putch                                                1     1      0      22
                                              2 COMMON     1     1      0
 ---------------------------------------------------------------------------------
 (1) _set_watchdog_timer_128ms                             0     0      0       0
 ---------------------------------------------------------------------------------
 (1) _getBatteryVoltage                                    7     5      2      25
                                              2 COMMON     7     5      2
 ---------------------------------------------------------------------------------
 (2) _enable_watchdog_timer                                0     0      0       0
 ---------------------------------------------------------------------------------
 (1) _enable_external_interrupt                            0     0      0       0
 ---------------------------------------------------------------------------------
 (1) _disable_watchdog_timer                               0     0      0       0
 ---------------------------------------------------------------------------------
 (2) _disable_external_interrupt                           0     0      0       0
 ---------------------------------------------------------------------------------
 (2) ___awdiv                                              9     5      4     837
                                              2 COMMON     5     1      4
                                              0 BANK0      4     4      0
 ---------------------------------------------------------------------------------
 (1) _UART_init                                            0     0      0       0
 ---------------------------------------------------------------------------------
 (1) _PWM_set                                              5     5      0     356
                                              8 COMMON     2     2      0
                                              0 BANK0      3     3      0
                             ___wmul
 ---------------------------------------------------------------------------------
 (2) ___wmul                                               6     2      4     244
                                              2 COMMON     6     2      4
 ---------------------------------------------------------------------------------
 (1) _Click_reset                                          0     0      0       0
 ---------------------------------------------------------------------------------
 Estimated maximum stack depth 5
 ---------------------------------------------------------------------------------
 (Depth) Function   	        Calls       Base Space   Used Autos Params    Refs
 ---------------------------------------------------------------------------------
 (9) _my_isr                                               2     2      0       0
                                              0 COMMON     2     2      0
 ---------------------------------------------------------------------------------
 Estimated maximum stack depth 9
 ---------------------------------------------------------------------------------

 Call Graph Graphs:

 _main (ROOT)
   _Click_latch_data
   _Click_reset
   _PWM_set
     ___wmul
   _UART_init
   ___awdiv
   _checkState1
     ___awdiv
     _disable_external_interrupt
     _disable_watchdog_timer
     _enable_external_interrupt
     _enable_watchdog_timer
     _getBatteryVoltage
     _printf
       _vfprintf
         _vfpfcnvrt
           _fputc
             _putch
     _set_watchdog_timer_128ms
     _set_watchdog_timer_1s
       _printf
     _watch_dog_incrementing_timer
       _set_watchdog_timer_128ms
       _set_watchdog_timer_1s
       _set_watchdog_timer_256ms
       _set_watchdog_timer_256s
         _printf
       _set_watchdog_timer_4s
         _printf
   _disable_watchdog_timer
   _enable_external_interrupt
   _getBatteryVoltage
   _int2bcd
     ___awdiv
     ___awmod
     _spi1_send
       _Click_latch_data
       ___awdiv (ARG)
       ___awmod (ARG)
   _printf
   _set_watchdog_timer_128ms
   _spi1_init
   _spi1_send
   _timer2_init

 _my_isr (ROOT)

 Address spaces:
Name               Size   Autos  Total    Cost      Usage
BIGRAM             3EF      0       0       0        0.0%
EEDATA             100      0       0       0        0.0%
NULL                 0      0       0       0        0.0%
CODE                 0      0       0       0        0.0%
BITCOMMON            E      0       3       1       21.4%
BITSFR0              0      0       0       1        0.0%
SFR0                 0      0       0       1        0.0%
COMMON               E      A       E       2      100.0%
BITSFR1              0      0       0       2        0.0%
SFR1                 0      0       0       2        0.0%
BITSFR2              0      0       0       3        0.0%
SFR2                 0      0       0       3        0.0%
STACK                0      0       0       3        0.0%
BITBANK0            4F      0       8       4       10.1%
BITSFR3              0      0       0       4        0.0%
SFR3                 0      0       0       4        0.0%
BANK0               4F     1B      47       5       89.9%
BITSFR4              0      0       0       5        0.0%
SFR4                 0      0       0       5        0.0%
BITBANK1            50      0       0       6        0.0%
BITSFR5              0      0       0       6        0.0%
SFR5                 0      0       0       6        0.0%
BANK1               50      0      20       7       40.0%
BITSFR6              0      0       0       7        0.0%
SFR6                 0      0       0       7        0.0%
BITBANK2            50      0       0       8        0.0%
BITSFR7              0      0       0       8        0.0%
SFR7                 0      0       0       8        0.0%
BANK2               50      0       0       9        0.0%
BITSFR8              0      0       0       9        0.0%
SFR8                 0      0       0       9        0.0%
BITBANK3            50      0       0      10        0.0%
BITSFR9              0      0       0      10        0.0%
SFR9                 0      0       0      10        0.0%
BANK3               50      0       0      11        0.0%
BITSFR10             0      0       0      11        0.0%
SFR10                0      0       0      11        0.0%
BITBANK4            50      0       0      12        0.0%
BITSFR11             0      0       0      12        0.0%
SFR11                0      0       0      12        0.0%
BANK4               50      0       0      13        0.0%
BITSFR12             0      0       0      13        0.0%
SFR12                0      0       0      13        0.0%
BITBANK5            50      0       0      14        0.0%
BITSFR13             0      0       0      14        0.0%
SFR13                0      0       0      14        0.0%
BANK5               50      0       0      15        0.0%
BITSFR14             0      0       0      15        0.0%
SFR14                0      0       0      15        0.0%
BITBANK6            50      0       0      16        0.0%
BITSFR15             0      0       0      16        0.0%
SFR15                0      0       0      16        0.0%
BANK6               50      0       0      17        0.0%
BITSFR16             0      0       0      17        0.0%
SFR16                0      0       0      17        0.0%
BITBANK7            50      0       0      18        0.0%
BITSFR17             0      0       0      18        0.0%
SFR17                0      0       0      18        0.0%
BANK7               50      0       0      19        0.0%
BITSFR18             0      0       0      19        0.0%
SFR18                0      0       0      19        0.0%
BITSFR19             0      0       0      20        0.0%
SFR19                0      0       0      20        0.0%
ABS                  0      0      75      20        0.0%
BITBANK8            50      0       0      21        0.0%
BITSFR20             0      0       0      21        0.0%
SFR20                0      0       0      21        0.0%
BANK8               50      0       0      22        0.0%
BITSFR21             0      0       0      22        0.0%
SFR21                0      0       0      22        0.0%
BITBANK9            50      0       0      23        0.0%
BITSFR22             0      0       0      23        0.0%
SFR22                0      0       0      23        0.0%
BANK9               50      0       0      24        0.0%
BITSFR23             0      0       0      24        0.0%
SFR23                0      0       0      24        0.0%
BITBANK10           50      0       0      25        0.0%
BITSFR24             0      0       0      25        0.0%
SFR24                0      0       0      25        0.0%
BANK10              50      0       0      26        0.0%
BITSFR25             0      0       0      26        0.0%
SFR25                0      0       0      26        0.0%
BITBANK11           50      0       0      27        0.0%
BITSFR26             0      0       0      27        0.0%
SFR26                0      0       0      27        0.0%
BANK11              50      0       0      28        0.0%
BITSFR27             0      0       0      28        0.0%
SFR27                0      0       0      28        0.0%
BITBANK12           30      0       0      29        0.0%
BITSFR28             0      0       0      29        0.0%
SFR28                0      0       0      29        0.0%
BANK12              30      0       0      30        0.0%
BITSFR29             0      0       0      30        0.0%
SFR29                0      0       0      30        0.0%
BITSFR30             0      0       0      31        0.0%
SFR30                0      0       0      31        0.0%
DATA                 0      0      75      31        0.0%
BITSFR31             0      0       0      32        0.0%
SFR31                0      0       0      32        0.0%


Microchip Technology PIC Macro Assembler V2.32 build 20210201212658 
Symbol Table                                                                                   Fri Jun 18 21:08:41 2021

                    __ccov132_end_blk1 0F65                      __ccov124_end_blk4 0661  
                    __ccov140_end_blk6 06E4                     __ccov212_end_blk30 0127  
                   __ccov204_end_blk18 00EF                     __ccov220_end_blk39 0156  
                   __pcodecov_info_hdr 0000                    __ccov108_end_blk102 03F2  
                  __ccov84_start_blk73 035B                    __ccov76_start_blk65 032B  
                  __ccov68_start_blk57 030F                    __ccov92_start_blk82 03AC  
                 __ccov103_start_blk94 03CE                      __ccov133_end_blk2 0F66  
                    __ccov125_end_blk5 0664                      __ccov141_end_blk7 06E8  
                                   l21 0F26                                     l15 04A0  
                                   l18 0F17                           ___awdiv@sign 004D  
                  ___wmul@multiplicand 0077                  __ccov111_start_blk106 0400  
                    __ccov302_end_blk0 0F33                      __ccov310_end_blk1 0F95  
                    __ccov134_end_blk3 0F68                      __ccov126_end_blk6 0668  
                    __ccov142_end_blk8 06EB                     __ccov213_end_blk32 012B  
                   __ccov205_end_blk19 00F3                     __ccov221_end_blk46 0169  
                                  l200 03C4                                    l203 03E9  
                                  l222 0F66                                    l231 070A  
                                  l400 0FED                                    l225 06DC  
                                  l219 0692                                    l227 06E0  
                                  l243 051C                                    l403 0FFD  
                                  l228 06ED                                    l237 051A  
                                  l246 0F11                                    l431 0F3F  
                                  l249 0F0D                                    l353 013E  
                                  l434 0F47                                    l370 0251  
                                  l363 01A1                                    l355 014A  
                                  l428 0F56                                    l365 01C9  
                                  l462 0F75                                    l471 0F20  
                                  l624 0FC7                                    l456 0F33  
                                  l376 02AA                                    l465 0F95  
                                  l626 0FDB                                    l474 0F1B  
                                  l459 0F3B                                    l468 0F85  
                  __end_of_Click_reset 0F19                                    l397 0FBA  
                                  l790 064D                                    l777 05FA  
                                  _PR2 001B                                    u530 0F44  
                                  u610 0FF1                                    u531 0F43  
                                  u611 0FF0                                    u620 06E0  
                                  u621 06DF                                    u630 06F1  
                                  u631 06F0                                    u720 0FD7  
                                  u721 0FD6                                    u705 0FC8  
                                  u715 0FCD                                    u900 063F  
                                  u901 063E                                    u910 0644  
                                  u830 0600                                    u911 0643  
                                  u831 05FF                                    u840 060B  
                                  u841 060A                                    u690 0FC3  
                                  u850 0616                                    u691 0FC2  
                                  u851 0615                                    u940 0655  
                                  u941 0654                                    u950 0661  
                                  u870 0626                                    u951 0660  
                                  u871 0625                                    u880 0630  
                                  u881 062F                                    u865 061A  
                                  u885 062C                                    u895 0635  
                 __ccov182_start_blk12 0038                   __ccov166_start_blk22 051A  
                 __ccov238_start_blk71 01CC                   __ccov246_start_blk84 0203  
                 __ccov254_start_blk93 0255                      __ccov135_end_blk0 06D6  
                    __ccov151_end_blk0 04B0                      __ccov303_end_blk1 0F36  
                    __ccov311_end_blk2 0F98                      __ccov127_end_blk8 067B  
                    __ccov143_end_blk9 06EC                           ___awmod@sign 007B  
                   __ccov14_start_blk3 02B6                                    wreg 0009  
                    __ccov304_end_blk0 0F3B                      __ccov312_end_blk0 0F7D  
                    __ccov136_end_blk1 06DB                      __ccov152_end_blk1 04B5  
                    __ccov128_end_blk9 0686                  _set_watchdog_timer_1s 0F68  
                _set_watchdog_timer_4s 0F88                     __ccov206_end_blk20 00F7  
                   __ccov214_end_blk33 0132                     __ccov150_end_blk19 070C  
                   __ccov230_end_blk61 01AE                     __ccov222_end_blk48 0174  
                         int2bcd@comma 0053                    __ccov109_end_blk104 03F9  
                                 l1120 059A                                   l2000 0FF8  
                                 l2010 06DB                                   l2002 0FFA  
                                 l2004 0F19                                   l2020 06EC  
                                 l2012 06E2                                   l2022 06EC  
                                 l2014 06E4                                   l2006 06D4  
                                 l1126 07C3                                   l2200 0657  
                                 l2032 0F10                                   l2024 06F1  
                                 l2016 06E8                                   l2008 06D6  
                                 l2210 067B                                   l2202 065B  
                                 l2026 0702                                   l2018 06EB  
                                 l1138 06D3                                   l3010 01EC  
                                 l2130 0600                                   l2212 0686  
                                 l2204 0661                                   l2220 0F50  
                                 l2028 0704                                   l3020 0234  
                                 l3012 01FB                                   l2140 0616  
                                 l2132 0605                                   l3100 02CC  
                                 l2070 0FBF                                   l2206 0664  
                                 l2230 0F55                                   l2222 0F51  
                                 l3022 0241                                   l3014 0203  
                                 l3006 01E7                                   l2150 0630  
                                 l2142 0619                                   l2134 0607  
                                 l2126 05FB                                   l3110 02D2  
                                 l3102 02CE                                   l1087 0FA9  
                                 l2072 0FC3                                   l2208 0668  
                                 l2224 0F52                                   l2216 0F4A  
                                 l2064 0F0C                                   l3032 025A  
                                 l3024 0243                                   l3016 020B  
                                 l3008 01EA                                   l2160 0649  
                                 l2152 0634                                   l2144 061E  
                                 l2136 060B                                   l2128 05FC  
                                 l3200 035A                                   l3120 02DA  
                                 l3112 02D3                                   l3104 02CF  
                                 l2074 0FCC                                   l2226 0F53  
                                 l2218 0F4D                                   l2066 0F1E  
                                 l3034 0263                                   l3026 024C  
                                 l3018 0224                                   l3042 027E  
                                 l2154 0639                                   l2146 0622  
                                 l2138 0610                                   l3210 0399  
                                 l3202 035B                                   l3130 02E0  
                                 l3122 02DB                                   l3114 02D5  
                                 l3106 02D0                                   l2076 0FD1  
                                 l2068 0FBD                                   l2228 0F54  
                                 l3036 026C                                   l3028 0255  
                                 l2148 0626                                   l2156 063F  
                                 l2180 0F65                                   l3220 03B0  
                                 l3212 039B                                   l3204 0363  
                                 l3140 02EB                                   l3132 02E5  
                                 l3124 02DC                                   l3116 02D7  
                                 l3108 02D1                                   l3060 02B5  
                                 l2174 0F14                                   l2078 0FD7  
                                 l3038 0275                                   l2158 0644  
                                 l2190 0FB4                                   l2182 0FAA  
                                 l3230 03BA                                   l3222 03B1  
                                 l3214 03A4                                   l3206 037C  
                                 l3150 02F1                                   l3142 02EC  
                                 l3134 02E6                                   l3126 02DE  
                                 l3118 02D8                                   l3070 02BD  
                                 l3062 02B6                                   l2192 0FB6  
                                 l2184 0FAD                                   l2176 0F59  
                                 l3240 03CF                                   l3232 03BC  
                                 l3224 03B2                                   l3216 03A7  
                                 l3208 038C                                   l3160 0307  
                                 l3152 0300                                   l3144 02ED  
                                 l3136 02E7                                   l3128 02DF  
                                 l3080 02C2                                   l3072 02BE  
                                 l3064 02BA                                   l3056 02AD  
                                 l2194 0FB8                                   l2186 0FB1  
                                 l2178 0F5C                                   l3250 03F2  
                                 l3242 03D1                                   l3234 03BE  
                                 l3226 03B5                                   l3218 03AC  
                                 l3170 030F                                   l3162 0308  
                                 l3154 0302                                   l3146 02EE  
                                 l3138 02E9                                   l3090 02C7  
                                 l3082 02C3                                   l3074 02BF  
                                 l3066 02BB                                   l3058 02B2  
                                 l2196 0650                                   l2188 0FB2  
                                 l3252 03F9                                   l3236 03C0  
                                 l3228 03B8                                   l3180 0323  
                                 l3172 0311                                   l3164 030A  
                                 l3156 0304                                   l3148 02F0  
                                 l3092 02C8                                   l3084 02C4  
                                 l3076 02C0                                   l3068 02BC  
                                 l2198 0655                                   l3254 0400  
                                 l3238 03CE                                   l3246 03D6  
                                 l3190 0338                                   l3182 0324  
                                 l3174 0314                                   l3166 030B  
                                 l3158 0306                                   l3094 02C9  
                                 l3086 02C5                                   l3078 02C1  
                                 l1904 0F3F                                   l2800 0F9D  
                                 l3256 040B                                   l3248 03ED  
                                 l3192 0340                                   l3184 0328  
                                 l3176 0317                                   l3168 030E  
                                 l3096 02CA                                   l3088 02C6  
                                 l1906 0F44                                   l2810 0F8D  
                                 l3258 0411                                   l3194 0348  
                                 l3186 032B                                   l3178 031A  
                                 l3098 02CB                                   l2740 0694  
                                 l2804 0F68                                   l2812 0F78  
                                 l2820 04B5                                   l2900 0096  
                                 l3196 0354                                   l3188 032E  
                                 l2750 06CB                                   l2742 0699  
                                 l2806 0F6D                                   l2814 0F7D  
                                 l2830 04E0                                   l2822 04BA  
                                 l2910 00B1                                   l2902 0097  
                                 l3198 0355                                   l2744 069E  
                                 l2760 053E                                   l2808 0F88  
                                 l2840 0502                                   l2832 04E5  
                                 l2824 04C8                                   l2816 04A2  
                                 l2920 00CE                                   l2912 00B9  
                                 l2904 009D                                   l2850 05A1  
                                 l2746 06A3                                   l2762 0542  
                                 l2754 0520                                   l2842 0510  
                                 l2834 04EA                                   l2826 04CD  
                                 l2818 04B0                                   l3490 0287  
                                 l2930 00EF                                   l2922 00D5  
                                 l2914 00BC                                   l2906 00A2  
                                 l2860 05B5                                   l2852 05A6  
                                 l2748 06AD                                   l2780 0590  
                                 l2764 0553                                   l2772 056C  
                                 l2756 0532                                   l2844 0515  
                                 l2836 04F8                                   l2828 04D2  
                                 l2940 0111                                   l2932 00F3  
                                 l2924 00DE                                   l2916 00C1  
                                 l2908 00AA                                   l1972 0F23  
                                 l2870 05C9                                   l2862 05B7  
                                 l2854 05A8                                   l2846 059B  
                                 l1974 0F2E                                   l2774 0574  
                                 l2766 055B                                   l2758 053A  
                                 l2790 07A5                                   l2838 04FD  
                                 l2950 0132                                   l2942 0118  
                                 l2934 00F7                                   l2926 00E2  
                                 l2918 00C5                                   l1990 0FDE  
                                 l3486 03E1                                   l2880 05E6  
                                 l2872 05CD                                   l2864 05BD  
                                 l2856 05AC                                   l2848 059D  
                                 l2768 0566                                   l2792 07B6  
                                 l1976 0F36                                   l3488 015E  
                                 l2952 0139                                   l2944 011E  
                                 l2936 00FB                                   l2928 00EB  
                                 l1992 0FE1                                   l2874 05DC  
                                 l2866 05C0                                   l2882 05EC  
                                 l2858 05B1                                   l2778 0577  
                                 l2794 07BF                                   l2786 079E  
                                 l2970 017F                                   l2954 0140  
                                 l2962 0156                                   l2946 0127  
                                 l2938 0104                                   l1994 0FE7  
                                 l2890 0418                                   l2884 05F1  
                                 l2876 05E0                                   l2868 05C5  
                                 l2788 07A2                                   l2980 01AE  
                                 l2972 0186                                   l2956 014C  
                                 l2964 0169                                   l2948 012B  
                                 l1996 0FF1                                   l2892 0426  
                                 l2886 05F6                                   l2878 05E1  
                                 l2798 0F98                                   l2990 01C5  
                                 l2982 01B1                                   l2974 0193  
                                 l2966 0174                                   l1998 0FF2  
                                 l2894 042C                                   l2992 01CC  
                                 l2984 01B6                                   l2976 019A  
                                 l2968 017C                                   l2896 0465  
             getBatteryVoltage@adc_val 007A                                   l2994 01D2  
                                 l2986 01BF                                   l2978 01A5  
                                 l2898 0496                                   l2996 01DB  
                                 l2988 01C1                                   l2998 01DC  
                                 STR_1 0773                                   STR_2 07E9  
                                 STR_3 111F                                   STR_4 10F3  
                                 STR_5 1147                                   STR_6 103E  
                                 STR_7 070C                                   STR_8 101F  
                                 STR_9 105C                      __ccov305_end_blk1 0F3E  
                    __ccov313_end_blk1 0F85                      __ccov137_end_blk2 06DC  
                    __ccov153_end_blk2 04BA                                   _BRGH 0CF2  
                                 u1200 0553                                   u1201 0552  
                                 u1210 07BF                                   u1211 07BE  
                                 u1220 04B0                                   u1221 04AF  
                                 u1310 05CD                                   u1150 0699  
                                 u1230 04C8                                   u1311 05CC  
                                 u1151 0698                                   u1231 04C7  
                                 u1160 069E                                   u1240 04E0  
                                 u1400 0111                                   u1305 05C1  
                                 u1161 069D                                   u1241 04DF  
                                 u1225 04AC                                   u1401 0110  
                                 u1330 05DC                                   u1170 06AD  
                                 u1250 04F8                                   u1410 0139  
                                 u1331 05DB                                   u1171 06AC  
                                 u1251 04F7                                   u1235 04C4  
                                 u1411 0138                                   u1180 06CB  
                                 u1260 0510                                   u1420 0193  
                                 u1500 03F9                                   u1325 05CE  
                                 u1181 06CA                                   u1261 050F  
                                 u1245 04DC                                   u1421 0192  
                                 u1405 010D                                   u1501 03F8  
                                 u1350 05EC                                   u1270 05A1  
                                 u1190 0532                                   u1430 01C5  
                                 u1510 0400                                   u1351 05EB  
                                 u1335 05D8                                   u1271 05A0  
                                 u1191 0531                                   u1255 04F4  
                                 u1431 01C4                                   u1511 03FF  
                                 u1360 05F1                                   u1280 05AC  
                                 u1440 01FB                                   u1361 05F0  
                                 u1345 05E2                                   u1281 05AB  
                                 u1185 06C7                                   u1265 050C  
                                 u1441 01FA                                   u1425 018F  
                                 u1290 05BD                                   u1370 0426  
                                 u1291 05BC                                   u1371 0425  
                                 u1460 0241                                   u1380 042C  
                                 u1461 0240                                   u1445 01F7  
                                 u1381 042B                                   u1390 00DE  
                                 u1455 021C                                   u1391 00DD  
                                 u1375 0422                                   u1527 034E  
                                 u1480 0399                                   u1465 023D  
                                 u1537 039F                                   u1481 0398  
                                 u1490 03ED                                   u1547 0FE4  
                                 u1491 03EC                                   u1475 0374  
                                 u1557 0FF5                                   u1485 0395  
                                 u1567 0247                                   u1577 06E5  
                                 _INTE 005C                                   _INTF 0059  
                                 _PIR1 0011                                   _PIR2 0012  
                                 _PIR3 0013                                   _PIR4 0014  
                                 _SCKP 0CFC                                   _SPEN 0CEF  
                                 _TXEN 0CF5                                   _TXIF 008C  
                                 _SYNC 0CF4                          _state_machine 0048  
                                 _dbuf 00A0                      __ccov170_end_blk0 0F0D  
                    __ccov306_end_blk0 0F6D                      __ccov314_end_blk2 0F88  
                    __ccov138_end_blk4 06E0                      __ccov154_end_blk4 04C8  
                                 _main 02AD                     __ccov207_end_blk21 00FB  
                                 _prec 002C                     __ccov223_end_blk50 017C  
                   __ccov215_end_blk34 0139                     __ccov231_end_blk62 01B1  
                                 _nout 0028                                   fsr0h 0005  
                                 fsr1h 0007                                   indf0 0000  
                                 fsr0l 0004                                   indf1 0001  
                                 fsr1l 0006                                   btemp 007E  
       ??_watch_dog_incrementing_timer 0061                    __ccov22_start_blk11 02C1  
                  __ccov30_start_blk19 02C9                        __end_of_PWM_set 0694  
                                 start 0071                      __ccov315_end_blk0 0F20  
                    __ccov171_end_blk1 0F10                      __ccov307_end_blk1 0F75  
                    __ccov139_end_blk5 06E2                      __ccov155_end_blk5 04CD  
              ??_enable_watchdog_timer 0075                     __ccov15_start_blk4 02BA  
                    __ccov316_end_blk1 0F23                      __ccov308_end_blk2 0F78  
                    __ccov156_end_blk6 04D2                     __ccov160_end_blk12 04F8  
                   __ccov208_end_blk22 0104                     __ccov224_end_blk51 017F  
                   __ccov216_end_blk35 013E                     __ccov232_end_blk63 01B6  
                   __ccov240_end_blk73 01DC                    __ccov121_start_blk0 064E  
                  __ccov85_start_blk74 0363                    __ccov77_start_blk66 032E  
                  __ccov69_start_blk58 0311                    __ccov93_start_blk83 03B0  
                 __ccov200_start_blk13 00CE                   __ccov104_start_blk95 03CF  
                    __ccov317_end_blk0 0F1B                      __ccov309_end_blk0 0F8D  
                    __ccov261_end_blk0 0FAD                      __ccov157_end_blk8 04E0  
                        int2bcd@number 0051                                  ?_main 0073  
                    __ccov174_end_blk0 000A                      __ccov190_end_blk0 0097  
                    __ccov318_end_blk1 0F1E                      __ccov270_end_blk1 0FE7  
                    __ccov262_end_blk1 0FB1                      __ccov158_end_blk9 04E5  
                      __end_of___awdiv 05FB                                  STR_10 115A  
                                STR_11 1133                                  STR_20 1094  
                                STR_12 1000                                  STR_13 10DC  
                                STR_21 10AC                                  STR_22 107A  
                                STR_14 07C4                                  STR_15 116C  
                                STR_16 110A                                  _BRG16 0CFB  
                                STR_17 10C4                                  STR_18 117E  
                                STR_19 118F                        __end_of___awmod 064E  
                   __ccov129_end_blk10 0692                     __ccov145_end_blk11 06ED  
                   __ccov161_end_blk13 04FD                     __ccov209_end_blk25 0111  
                   __ccov225_end_blk52 0186                     __ccov217_end_blk36 0140  
                   __ccov233_end_blk64 01BF                     __ccov241_end_blk74 01E7  
                         __ccovbit92_8 038C                           __ccovbit79_7 038D  
                         __ccovbit96_9 038B                           __ccovbit1_27 0137  
                         __ccovbit2_20 0380                           __ccovbit1_28 0136  
                         __ccovbit1_29 0135                           __ccovbit2_14 0386  
                      ___awdiv@divisor 0075                           __ccovbit1_73 0109  
                         __ccovbit1_74 0108                           __ccovbit1_68 010E  
                         __ccovbit1_69 010D                           __ccovbit3_30 0134  
                         __ccovbit2_70 010C                           __ccovbit2_71 010B  
                         __ccovbit2_72 010A                           __ccovbit3_18 0382  
                         __ccovbit4_38 012C                           __ccovbit6_21 013D  
                         __ccovbit6_15 0385                           __ccovbit5_39 012B  
                                _IOCAF 0393                                  _IOCBF 0396  
                         __ccovbit5_67 010F                           __ccovbit7_31 0133  
                         __ccovbit7_64 0112                           __ccovbit8_66 0110  
                                i1l260 0035                                  i1l263 0056  
                                i1l265 006D                                  i1l257 0038  
                                i1l259 0011                        ___awdiv@counter 004C  
                 __ccov159_start_blk10 04E5                   __ccov183_start_blk13 003D  
                 __ccov167_start_blk24 051C                   __ccov239_start_blk72 01D2  
                         vfpfcnvrt@fmt 0051                   __ccov247_start_blk85 020B  
                 __ccov255_start_blk97 025A                                  _SPBRG 019B  
                                _TXREG 019A                      __ccov175_end_blk1 0011  
                    __ccov191_end_blk2 009D                      __ccov271_end_blk2 0FED  
                    __ccov263_end_blk2 0FB2                     __ccov16_start_blk5 02BB  
                 __size_of_checkState1 0217                        __end_of_int2bcd 04A2  
                    __ccov168_end_blk0 0F11                      __ccov280_end_blk2 0F51  
                    __ccov176_end_blk3 001B                      __ccov192_end_blk3 00A2  
                    __ccov264_end_blk3 0FB4                      __ccov272_end_blk4 0FF1  
                   __size_of_UART_init 000F                     __ccov146_end_blk13 06F1  
                   __ccov162_end_blk14 0502                                  _flags 002E  
                   __ccov218_end_blk37 014A                     __ccov226_end_blk55 0193  
                   __ccov242_end_blk80 01EA                     __ccov234_end_blk66 01C1  
                   __ccov250_end_blk88 0243                    __ccov122_start_blk1 0655  
                                _fputc 0694                                  _width 002A  
                                _putch 0F3E                      __ccov169_end_blk1 0F14  
                    __ccov281_end_blk3 0F52                      __ccov193_end_blk4 00AA  
                    __ccov265_end_blk4 0FB6                      __ccov177_end_blk5 001C  
                    __ccov273_end_blk6 0FF2                         __pbitbssCOMMON 0380  
                                status 0003                                  wtemp0 007E  
                    __ccov282_end_blk4 0F53                      __ccov290_end_blk5 0F4A  
                    __ccov194_end_blk5 00B1                      __ccov266_end_blk5 0FB8  
                    __ccov178_end_blk6 001E                      __ccov274_end_blk7 0FF8  
                   __ccov147_end_blk15 0702                     __ccov163_end_blk16 0510  
                   __ccov219_end_blk38 014C                     __ccov227_end_blk56 019A  
                   __ccov243_end_blk81 01EC                     __ccov235_end_blk67 01C5  
                   __ccov251_end_blk89 024C                         __pcodecov_info 0000  
                       _state_selftest 0042                    __ccov31_start_blk20 02CA  
                  __ccov23_start_blk12 02C2                      __ccov283_end_blk5 0F54  
                    __ccov267_end_blk6 0FBA                      __ccov179_end_blk7 0023  
                    __ccov195_end_blk7 00B9                      __ccov275_end_blk8 0FFA  
                   __ccov17_start_blk6 02BC                        __initialization 0076  
                    __ccov284_end_blk6 0F55                      __ccov268_end_blk7 0FBD  
                    __ccov196_end_blk8 00BC                      __ccov276_end_blk9 0FFD  
                         __end_of_main 0418                     __ccov180_end_blk10 0035  
                   __ccov148_end_blk16 0704                     __ccov164_end_blk17 0515  
                   __ccov252_end_blk90 0251                     __ccov244_end_blk82 01FB  
                   __ccov228_end_blk58 01A1                     __ccov236_end_blk68 01C9  
                          _Click_reset 0F14                    __ccov131_start_blk0 0F59  
                  __ccov123_start_blk2 0657                _set_watchdog_timer_256s 0F78  
                  __ccov86_start_blk75 037C                    __ccov78_start_blk67 0338  
                  __ccov94_start_blk84 03B1                   __ccov201_start_blk14 00D5  
                 __ccov105_start_blk96 03D1                      __ccov269_end_blk0 0FE1  
                    __ccov285_end_blk7 0F56                      __ccov197_end_blk9 00C1  
                __ccov112_start_blk107 040B                                 ??_main 0064  
                    __ccov278_end_blk0 0F4D                      __ccov286_end_blk8 0F59  
                   __ccov181_end_blk11 0038                     __ccov149_end_blk17 070A  
                   __ccov165_end_blk18 051A                     __ccov229_end_blk60 01A5  
                   __ccov253_end_blk91 0255                     __ccov245_end_blk83 0203  
                   __ccov237_end_blk69 01CC                   __ccov184_start_blk14 0043  
                 __ccov248_start_blk86 0224                   __ccov256_start_blk99 0263  
                    __ccov279_end_blk1 0F50                 ?_set_watchdog_timer_1s 0073  
               ?_set_watchdog_timer_4s 0073                     __ccov18_start_blk7 02BD  
           ?_enable_external_interrupt 0073                      __ccov288_end_blk2 0F44  
                   __ccov182_end_blk12 003D                     __ccov166_end_blk22 051C  
                   __ccov238_end_blk71 01D2                     __ccov246_end_blk84 020B  
                   __ccov254_end_blk93 025A                          __ccovbit10_22 013C  
                        __ccovbit10_16 0384                          __ccovbit11_32 0132  
                        __ccovbit11_40 012A                          __ccovbit10_65 0111  
                               ?_fputc 0076                          __ccovbit13_33 0131  
                        __ccovbit14_23 013B                                 _ADRESH 009C  
                        __ccovbit14_17 0383                          __ccovbit22_25 0139  
                        __ccovbit22_42 0128                                 _ADRESL 009B  
                  __ccov132_start_blk1 0F5C                          __ccovbit22_37 012D  
                        __ccovbit30_45 0125                    __ccov124_start_blk4 065B  
                  __ccov140_start_blk6 06E2                          __ccovbit15_34 0130  
                        __ccovbit16_41 0129                          __ccovbit24_26 0138  
                               _CCPR1L 0291                          __ccovbit17_35 012F  
                        __ccovbit18_24 013A                          __ccovbit26_43 0127  
                        __ccovbit19_19 0381                          __ccovbit19_36 012E  
                        __ccovbit28_44 0126                          __ccovbit52_49 0121  
                        __ccovbit37_46 0124                       ___awdiv@dividend 0077  
                        __ccovbit39_47 0123                          __ccovbit56_50 0120  
                        __ccovbit64_52 011E                          __ccovbit48_48 0122  
                        __ccovbit58_51 011F                          __ccovbit82_55 011B  
                        __ccovbit90_56 011A                          __ccovbit91_57 0119  
                        __ccovbit68_53 011D                          __ccovbit69_54 011C  
                        __ccovbit93_58 0118                                 _ANSELA 018C  
                               ?_putch 0073                                 _ANSELC 018E  
                        __ccovbit97_59 0117                          __ccovbit99_60 0116  
                            ??_PWM_set 007B                                 u110_20 0010  
                               u110_21 000F                                 u111_20 003D  
                               u111_21 003C                                 u112_20 0043  
                               u112_21 0042                                 u113_20 0050  
                               i1l2600 000A                                 u113_21 004F  
                    __ccov289_end_blk4 0F47                                 i1l2620 0064  
                               i1l2604 001B                                 i1l2612 0023  
                               u113_25 004C                                 i1l2622 006A  
                               i1l2614 003D                                 i1l2606 001C  
                               u114_20 0064                                 i1l2616 0043  
                               i1l2608 001E                                 u114_21 0063  
                               i1l2618 0050                                 u114_25 0060  
                               i1l3492 002D                                 i1l2598 0006  
                               u109_20 000A                                 u109_21 0009  
                               _FVRCON 0117                       __ccov10_end_blk1 0F28  
                   __ccov159_end_blk10 04EA                     __ccov183_end_blk13 0043  
                   __ccov167_end_blk24 051F                     __ccov239_end_blk72 01DB  
                   __ccov247_end_blk85 0224                     __ccov255_end_blk97 0263  
                     __ccov11_end_blk0 02B2                     _DoorStateAfterPrel 0046  
                  __ccov32_start_blk21 02CB                    __ccov24_start_blk13 02C3  
                  __ccov40_start_blk29 02D5              __size_of_Click_latch_data 0005  
                     __ccov12_end_blk1 02B5                       __ccov20_end_blk9 02C0  
                   __ccov19_start_blk8 02BE                           vfprintf@cfmt 005C  
                               ___wmul 0FBD                     __ccov184_end_blk14 0050  
                    __end_of_UART_init 0F59                     __ccov248_end_blk86 0234  
                            ??___awdiv 0079                     __ccov256_end_blk99 026C  
                            ??___awmod 0079                       __ccov13_end_blk2 02B6  
                  __ccov133_start_blk2 0F65                    __ccov125_start_blk5 0661  
                  __ccov141_start_blk7 06E4                           ?_timer2_init 0073  
                  __ccov87_start_blk76 038C                    __ccov79_start_blk68 0340  
                  __ccov95_start_blk85 03B2                   __ccov130_start_blk14 0692  
                 __ccov202_start_blk15 00DE                   __ccov210_start_blk26 0111  
                 __ccov106_start_blk99 03D6                       ___awdiv@quotient 004E  
                      ___awmod@divisor 0075                       __ccov14_end_blk3 02BA  
                               _my_isr 0004                        ___awmod@counter 007A  
                               _printf 0F98                       _C7SEG_CHAR_TABLE 0740  
                            ??_int2bcd 0054                     __ccov185_end_blk15 0056  
                   __ccov249_end_blk87 0241                       __ccov15_end_blk4 02BB  
                               fputc@c 0076                   __ccov185_start_blk15 0050  
                 __ccov249_start_blk87 0234                       __ccov16_end_blk5 02BC  
                     __end_of_vfprintf 07C4                     __ccov186_end_blk16 0064  
               _NewStateChangeDetected 0396                       __ccov17_end_blk6 02BD  
                  __ccov302_start_blk0 0F2E                    __ccov310_start_blk1 0F8D  
                  __ccov134_start_blk3 0F66                    __ccov126_start_blk6 0664  
                  __ccov142_start_blk8 06E8                       __ccov18_end_blk7 02BE  
              __end_of__initialization 0092                     __ccov187_end_blk17 006A  
                     __ccov19_end_blk8 02BF                    __ccov41_start_blk30 02D7  
                  __ccov33_start_blk22 02CC                    __ccov25_start_blk14 02C4  
            ??_set_watchdog_timer_256s 007D                     _state_output_pulse 0043  
                       __pcstackCOMMON 0073                      PWM_set@duty_cycle 004E  
                   __ccov188_end_blk19 006D                    __ccov135_start_blk0 06D4  
                  __ccov151_start_blk0 04A2                    __ccov303_start_blk1 0F33  
                  __ccov311_start_blk2 0F95                    __ccov127_start_blk8 0668  
                  __ccov143_start_blk9 06EB                    __ccov260_end_blk108 02AD  
                        __end_of_fputc 06D4                    __ccov88_start_blk77 0399  
                  __ccov96_start_blk86 03B5                           __pbitnvBANK0 0338  
                 __ccov203_start_blk16 00E2                   __ccov211_start_blk28 0118  
                        __end_of_putch 0F4A               _set_watchdog_timer_128ms 0F2E  
             _set_watchdog_timer_256ms 0F36                  __ccov113_start_blk110 0411  
                   __ccov277_end_blk10 1000                     __ccov189_end_blk22 0071  
                       _OPTION_REGbits 0095                   __ccov186_start_blk16 0056  
                      __ccov1_end_blk0 0426                                ??_fputc 004C  
                   __ccov198_end_blk10 00C5                    __ccov304_start_blk0 0F36  
                  __ccov312_start_blk0 0F78                    __ccov136_start_blk1 06D6  
                  __ccov152_start_blk1 04B0                    __ccov128_start_blk9 067B  
                              ??_putch 0075                             __pbssBANK0 0028  
                           __pbssBANK1 00A0               ??_disable_watchdog_timer 0075  
                      __ccov2_end_blk1 042C                        _NewDoorPolarity 0395  
                      __ccov3_end_blk2 0465                     __ccov199_end_blk11 00CE  
                  __ccov42_start_blk31 02D8                    __ccov34_start_blk23 02CE  
                  __ccov26_start_blk15 02C5                    __ccov50_start_blk39 02E6  
                      __ccov4_end_blk4 0496                             __pmaintext 02AD  
       __size_of_enable_watchdog_timer 0005                     __size_of_spi1_init 0013  
        __end_of_enable_watchdog_timer 0F23                     __size_of_spi1_send 0024  
                              ?___wmul 0075                        __ccov5_end_blk7 04A0  
                           __pintentry 0004                         __ccovbit102_10 038A  
                       __ccovbit110_13 0387                         __ccovbit101_61 0115  
                       __ccovbit103_62 0114                         __ccovbit105_11 0389  
                  __ccov305_start_blk1 0F3B                    __ccov313_start_blk1 0F7D  
                  __ccov137_start_blk2 06DB                    __ccov153_start_blk2 04B5  
                       __ccovbit107_12 0388                         __ccovbit108_63 0113  
                  __ccov89_start_blk78 039B                    __ccov97_start_blk87 03B8  
                 __ccov212_start_blk30 011E                   __ccov204_start_blk18 00EB  
                 __ccov220_start_blk39 014C                        __ccov6_end_blk9 04A2  
                              ?_my_isr 0073                                ?_printf 005E  
                     main@display_char 0044                        __ccov7_end_blk0 0F17  
      __end_of_set_watchdog_timer_256s 0F88                   __ccov187_start_blk17 0064  
                      __ccov8_end_blk1 0F19                     __size_of_vfpfcnvrt 007C  
                  _DoorStateBeforePrel 0047                                _SSP1BUF 0211  
                      __ccov9_end_blk0 0F26                    __ccov170_start_blk0 0F0C  
                  __ccov306_start_blk0 0F68                    __ccov314_start_blk2 0F85  
                  __ccov138_start_blk4 06DC                    __ccov154_start_blk4 04BA  
                              _PWM_set 064E                      __ccov1_start_blk0 0418  
                  __ccov51_start_blk40 02E7                    __ccov43_start_blk32 02DA  
                  __ccov35_start_blk24 02CF                    __ccov27_start_blk16 02C6  
                     _Click_latch_data 0F23           ??_disable_external_interrupt 0075  
                         ?_Click_reset 0073                                ___awdiv 059B  
                              ___awmod 05FB                        __size_of___wmul 001F  
                            ?_vfprintf 0058                    __ccov315_start_blk0 0F1E  
                  __ccov171_start_blk1 0F0D                    __ccov307_start_blk1 0F6D  
                  __ccov139_start_blk5 06E0                    __ccov155_start_blk5 04C8  
                  __ccov98_start_blk88 03BA                      __ccov21_end_blk10 02C1  
                 __ccov213_start_blk32 0127                   __ccov205_start_blk19 00EF  
                 __ccov221_start_blk46 0156                                __ptext1 0F59  
                              __ptext2 0FAA                                __ptext3 0418  
                              __ptext4 0FDC                                __ptext5 0F23  
                              __ptext6 05FB                                __ptext7 0096  
                              __ptext8 04A2                                __ptext9 0F88  
                 __size_of_timer2_init 000F                        __size_of_my_isr 006D  
              ??_set_watchdog_timer_1s 007D                ??_set_watchdog_timer_4s 007D  
                        ??_checkState1 0062                        __size_of_printf 0012  
                              _int2bcd 0418                      __ccov2_start_blk1 0426  
                            _T2CONbits 001C                       ___awmod@dividend 0077  
                 __ccov188_start_blk19 006A                      __ccov22_end_blk11 02C2  
                    __ccov30_end_blk19 02CA                             _millivolts 0040  
                            _MDCONbits 039C            ??_enable_external_interrupt 0075  
                    __end_of_spi1_init 0FBD                     _write2display_copy 007D  
                    __end_of_spi1_send 1000                                clrloop0 0F29  
                 end_of_initialization 0092                    __ccov316_start_blk1 0F20  
                  __ccov308_start_blk2 0F75                    __ccov156_start_blk6 04CD  
                  __ccov257_end_blk101 0275                      __ccov31_end_blk20 02CB  
                    __ccov23_end_blk12 02C3        __size_of_disable_watchdog_timer 0005  
                            _MDSRCbits 039D    __size_of_disable_external_interrupt 0004  
                              fputc@fp 0078               __end_of_C7SEG_CHAR_TABLE 0773  
                __ccov257_start_blk101 026C                      __ccov3_start_blk2 042C  
                    __ccov32_end_blk21 02CC                      __ccov24_end_blk13 02C4  
                    __ccov40_end_blk29 02D7                    __ccov52_start_blk41 02E9  
                  __ccov44_start_blk33 02DB                    __ccov36_start_blk25 02D0  
                  __ccov28_start_blk17 02C7                    __ccov60_start_blk49 0302  
                    __end_of_vfpfcnvrt 059B                              _RCSTAbits 019D  
                           ??_vfprintf 007A                    __ccov317_start_blk0 0F19  
                  __ccov309_start_blk0 0F88                    __ccov261_start_blk0 0FAA  
                   _sleep_256s_counter 0032                    __ccov157_start_blk8 04D2  
                  __ccov258_end_blk103 027E                    __ccov99_start_blk89 03BC  
                    __ccov41_end_blk30 02D8                      __ccov33_end_blk22 02CE  
                    __ccov25_end_blk14 02C5                   __ccov206_start_blk20 00F3  
                 __ccov214_start_blk33 012B                   __ccov150_start_blk19 070A  
                 __ccov230_start_blk61 01A5                   __ccov222_start_blk48 0169  
                            _PORTAbits 000C                              _UART_init 0F4A  
                    __ccov4_start_blk4 0465                          _WakeUpCounter 0030  
                 __ccov277_start_blk10 0FFD                   __ccov189_start_blk22 006D  
                            _TRISAbits 008C                              _TRISBbits 008D  
                    __ccov42_end_blk31 02DA                      __ccov34_end_blk23 02CF  
                    __ccov26_end_blk15 02C6                      __ccov50_end_blk39 02E7  
                            _TRISCbits 008E                    __end_of_checkState1 02AD  
                           _state_door 0049                    __ccov174_start_blk0 0004  
                  __ccov190_start_blk0 0096                    __ccov318_start_blk1 0F1B  
                  __ccov270_start_blk1 0FE1                    __ccov262_start_blk1 0FAD  
                  __ccov158_start_blk9 04E0                    __ccov259_end_blk106 02AA  
                    __ccov51_end_blk40 02E9                      __ccov43_end_blk32 02DB  
                    __ccov35_end_blk24 02D0                      __ccov27_end_blk16 02C7  
                          _CM1CON0bits 0111                         spi1_send@data1 0050  
                       spi1_send@data2 007C                            _CCP1CONbits 0293  
                          _CM2CON0bits 0113                              _TXSTAbits 019E  
                    __ccov5_start_blk7 0496                              _PWMtoggle 0397  
           ??_set_watchdog_timer_128ms 0075             ??_set_watchdog_timer_256ms 0075  
                           main@pwm_dc 0045                      __ccov52_end_blk41 02EB  
                    __ccov44_end_blk33 02DC                      __ccov36_end_blk25 02D1  
                    __ccov28_end_blk17 02C8                    __ccov61_start_blk50 0304  
                  __ccov53_start_blk42 02EB                    __ccov45_start_blk34 02DC  
                  __ccov37_start_blk26 02D1                    __ccov29_start_blk18 02C8  
                    __ccov60_end_blk49 0304              _enable_external_interrupt 0F10  
                          __ccovbit2_1 0393                            __ccovbit1_5 038F  
                          __ccovbit1_6 038E                            __ccovbit4_2 0392  
                          __ccovbit7_3 0391                            __ccovbit9_4 0390  
                          vfpfcnvrt@ap 0052                            vfpfcnvrt@fp 0079  
                       __end_of___wmul 0FDC                    __ccov175_start_blk1 000A  
                  __ccov191_start_blk2 0097                    __ccov271_start_blk2 0FE7  
                  __ccov263_start_blk2 0FB1                 _disable_watchdog_timer 0F19  
                    __ccov61_end_blk50 0306                      __ccov53_end_blk42 02EC  
                    __ccov45_end_blk34 02DE                      __ccov37_end_blk26 02D2  
                    __ccov29_end_blk18 02C9                   __ccov207_start_blk21 00F7  
                 __ccov223_start_blk50 0174                   __ccov215_start_blk34 0132  
                 __ccov231_start_blk62 01AE                             ?_UART_init 0073  
                        __pbitbssBANK0 0108                         __end_of_my_isr 0071  
                __ccov107_start_blk101 03E9                         __end_of_printf 0FAA  
                    __ccov6_start_blk9 04A0                    start_initialization 0076  
                 __ccov198_start_blk10 00C1                      __ccov62_end_blk51 0307  
                    __ccov54_end_blk43 02ED                      __ccov46_end_blk35 02DF  
                    __ccov38_end_blk27 02D3                      __ccov70_end_blk59 0317  
                          ___powerdown 0103                    __ccov168_start_blk0 0F10  
                  __ccov280_start_blk2 0F50                    __ccov176_start_blk3 0011  
                  __ccov192_start_blk3 009D                    __ccov264_start_blk3 0FB2  
                  __ccov272_start_blk4 0FED                      __ccov71_end_blk60 031A  
                    __ccov63_end_blk52 0308                      __ccov55_end_blk44 02EE  
                    __ccov47_end_blk36 02E0                      __ccov39_end_blk28 02D5  
                __ccov258_start_blk103 0275                      __ccov7_start_blk0 0F14  
                          _APFCON0bits 011D     __end_of_disable_external_interrupt 0F10  
           _disable_external_interrupt 0F0C                      __ccov72_end_blk61 0323  
                    __ccov64_end_blk53 030A                      __ccov56_end_blk45 02F0  
                    __ccov48_end_blk37 02E5                    __ccov62_start_blk51 0306  
                  __ccov54_start_blk43 02EC                    __ccov46_start_blk35 02DE  
                  __ccov38_start_blk27 02D2                      __ccov80_end_blk69 0354  
                  __ccov70_start_blk59 0314                            vfprintf@fmt 0058  
                             ??___wmul 0079                    __ccov169_start_blk1 0F11  
                  __ccov281_start_blk3 0F51                    __ccov193_start_blk4 00A2  
                  __ccov265_start_blk4 0FB4                    __ccov177_start_blk5 001B  
                  __ccov273_start_blk6 0FF1                   __size_of_Click_reset 0005  
                             ??_my_isr 0073                      __ccov81_end_blk70 0355  
                    __ccov73_end_blk62 0324                      __ccov65_end_blk54 030B  
                    __ccov57_end_blk46 02F1                      __ccov49_end_blk38 02E6  
                 __ccov160_start_blk12 04EA                   __ccov208_start_blk22 00FB  
                 __ccov224_start_blk51 017C                   __ccov216_start_blk35 0139  
                 __ccov232_start_blk63 01B1                   __ccov240_start_blk73 01DB  
                             ??_printf 007C                            _checkState1 0096  
                    __ccov8_start_blk1 0F17                            __pbssCOMMON 007D  
                            ___latbits 0002                          __pcstackBANK0 004C  
             __end_of_Click_latch_data 0F28                   __ccov199_start_blk11 00C5  
                    __ccov82_end_blk71 035A                      __ccov74_end_blk63 0328  
                    __ccov66_end_blk55 030E                      __ccov58_end_blk47 0300  
                    __ccov90_end_blk79 03A7                              ___timeout 0104  
                             ?_PWM_set 0073                    __ccov282_start_blk4 0F52  
                  __ccov290_start_blk5 0F47                    __ccov194_start_blk5 00AA  
                  __ccov266_start_blk5 0FB6                    __ccov178_start_blk6 001C  
                  __ccov274_start_blk7 0FF2               ?_set_watchdog_timer_256s 0073  
                    __ccov83_end_blk72 035B                      __ccov75_end_blk64 032B  
                    __ccov67_end_blk56 030F                      __ccov59_end_blk48 0302  
                    __ccov91_end_blk81 03AC                      __ccov9_start_blk0 0F23  
                    __ccov84_end_blk73 0363                      __ccov76_end_blk65 032E  
                    __ccov68_end_blk57 0311                      __ccov92_end_blk82 03B0  
                  __ccov71_start_blk60 0317                    __ccov63_start_blk52 0307  
                  __ccov55_start_blk44 02ED                    __ccov47_start_blk36 02DF  
                  __ccov39_start_blk28 02D3                               ?___awdiv 0075  
                             ?___awmod 0075                  _enable_watchdog_timer 0F1E  
                  __ccov283_start_blk5 0F53                    __ccov267_start_blk6 0FB8  
                  __ccov179_start_blk7 001E                    __ccov195_start_blk7 00B1  
                  __ccov275_start_blk8 0FF8                            ??_UART_init 0075  
                    __ccov85_end_blk74 037C                      __ccov77_end_blk66 0338  
                    __ccov69_end_blk58 0314                      __ccov93_end_blk83 03B1  
                 __ccov129_start_blk10 0686                   __ccov145_start_blk11 06EC  
                 __ccov161_start_blk13 04F8                   __ccov209_start_blk25 0104  
                 __ccov225_start_blk52 017F                   __ccov217_start_blk36 013E  
                 __ccov233_start_blk64 01B6                   __ccov241_start_blk74 01DC  
                    __size_of_vfprintf 0028                               ?_int2bcd 0051  
       __size_of_set_watchdog_timer_1s 0010         __size_of_set_watchdog_timer_4s 0010  
                __ccov108_start_blk102 03ED          __end_of_set_watchdog_timer_1s 0F78  
        __end_of_set_watchdog_timer_4s 0F98                      __ccov86_end_blk75 038C  
                    __ccov78_end_blk67 0340                      __ccov94_end_blk84 03B2  
                     _sleep_1s_counter 0036                         __size_of_fputc 0040  
                       __size_of_putch 000C                    __ccov284_start_blk6 0F54  
                  __ccov268_start_blk7 0FBA                    __ccov196_start_blk8 00B9  
                  __ccov276_start_blk9 0FFA                              _spi1_init 0FAA  
                            _spi1_send 0FDC                      __ccov87_end_blk76 0399  
                    __ccov79_end_blk68 0348                      __ccov95_end_blk85 03B5  
                       ___wmul@product 0079                               _LATAbits 010C  
                             _LATCbits 010E       __end_of_set_watchdog_timer_128ms 0F36  
     __end_of_set_watchdog_timer_256ms 0F3E                              clear_ram0 0F28  
                __ccov259_start_blk106 027E                               _PIE1bits 0091  
                     _sleep_4s_counter 0034                               _PIR1bits 0011  
                    main@pwm_direction 0338                    __ccov72_start_blk61 031A  
                  __ccov64_start_blk53 0308                    __ccov56_start_blk45 02EE  
                  __ccov48_start_blk37 02E0                      __ccov88_end_blk77 039B  
                    __ccov96_end_blk86 03B8                    __ccov80_start_blk69 0348  
                             _SSP1CON1 0215                          ??_timer2_init 0075  
                            _vfpfcnvrt 051F                    __ccov269_start_blk0 0FDC  
                  __ccov285_start_blk7 0F55                    __ccov197_start_blk9 00BC  
                    _getBatteryVoltage 06D4                             _ADCON0bits 009D  
                           _ADCON1bits 009E                      __ccov89_end_blk78 03A4  
                    __ccov97_end_blk87 03BA                   __ccov146_start_blk13 06ED  
                 __ccov162_start_blk14 04FD                   __ccov218_start_blk37 0140  
                 __ccov226_start_blk55 0186                   __ccov242_start_blk80 01E7  
                 __ccov234_start_blk66 01BF                   __ccov250_start_blk88 0241  
                    ___wmul@multiplier 0075     __size_of_enable_external_interrupt 0004  
                   ?_getBatteryVoltage 0075                               _WPUAbits 020C  
                  main@output_polarity 0394                      __ccov98_end_blk88 03BC  
                  ??_getBatteryVoltage 0077                  __ccov260_start_blk108 02AA  
                  __ccov278_start_blk0 0F4A                    __ccov286_start_blk8 0F56  
                     __size_of_PWM_set 0046                             ?_spi1_init 0073  
                           ?_spi1_send 007C                      __ccov99_end_blk89 03BE  
             PWM_set@scaled_duty_cycle 004C                          _ihcPulseTimer 003C  
                           vfprintf@ap 005A                             vfprintf@fp 005B  
                  __ccov110_end_blk105 0400                ?_disable_watchdog_timer 0073  
                  __ccov81_start_blk70 0354                    __ccov73_start_blk62 0323  
                  __ccov65_start_blk54 030A                    __ccov57_start_blk46 02F0  
                  __ccov49_start_blk38 02E5                   __ccov100_start_blk90 03BE  
               ?_enable_watchdog_timer 0073              __end_of_getBatteryVoltage 070C  
                     __size_of___awdiv 0060                       __size_of___awmod 0053  
                           ?_vfpfcnvrt 0051                    __ccov279_start_blk1 0F4D  
                 __ccov147_start_blk15 06F1                   __ccov163_start_blk16 0502  
                 __ccov219_start_blk38 014A                   __ccov227_start_blk56 0193  
                 __ccov243_start_blk81 01EA                   __ccov235_start_blk67 01C1  
                 __ccov251_start_blk89 0243                             _ANSELAbits 018C  
                           _ANSELBbits 018D                       __size_of_int2bcd 008A  
                  __end_of_timer2_init 0F68                  __ccov109_start_blk104 03F2  
    __end_of_enable_external_interrupt 0F14                    _sleep_128ms_counter 003A  
               main@write2display_copy 0066                    __ccov111_end_blk106 040B  
                             __ptext10 0F78                               __ptext11 0F36  
                             __ptext20 0F1E                               __ptext12 0F68  
                             __ptext21 0F10                               __ptext13 0F98  
                             __ptext22 0F19                               __ptext14 079C  
                             __ptext23 0F0C                               __ptext15 051F  
                             __ptext24 059B                               __ptext16 0694  
                             __ptext25 0F4A                               __ptext17 0F3E  
                             __ptext26 064E                               __ptext18 0F2E  
                             __ptext27 0FBD                               __ptext19 06D4  
                             __ptext28 0F14   __end_of_watch_dog_incrementing_timer 051F  
__size_of_watch_dog_incrementing_timer 007D           _watch_dog_incrementing_timer 04A2  
                         _SSP1CON1bits 0215                             _MDCARHbits 039F  
                           _MDCARLbits 039E                    __ccov288_start_blk2 0F3E  
                        __size_of_main 016B         __end_of_disable_watchdog_timer 0F1E  
          ?_disable_external_interrupt 0073                     __ccov100_end_blk90 03C0  
                         _PSTR1CONbits 0296                    __ccov112_end_blk107 0411  
                  __ccov82_start_blk71 0355                    __ccov74_start_blk63 0324  
                  __ccov66_start_blk55 030B                    __ccov58_start_blk47 02F1  
                  __ccov90_start_blk79 03A4                   __ccov101_start_blk91 03C0  
                             int$flags 007E                               _vfprintf 079C  
                            printf@fmt 005E                           _SSP1STATbits 0214  
                __ccov110_start_blk105 03F9                    __ccov289_start_blk4 0F44  
                   __ccov101_end_blk91 03C4                   __ccov180_start_blk10 0023  
                 __ccov148_start_blk16 0702                   __ccov164_start_blk17 0510  
                 __ccov252_start_blk90 024C                   __ccov244_start_blk82 01EC  
                 __ccov228_start_blk58 019A                   __ccov236_start_blk68 01C5  
                         ?_checkState1 0073      __size_of_set_watchdog_timer_128ms 0008  
    __size_of_set_watchdog_timer_256ms 0008                              putch@data 0075  
            ?_set_watchdog_timer_128ms 0073                             _INLVLAbits 038C  
            ?_set_watchdog_timer_256ms 0073                             _INTCONbits 000B  
                   __ccov10_start_blk1 0F26                            _PWM1CONbits 0294  
                           _FVRCONbits 0117                     __ccov102_end_blk92 03CE  
                    ?_Click_latch_data 0073                         __pstringtext10 107A  
                       __pstringtext11 1094                         __pstringtext20 115A  
                       __pstringtext12 10AC                         __pstringtext21 116C  
                       __pstringtext13 10C4                         __pstringtext22 117E  
                       __pstringtext14 10DC                         __pstringtext23 118F  
                       __pstringtext15 10F3                         __pstringtext24 0000  
                       __pstringtext16 110A                         __pstringtext17 111F  
                       __pstringtext18 1133                         __pstringtext19 1147  
                  __ccov113_end_blk110 0416                     ??_Click_latch_data 0075  
        ?_watch_dog_incrementing_timer 0073                               intlevel1 0000  
                          ??_spi1_init 0075                            ??_spi1_send 007D  
                   __ccov103_end_blk94 03CF                            _prelCounter 003E  
                       _BatteryVoltage 004A                     __ccov11_start_blk0 02AD  
                           _OSCCONbits 0099                     __ccov200_end_blk13 00D5  
                   __ccov104_end_blk95 03D1                          ??_Click_reset 0075  
                  __ccov83_start_blk72 035A                    __ccov75_start_blk64 0328  
                  __ccov67_start_blk56 030E                    __ccov59_start_blk48 0300  
                  __ccov91_start_blk81 03A7                               printf@ap 0060  
                 __ccov102_start_blk92 03C4             __size_of_getBatteryVoltage 0038  
                          _timer2_init 0F59       __size_of_set_watchdog_timer_256s 0010  
                          ??_vfpfcnvrt 0053                          __pstringtext1 0740  
                        __pstringtext2 070C                          __pstringtext3 0773  
                        __pstringtext4 07C4                          __pstringtext5 07E9  
                        __pstringtext6 1000                          __pstringtext7 101F  
                        __pstringtext8 103E                          __pstringtext9 105C  
                   __ccov201_end_blk14 00DE                     __ccov105_end_blk96 03D6  
                 __ccov181_start_blk11 0035                   __ccov149_start_blk17 0704  
                 __ccov165_start_blk18 0515                   __ccov229_start_blk60 01A1  
                 __ccov253_start_blk91 0251                   __ccov245_start_blk83 01FB  
                 __ccov237_start_blk69 01C9                     __ccov12_start_blk1 02B2  
                   __ccov20_start_blk9 02BF                             _SRCON0bits 011A  
                  _sleep_256ms_counter 0038                     __ccov130_end_blk14 0694  
                   __ccov202_end_blk15 00E2                     __ccov210_end_blk26 0118  
                   __ccov106_end_blk99 03E9                             _WDTCONbits 0097  
                  __ccov107_end_blk101 03ED                      __ccov121_end_blk0 0655  
                    __ccov122_end_blk1 0657                     __ccov203_end_blk16 00EB  
                   __ccov211_end_blk28 011E                    __ccov21_start_blk10 02C0  
                    __ccov131_end_blk0 0F5C                      __ccov123_end_blk2 065B  
                   __ccov13_start_blk2 02B5  
